
build/ch.elf:     file format elf32-littlearm


Disassembly of section .vectors:

08000000 <_vectors>:
 8000000:	20000400 	.word	0x20000400
 8000004:	080002b9 	.word	0x080002b9
 8000008:	080002bb 	.word	0x080002bb
 800000c:	080002bb 	.word	0x080002bb
 8000010:	080002bb 	.word	0x080002bb
 8000014:	080002bb 	.word	0x080002bb
 8000018:	080002bb 	.word	0x080002bb
 800001c:	080002bb 	.word	0x080002bb
 8000020:	080002bb 	.word	0x080002bb
 8000024:	080002bb 	.word	0x080002bb
 8000028:	080002bb 	.word	0x080002bb
 800002c:	08003b61 	.word	0x08003b61
 8000030:	080002bb 	.word	0x080002bb
 8000034:	080002bb 	.word	0x080002bb
 8000038:	080002bb 	.word	0x080002bb
 800003c:	080002bb 	.word	0x080002bb
 8000040:	080002bb 	.word	0x080002bb
 8000044:	080002bb 	.word	0x080002bb
 8000048:	080002bb 	.word	0x080002bb
 800004c:	080002bb 	.word	0x080002bb
 8000050:	080002bb 	.word	0x080002bb
 8000054:	080002bb 	.word	0x080002bb
 8000058:	080061c1 	.word	0x080061c1
 800005c:	08006191 	.word	0x08006191
 8000060:	08006161 	.word	0x08006161
 8000064:	08006131 	.word	0x08006131
 8000068:	08006101 	.word	0x08006101
 800006c:	08005fe1 	.word	0x08005fe1
 8000070:	08005fb1 	.word	0x08005fb1
 8000074:	08005f81 	.word	0x08005f81
 8000078:	08005f51 	.word	0x08005f51
 800007c:	08005f21 	.word	0x08005f21
 8000080:	08005ef1 	.word	0x08005ef1
 8000084:	08005ec1 	.word	0x08005ec1
 8000088:	080002bb 	.word	0x080002bb
 800008c:	080002bb 	.word	0x080002bb
 8000090:	080002bb 	.word	0x080002bb
 8000094:	080002bb 	.word	0x080002bb
 8000098:	080002bb 	.word	0x080002bb
 800009c:	08006091 	.word	0x08006091
 80000a0:	080002bb 	.word	0x080002bb
 80000a4:	080002bb 	.word	0x080002bb
 80000a8:	080002bb 	.word	0x080002bb
 80000ac:	080002bb 	.word	0x080002bb
 80000b0:	08005c51 	.word	0x08005c51
 80000b4:	080002bb 	.word	0x080002bb
 80000b8:	080002bb 	.word	0x080002bb
 80000bc:	080002bb 	.word	0x080002bb
 80000c0:	080002bb 	.word	0x080002bb
 80000c4:	080002bb 	.word	0x080002bb
 80000c8:	080002bb 	.word	0x080002bb
 80000cc:	080002bb 	.word	0x080002bb
 80000d0:	080002bb 	.word	0x080002bb
 80000d4:	080002bb 	.word	0x080002bb
 80000d8:	08005aa1 	.word	0x08005aa1
 80000dc:	080002bb 	.word	0x080002bb
 80000e0:	08006011 	.word	0x08006011
 80000e4:	080002bb 	.word	0x080002bb
 80000e8:	080002bb 	.word	0x080002bb
 80000ec:	080002bb 	.word	0x080002bb
 80000f0:	080002bb 	.word	0x080002bb
 80000f4:	080002bb 	.word	0x080002bb
 80000f8:	080002bb 	.word	0x080002bb
 80000fc:	08005e91 	.word	0x08005e91
 8000100:	080002bb 	.word	0x080002bb
 8000104:	080002bb 	.word	0x080002bb
 8000108:	080002bb 	.word	0x080002bb
 800010c:	080002bb 	.word	0x080002bb
 8000110:	080002bb 	.word	0x080002bb
 8000114:	080002bb 	.word	0x080002bb
 8000118:	080002bb 	.word	0x080002bb
 800011c:	080002bb 	.word	0x080002bb
 8000120:	08005e61 	.word	0x08005e61
 8000124:	08005e31 	.word	0x08005e31
 8000128:	08005e01 	.word	0x08005e01
 800012c:	08005dd1 	.word	0x08005dd1
 8000130:	08005da1 	.word	0x08005da1
 8000134:	080002bb 	.word	0x080002bb
 8000138:	080002bb 	.word	0x080002bb
 800013c:	080002bb 	.word	0x080002bb
 8000140:	080002bb 	.word	0x080002bb
 8000144:	080002bb 	.word	0x080002bb
 8000148:	080002bb 	.word	0x080002bb
 800014c:	080002bb 	.word	0x080002bb
 8000150:	08005d71 	.word	0x08005d71
 8000154:	08005d41 	.word	0x08005d41
 8000158:	08005d11 	.word	0x08005d11
 800015c:	080002bb 	.word	0x080002bb
 8000160:	080002bb 	.word	0x080002bb
 8000164:	080002bb 	.word	0x080002bb
 8000168:	080002bb 	.word	0x080002bb
 800016c:	080002bb 	.word	0x080002bb
 8000170:	080002bb 	.word	0x080002bb
 8000174:	080002bb 	.word	0x080002bb
 8000178:	080002bb 	.word	0x080002bb
 800017c:	080002bb 	.word	0x080002bb
 8000180:	080002bb 	.word	0x080002bb
 8000184:	080002bb 	.word	0x080002bb
 8000188:	080002bb 	.word	0x080002bb
 800018c:	080002bb 	.word	0x080002bb
 8000190:	080002bb 	.word	0x080002bb
 8000194:	080002bb 	.word	0x080002bb
 8000198:	080002bb 	.word	0x080002bb
 800019c:	080002bb 	.word	0x080002bb
 80001a0:	080002bb 	.word	0x080002bb
 80001a4:	080002bb 	.word	0x080002bb
 80001a8:	080002bb 	.word	0x080002bb
 80001ac:	080002bb 	.word	0x080002bb
 80001b0:	080002bb 	.word	0x080002bb
 80001b4:	080002bb 	.word	0x080002bb
 80001b8:	080002bb 	.word	0x080002bb
 80001bc:	080002bb 	.word	0x080002bb
 80001c0:	080002bb 	.word	0x080002bb
 80001c4:	080002bb 	.word	0x080002bb
 80001c8:	080002bb 	.word	0x080002bb
 80001cc:	080002bb 	.word	0x080002bb
 80001d0:	080002bb 	.word	0x080002bb
 80001d4:	080002bb 	.word	0x080002bb
 80001d8:	080002bb 	.word	0x080002bb
 80001dc:	080002bb 	.word	0x080002bb

Disassembly of section .text:

080001e0 <_crt0_entry>:
                .align  2
                .thumb_func
                .global _crt0_entry
_crt0_entry:
                /* Interrupts are globally masked initially.*/
                cpsid   i
 80001e0:	b672      	cpsid	i

#if CRT0_FORCE_MSP_INIT == TRUE
                /* MSP stack pointers initialization.*/
                ldr     r0, =__main_stack_end__
 80001e2:	4827      	ldr	r0, [pc, #156]	; (8000280 <endfiniloop+0x4>)
                msr     MSP, r0
 80001e4:	f380 8808 	msr	MSP, r0
#endif

                /* PSP stack pointers initialization.*/
                ldr     r0, =__process_stack_end__
 80001e8:	4826      	ldr	r0, [pc, #152]	; (8000284 <endfiniloop+0x8>)
                msr     PSP, r0
 80001ea:	f380 8809 	msr	PSP, r0

#if CRT0_VTOR_INIT == TRUE
                ldr     r0, =_vectors
 80001ee:	4826      	ldr	r0, [pc, #152]	; (8000288 <endfiniloop+0xc>)
                movw    r1, #SCB_VTOR & 0xFFFF
 80001f0:	f64e 5108 	movw	r1, #60680	; 0xed08
                movt    r1, #SCB_VTOR >> 16
 80001f4:	f2ce 0100 	movt	r1, #57344	; 0xe000
                str     r0, [r1]
 80001f8:	6008      	str	r0, [r1, #0]

                /* Enforcing FPCA bit in the CONTROL register.*/
                movs    r0, #CRT0_CONTROL_INIT | CONTROL_FPCA

#else
                movs    r0, #CRT0_CONTROL_INIT
 80001fa:	2002      	movs	r0, #2
#endif

                /* CONTROL register initialization as configured.*/
                msr     CONTROL, r0
 80001fc:	f380 8814 	msr	CONTROL, r0
                isb
 8000200:	f3bf 8f6f 	isb	sy

#if CRT0_INIT_CORE == TRUE
                /* Core initialization.*/
                bl      __core_init
 8000204:	f006 f83c 	bl	8006280 <__core_init>
#endif

                /* Early initialization.*/
                bl      __early_init
 8000208:	f005 fb12 	bl	8005830 <__early_init>

#if CRT0_INIT_STACKS == TRUE
                ldr     r0, =CRT0_STACKS_FILL_PATTERN
 800020c:	f04f 3055 	mov.w	r0, #1431655765	; 0x55555555
                /* Main Stack initialization. Note, it assumes that the
                   stack size is a multiple of 4 so the linker file must
                   ensure this.*/
                ldr     r1, =__main_stack_base__
 8000210:	491e      	ldr	r1, [pc, #120]	; (800028c <endfiniloop+0x10>)
                ldr     r2, =__main_stack_end__
 8000212:	4a1b      	ldr	r2, [pc, #108]	; (8000280 <endfiniloop+0x4>)

08000214 <msloop>:
msloop:
                cmp     r1, r2
 8000214:	4291      	cmp	r1, r2
                itt     lo
 8000216:	bf3c      	itt	cc
                strlo   r0, [r1], #4
 8000218:	f841 0b04 	strcc.w	r0, [r1], #4
                blo     msloop
 800021c:	e7fa      	bcc.n	8000214 <msloop>

                /* Process Stack initialization. Note, it assumes that the
                   stack size is a multiple of 4 so the linker file must
                   ensure this.*/
                ldr     r1, =__process_stack_base__
 800021e:	491c      	ldr	r1, [pc, #112]	; (8000290 <endfiniloop+0x14>)
                ldr     r2, =__process_stack_end__
 8000220:	4a18      	ldr	r2, [pc, #96]	; (8000284 <endfiniloop+0x8>)

08000222 <psloop>:
psloop:
                cmp     r1, r2
 8000222:	4291      	cmp	r1, r2
                itt     lo
 8000224:	bf3c      	itt	cc
                strlo   r0, [r1], #4
 8000226:	f841 0b04 	strcc.w	r0, [r1], #4
                blo     psloop
 800022a:	e7fa      	bcc.n	8000222 <psloop>
#endif

#if CRT0_INIT_DATA == TRUE
                /* Data initialization. Note, it assumes that the DATA size
                  is a multiple of 4 so the linker file must ensure this.*/
                ldr     r1, =__textdata_base__
 800022c:	4919      	ldr	r1, [pc, #100]	; (8000294 <endfiniloop+0x18>)
                ldr     r2, =__data_base__
 800022e:	4a1a      	ldr	r2, [pc, #104]	; (8000298 <endfiniloop+0x1c>)
                ldr     r3, =__data_end__
 8000230:	4b1a      	ldr	r3, [pc, #104]	; (800029c <endfiniloop+0x20>)

08000232 <dloop>:
dloop:
                cmp     r2, r3
 8000232:	429a      	cmp	r2, r3
                ittt    lo
 8000234:	bf3e      	ittt	cc
                ldrlo   r0, [r1], #4
 8000236:	f851 0b04 	ldrcc.w	r0, [r1], #4
                strlo   r0, [r2], #4
 800023a:	f842 0b04 	strcc.w	r0, [r2], #4
                blo     dloop
 800023e:	e7f8      	bcc.n	8000232 <dloop>
#endif

#if CRT0_INIT_BSS == TRUE
                /* BSS initialization. Note, it assumes that the DATA size
                  is a multiple of 4 so the linker file must ensure this.*/
                movs    r0, #0
 8000240:	2000      	movs	r0, #0
                ldr     r1, =__bss_base__
 8000242:	4917      	ldr	r1, [pc, #92]	; (80002a0 <endfiniloop+0x24>)
                ldr     r2, =__bss_end__
 8000244:	4a17      	ldr	r2, [pc, #92]	; (80002a4 <endfiniloop+0x28>)

08000246 <bloop>:
bloop:
                cmp     r1, r2
 8000246:	4291      	cmp	r1, r2
                itt     lo
 8000248:	bf3c      	itt	cc
                strlo   r0, [r1], #4
 800024a:	f841 0b04 	strcc.w	r0, [r1], #4
                blo     bloop
 800024e:	e7fa      	bcc.n	8000246 <bloop>
#endif

#if CRT0_INIT_RAM_AREAS == TRUE
                /* RAM areas initialization.*/
                bl      __init_ram_areas
 8000250:	f005 ffce 	bl	80061f0 <__init_ram_areas>
#endif

                /* Late initialization..*/
                bl      __late_init
 8000254:	f006 f80c 	bl	8006270 <__late_init>

#if CRT0_CALL_CONSTRUCTORS == TRUE
                /* Constructors invocation.*/
                ldr     r4, =__init_array_base__
 8000258:	4c13      	ldr	r4, [pc, #76]	; (80002a8 <endfiniloop+0x2c>)
                ldr     r5, =__init_array_end__
 800025a:	4d14      	ldr	r5, [pc, #80]	; (80002ac <endfiniloop+0x30>)

0800025c <initloop>:
initloop:
                cmp     r4, r5
 800025c:	42ac      	cmp	r4, r5
                bge     endinitloop
 800025e:	da03      	bge.n	8000268 <endinitloop>
                ldr     r1, [r4], #4
 8000260:	f854 1b04 	ldr.w	r1, [r4], #4
                blx     r1
 8000264:	4788      	blx	r1
                b       initloop
 8000266:	e7f9      	b.n	800025c <initloop>

08000268 <endinitloop>:
endinitloop:
#endif

                /* Main program invocation, r0 contains the returned value.*/
                bl      main
 8000268:	f004 ff9a 	bl	80051a0 <main>

#if CRT0_CALL_DESTRUCTORS == TRUE
                /* Destructors invocation.*/
                ldr     r4, =__fini_array_base__
 800026c:	4c10      	ldr	r4, [pc, #64]	; (80002b0 <endfiniloop+0x34>)
                ldr     r5, =__fini_array_end__
 800026e:	4d11      	ldr	r5, [pc, #68]	; (80002b4 <endfiniloop+0x38>)

08000270 <finiloop>:
finiloop:
                cmp     r4, r5
 8000270:	42ac      	cmp	r4, r5
                bge     endfiniloop
 8000272:	da03      	bge.n	800027c <endfiniloop>
                ldr     r1, [r4], #4
 8000274:	f854 1b04 	ldr.w	r1, [r4], #4
                blx     r1
 8000278:	4788      	blx	r1
                b       finiloop
 800027a:	e7f9      	b.n	8000270 <finiloop>

0800027c <endfiniloop>:
endfiniloop:
#endif

                /* Branching to the defined exit handler.*/
                b       __default_exit
 800027c:	f005 bff0 	b.w	8006260 <__default_exit>
                ldr     r0, =__main_stack_end__
 8000280:	20000400 	.word	0x20000400
                ldr     r0, =__process_stack_end__
 8000284:	20000800 	.word	0x20000800
                ldr     r0, =_vectors
 8000288:	08000000 	.word	0x08000000
                ldr     r1, =__main_stack_base__
 800028c:	20000000 	.word	0x20000000
                ldr     r1, =__process_stack_base__
 8000290:	20000400 	.word	0x20000400
                ldr     r1, =__textdata_base__
 8000294:	080069d8 	.word	0x080069d8
                ldr     r2, =__data_base__
 8000298:	20000800 	.word	0x20000800
                ldr     r3, =__data_end__
 800029c:	200010f0 	.word	0x200010f0
                ldr     r1, =__bss_base__
 80002a0:	200010f0 	.word	0x200010f0
                ldr     r2, =__bss_end__
 80002a4:	200014dc 	.word	0x200014dc
                ldr     r4, =__init_array_base__
 80002a8:	080001e0 	.word	0x080001e0
                ldr     r5, =__init_array_end__
 80002ac:	080001e0 	.word	0x080001e0
                ldr     r4, =__fini_array_base__
 80002b0:	080001e0 	.word	0x080001e0
                ldr     r5, =__fini_array_end__
 80002b4:	080001e0 	.word	0x080001e0

080002b8 <Reset_Handler>:

        .align      2
        .thumb_func
        .weak       Reset_Handler
Reset_Handler:
         b          _crt0_entry
 80002b8:	e792      	b.n	80001e0 <_crt0_entry>

080002ba <BusFault_Handler>:
        .thumb_func
Vector3F8:
        .thumb_func
Vector3FC:
#endif
        bl          _unhandled_exception
 80002ba:	f000 f800 	bl	80002be <_unhandled_exception>

080002be <_unhandled_exception>:

        .thumb_func
        .weak       _unhandled_exception
_unhandled_exception:
.stay:
        b           .stay
 80002be:	e7fe      	b.n	80002be <_unhandled_exception>

080002c0 <_port_switch>:
 * Performs a context switch between two threads.
 *--------------------------------------------------------------------------*/
                .thumb_func
                .globl  _port_switch
_port_switch:
                push    {r4, r5, r6, r7, r8, r9, r10, r11, lr}
 80002c0:	e92d 4ff0 	stmdb	sp!, {r4, r5, r6, r7, r8, r9, sl, fp, lr}
#if PORT_SWITCHED_REGIONS_NUMBER == 4
                push    {r4, r5, r6, r7, r8, r9, r10, r11}
#endif
#endif

                str     sp, [r1, #CONTEXT_OFFSET]
 80002c4:	f8c1 d00c 	str.w	sp, [r1, #12]
#if (CORTEX_SIMPLIFIED_PRIORITY == FALSE) &&                                \
    ((CORTEX_MODEL == 3) || (CORTEX_MODEL == 4))
                /* Workaround for ARM errata 752419, only applied if
                   condition exists for it to be triggered.*/
                ldr     r3, [r0, #CONTEXT_OFFSET]
 80002c8:	68c3      	ldr	r3, [r0, #12]
                mov     sp, r3
 80002ca:	469d      	mov	sp, r3

#if CORTEX_USE_FPU
                /* Restoring FPU context.*/
                vpop    {s16-s31}
#endif
                pop     {r4, r5, r6, r7, r8, r9, r10, r11, pc}
 80002cc:	e8bd 8ff0 	ldmia.w	sp!, {r4, r5, r6, r7, r8, r9, sl, fp, pc}

080002d0 <_port_thread_start>:
                bl      _stats_stop_measure_crit_thd
#endif
#if CORTEX_SIMPLIFIED_PRIORITY
                cpsie   i
#else
                movs    r3, #0              /* CORTEX_BASEPRI_DISABLED */
 80002d0:	2300      	movs	r3, #0
                msr     BASEPRI, r3
 80002d2:	f383 8811 	msr	BASEPRI, r3
#endif
                mov     r0, r5
 80002d6:	4628      	mov	r0, r5
                blx     r4
 80002d8:	47a0      	blx	r4
                movs    r0, #0              /* MSG_OK */
 80002da:	2000      	movs	r0, #0
                bl      chThdExit
 80002dc:	f003 fc50 	bl	8003b80 <chThdExit>

080002e0 <_zombies>:
_zombies:       b       _zombies
 80002e0:	e7fe      	b.n	80002e0 <_zombies>

080002e2 <_port_switch_from_isr>:
                bl      _stats_start_measure_crit_thd
#endif
#if CH_DBG_SYSTEM_STATE_CHECK
                bl      _dbg_check_lock
#endif
                bl      chSchDoReschedule
 80002e2:	f003 fc75 	bl	8003bd0 <chSchDoReschedule>

080002e6 <_port_exit_from_isr>:
                movt    r3, #:upper16:SCB_ICSR
                mov     r2, ICSR_PENDSVSET
                str     r2, [r3, #0]
                cpsie   i
#else /* !CORTEX_SIMPLIFIED_PRIORITY */
                svc     #0
 80002e6:	df00      	svc	0
#endif /* !CORTEX_SIMPLIFIED_PRIORITY */
.L1:            b       .L1
 80002e8:	e7fe      	b.n	80002e8 <_port_exit_from_isr+0x2>
	...

080002ec <__aeabi_frsub>:
 80002ec:	f080 4000 	eor.w	r0, r0, #2147483648	; 0x80000000
 80002f0:	e002      	b.n	80002f8 <__addsf3>
 80002f2:	bf00      	nop

080002f4 <__aeabi_fsub>:
 80002f4:	f081 4100 	eor.w	r1, r1, #2147483648	; 0x80000000

080002f8 <__addsf3>:
 80002f8:	0042      	lsls	r2, r0, #1
 80002fa:	bf1f      	itttt	ne
 80002fc:	ea5f 0341 	movsne.w	r3, r1, lsl #1
 8000300:	ea92 0f03 	teqne	r2, r3
 8000304:	ea7f 6c22 	mvnsne.w	ip, r2, asr #24
 8000308:	ea7f 6c23 	mvnsne.w	ip, r3, asr #24
 800030c:	d06a      	beq.n	80003e4 <__addsf3+0xec>
 800030e:	ea4f 6212 	mov.w	r2, r2, lsr #24
 8000312:	ebd2 6313 	rsbs	r3, r2, r3, lsr #24
 8000316:	bfc1      	itttt	gt
 8000318:	18d2      	addgt	r2, r2, r3
 800031a:	4041      	eorgt	r1, r0
 800031c:	4048      	eorgt	r0, r1
 800031e:	4041      	eorgt	r1, r0
 8000320:	bfb8      	it	lt
 8000322:	425b      	neglt	r3, r3
 8000324:	2b19      	cmp	r3, #25
 8000326:	bf88      	it	hi
 8000328:	4770      	bxhi	lr
 800032a:	f010 4f00 	tst.w	r0, #2147483648	; 0x80000000
 800032e:	f440 0000 	orr.w	r0, r0, #8388608	; 0x800000
 8000332:	f020 407f 	bic.w	r0, r0, #4278190080	; 0xff000000
 8000336:	bf18      	it	ne
 8000338:	4240      	negne	r0, r0
 800033a:	f011 4f00 	tst.w	r1, #2147483648	; 0x80000000
 800033e:	f441 0100 	orr.w	r1, r1, #8388608	; 0x800000
 8000342:	f021 417f 	bic.w	r1, r1, #4278190080	; 0xff000000
 8000346:	bf18      	it	ne
 8000348:	4249      	negne	r1, r1
 800034a:	ea92 0f03 	teq	r2, r3
 800034e:	d03f      	beq.n	80003d0 <__addsf3+0xd8>
 8000350:	f1a2 0201 	sub.w	r2, r2, #1
 8000354:	fa41 fc03 	asr.w	ip, r1, r3
 8000358:	eb10 000c 	adds.w	r0, r0, ip
 800035c:	f1c3 0320 	rsb	r3, r3, #32
 8000360:	fa01 f103 	lsl.w	r1, r1, r3
 8000364:	f000 4300 	and.w	r3, r0, #2147483648	; 0x80000000
 8000368:	d502      	bpl.n	8000370 <__addsf3+0x78>
 800036a:	4249      	negs	r1, r1
 800036c:	eb60 0040 	sbc.w	r0, r0, r0, lsl #1
 8000370:	f5b0 0f00 	cmp.w	r0, #8388608	; 0x800000
 8000374:	d313      	bcc.n	800039e <__addsf3+0xa6>
 8000376:	f1b0 7f80 	cmp.w	r0, #16777216	; 0x1000000
 800037a:	d306      	bcc.n	800038a <__addsf3+0x92>
 800037c:	0840      	lsrs	r0, r0, #1
 800037e:	ea4f 0131 	mov.w	r1, r1, rrx
 8000382:	f102 0201 	add.w	r2, r2, #1
 8000386:	2afe      	cmp	r2, #254	; 0xfe
 8000388:	d251      	bcs.n	800042e <__addsf3+0x136>
 800038a:	f1b1 4f00 	cmp.w	r1, #2147483648	; 0x80000000
 800038e:	eb40 50c2 	adc.w	r0, r0, r2, lsl #23
 8000392:	bf08      	it	eq
 8000394:	f020 0001 	biceq.w	r0, r0, #1
 8000398:	ea40 0003 	orr.w	r0, r0, r3
 800039c:	4770      	bx	lr
 800039e:	0049      	lsls	r1, r1, #1
 80003a0:	eb40 0000 	adc.w	r0, r0, r0
 80003a4:	3a01      	subs	r2, #1
 80003a6:	bf28      	it	cs
 80003a8:	f5b0 0f00 	cmpcs.w	r0, #8388608	; 0x800000
 80003ac:	d2ed      	bcs.n	800038a <__addsf3+0x92>
 80003ae:	fab0 fc80 	clz	ip, r0
 80003b2:	f1ac 0c08 	sub.w	ip, ip, #8
 80003b6:	ebb2 020c 	subs.w	r2, r2, ip
 80003ba:	fa00 f00c 	lsl.w	r0, r0, ip
 80003be:	bfaa      	itet	ge
 80003c0:	eb00 50c2 	addge.w	r0, r0, r2, lsl #23
 80003c4:	4252      	neglt	r2, r2
 80003c6:	4318      	orrge	r0, r3
 80003c8:	bfbc      	itt	lt
 80003ca:	40d0      	lsrlt	r0, r2
 80003cc:	4318      	orrlt	r0, r3
 80003ce:	4770      	bx	lr
 80003d0:	f092 0f00 	teq	r2, #0
 80003d4:	f481 0100 	eor.w	r1, r1, #8388608	; 0x800000
 80003d8:	bf06      	itte	eq
 80003da:	f480 0000 	eoreq.w	r0, r0, #8388608	; 0x800000
 80003de:	3201      	addeq	r2, #1
 80003e0:	3b01      	subne	r3, #1
 80003e2:	e7b5      	b.n	8000350 <__addsf3+0x58>
 80003e4:	ea4f 0341 	mov.w	r3, r1, lsl #1
 80003e8:	ea7f 6c22 	mvns.w	ip, r2, asr #24
 80003ec:	bf18      	it	ne
 80003ee:	ea7f 6c23 	mvnsne.w	ip, r3, asr #24
 80003f2:	d021      	beq.n	8000438 <__addsf3+0x140>
 80003f4:	ea92 0f03 	teq	r2, r3
 80003f8:	d004      	beq.n	8000404 <__addsf3+0x10c>
 80003fa:	f092 0f00 	teq	r2, #0
 80003fe:	bf08      	it	eq
 8000400:	4608      	moveq	r0, r1
 8000402:	4770      	bx	lr
 8000404:	ea90 0f01 	teq	r0, r1
 8000408:	bf1c      	itt	ne
 800040a:	2000      	movne	r0, #0
 800040c:	4770      	bxne	lr
 800040e:	f012 4f7f 	tst.w	r2, #4278190080	; 0xff000000
 8000412:	d104      	bne.n	800041e <__addsf3+0x126>
 8000414:	0040      	lsls	r0, r0, #1
 8000416:	bf28      	it	cs
 8000418:	f040 4000 	orrcs.w	r0, r0, #2147483648	; 0x80000000
 800041c:	4770      	bx	lr
 800041e:	f112 7200 	adds.w	r2, r2, #33554432	; 0x2000000
 8000422:	bf3c      	itt	cc
 8000424:	f500 0000 	addcc.w	r0, r0, #8388608	; 0x800000
 8000428:	4770      	bxcc	lr
 800042a:	f000 4300 	and.w	r3, r0, #2147483648	; 0x80000000
 800042e:	f043 40fe 	orr.w	r0, r3, #2130706432	; 0x7f000000
 8000432:	f440 0000 	orr.w	r0, r0, #8388608	; 0x800000
 8000436:	4770      	bx	lr
 8000438:	ea7f 6222 	mvns.w	r2, r2, asr #24
 800043c:	bf16      	itet	ne
 800043e:	4608      	movne	r0, r1
 8000440:	ea7f 6323 	mvnseq.w	r3, r3, asr #24
 8000444:	4601      	movne	r1, r0
 8000446:	0242      	lsls	r2, r0, #9
 8000448:	bf06      	itte	eq
 800044a:	ea5f 2341 	movseq.w	r3, r1, lsl #9
 800044e:	ea90 0f01 	teqeq	r0, r1
 8000452:	f440 0080 	orrne.w	r0, r0, #4194304	; 0x400000
 8000456:	4770      	bx	lr

08000458 <__aeabi_ui2f>:
 8000458:	f04f 0300 	mov.w	r3, #0
 800045c:	e004      	b.n	8000468 <__aeabi_i2f+0x8>
 800045e:	bf00      	nop

08000460 <__aeabi_i2f>:
 8000460:	f010 4300 	ands.w	r3, r0, #2147483648	; 0x80000000
 8000464:	bf48      	it	mi
 8000466:	4240      	negmi	r0, r0
 8000468:	ea5f 0c00 	movs.w	ip, r0
 800046c:	bf08      	it	eq
 800046e:	4770      	bxeq	lr
 8000470:	f043 4396 	orr.w	r3, r3, #1258291200	; 0x4b000000
 8000474:	4601      	mov	r1, r0
 8000476:	f04f 0000 	mov.w	r0, #0
 800047a:	e01c      	b.n	80004b6 <__aeabi_l2f+0x2a>

0800047c <__aeabi_ul2f>:
 800047c:	ea50 0201 	orrs.w	r2, r0, r1
 8000480:	bf08      	it	eq
 8000482:	4770      	bxeq	lr
 8000484:	f04f 0300 	mov.w	r3, #0
 8000488:	e00a      	b.n	80004a0 <__aeabi_l2f+0x14>
 800048a:	bf00      	nop

0800048c <__aeabi_l2f>:
 800048c:	ea50 0201 	orrs.w	r2, r0, r1
 8000490:	bf08      	it	eq
 8000492:	4770      	bxeq	lr
 8000494:	f011 4300 	ands.w	r3, r1, #2147483648	; 0x80000000
 8000498:	d502      	bpl.n	80004a0 <__aeabi_l2f+0x14>
 800049a:	4240      	negs	r0, r0
 800049c:	eb61 0141 	sbc.w	r1, r1, r1, lsl #1
 80004a0:	ea5f 0c01 	movs.w	ip, r1
 80004a4:	bf02      	ittt	eq
 80004a6:	4684      	moveq	ip, r0
 80004a8:	4601      	moveq	r1, r0
 80004aa:	2000      	moveq	r0, #0
 80004ac:	f043 43b6 	orr.w	r3, r3, #1526726656	; 0x5b000000
 80004b0:	bf08      	it	eq
 80004b2:	f1a3 5380 	subeq.w	r3, r3, #268435456	; 0x10000000
 80004b6:	f5a3 0300 	sub.w	r3, r3, #8388608	; 0x800000
 80004ba:	fabc f28c 	clz	r2, ip
 80004be:	3a08      	subs	r2, #8
 80004c0:	eba3 53c2 	sub.w	r3, r3, r2, lsl #23
 80004c4:	db10      	blt.n	80004e8 <__aeabi_l2f+0x5c>
 80004c6:	fa01 fc02 	lsl.w	ip, r1, r2
 80004ca:	4463      	add	r3, ip
 80004cc:	fa00 fc02 	lsl.w	ip, r0, r2
 80004d0:	f1c2 0220 	rsb	r2, r2, #32
 80004d4:	f1bc 4f00 	cmp.w	ip, #2147483648	; 0x80000000
 80004d8:	fa20 f202 	lsr.w	r2, r0, r2
 80004dc:	eb43 0002 	adc.w	r0, r3, r2
 80004e0:	bf08      	it	eq
 80004e2:	f020 0001 	biceq.w	r0, r0, #1
 80004e6:	4770      	bx	lr
 80004e8:	f102 0220 	add.w	r2, r2, #32
 80004ec:	fa01 fc02 	lsl.w	ip, r1, r2
 80004f0:	f1c2 0220 	rsb	r2, r2, #32
 80004f4:	ea50 004c 	orrs.w	r0, r0, ip, lsl #1
 80004f8:	fa21 f202 	lsr.w	r2, r1, r2
 80004fc:	eb43 0002 	adc.w	r0, r3, r2
 8000500:	bf08      	it	eq
 8000502:	ea20 70dc 	biceq.w	r0, r0, ip, lsr #31
 8000506:	4770      	bx	lr

08000508 <__aeabi_fmul>:
 8000508:	f04f 0cff 	mov.w	ip, #255	; 0xff
 800050c:	ea1c 52d0 	ands.w	r2, ip, r0, lsr #23
 8000510:	bf1e      	ittt	ne
 8000512:	ea1c 53d1 	andsne.w	r3, ip, r1, lsr #23
 8000516:	ea92 0f0c 	teqne	r2, ip
 800051a:	ea93 0f0c 	teqne	r3, ip
 800051e:	d06f      	beq.n	8000600 <__aeabi_fmul+0xf8>
 8000520:	441a      	add	r2, r3
 8000522:	ea80 0c01 	eor.w	ip, r0, r1
 8000526:	0240      	lsls	r0, r0, #9
 8000528:	bf18      	it	ne
 800052a:	ea5f 2141 	movsne.w	r1, r1, lsl #9
 800052e:	d01e      	beq.n	800056e <__aeabi_fmul+0x66>
 8000530:	f04f 6300 	mov.w	r3, #134217728	; 0x8000000
 8000534:	ea43 1050 	orr.w	r0, r3, r0, lsr #5
 8000538:	ea43 1151 	orr.w	r1, r3, r1, lsr #5
 800053c:	fba0 3101 	umull	r3, r1, r0, r1
 8000540:	f00c 4000 	and.w	r0, ip, #2147483648	; 0x80000000
 8000544:	f5b1 0f00 	cmp.w	r1, #8388608	; 0x800000
 8000548:	bf3e      	ittt	cc
 800054a:	0049      	lslcc	r1, r1, #1
 800054c:	ea41 71d3 	orrcc.w	r1, r1, r3, lsr #31
 8000550:	005b      	lslcc	r3, r3, #1
 8000552:	ea40 0001 	orr.w	r0, r0, r1
 8000556:	f162 027f 	sbc.w	r2, r2, #127	; 0x7f
 800055a:	2afd      	cmp	r2, #253	; 0xfd
 800055c:	d81d      	bhi.n	800059a <__aeabi_fmul+0x92>
 800055e:	f1b3 4f00 	cmp.w	r3, #2147483648	; 0x80000000
 8000562:	eb40 50c2 	adc.w	r0, r0, r2, lsl #23
 8000566:	bf08      	it	eq
 8000568:	f020 0001 	biceq.w	r0, r0, #1
 800056c:	4770      	bx	lr
 800056e:	f090 0f00 	teq	r0, #0
 8000572:	f00c 4c00 	and.w	ip, ip, #2147483648	; 0x80000000
 8000576:	bf08      	it	eq
 8000578:	0249      	lsleq	r1, r1, #9
 800057a:	ea4c 2050 	orr.w	r0, ip, r0, lsr #9
 800057e:	ea40 2051 	orr.w	r0, r0, r1, lsr #9
 8000582:	3a7f      	subs	r2, #127	; 0x7f
 8000584:	bfc2      	ittt	gt
 8000586:	f1d2 03ff 	rsbsgt	r3, r2, #255	; 0xff
 800058a:	ea40 50c2 	orrgt.w	r0, r0, r2, lsl #23
 800058e:	4770      	bxgt	lr
 8000590:	f440 0000 	orr.w	r0, r0, #8388608	; 0x800000
 8000594:	f04f 0300 	mov.w	r3, #0
 8000598:	3a01      	subs	r2, #1
 800059a:	dc5d      	bgt.n	8000658 <__aeabi_fmul+0x150>
 800059c:	f112 0f19 	cmn.w	r2, #25
 80005a0:	bfdc      	itt	le
 80005a2:	f000 4000 	andle.w	r0, r0, #2147483648	; 0x80000000
 80005a6:	4770      	bxle	lr
 80005a8:	f1c2 0200 	rsb	r2, r2, #0
 80005ac:	0041      	lsls	r1, r0, #1
 80005ae:	fa21 f102 	lsr.w	r1, r1, r2
 80005b2:	f1c2 0220 	rsb	r2, r2, #32
 80005b6:	fa00 fc02 	lsl.w	ip, r0, r2
 80005ba:	ea5f 0031 	movs.w	r0, r1, rrx
 80005be:	f140 0000 	adc.w	r0, r0, #0
 80005c2:	ea53 034c 	orrs.w	r3, r3, ip, lsl #1
 80005c6:	bf08      	it	eq
 80005c8:	ea20 70dc 	biceq.w	r0, r0, ip, lsr #31
 80005cc:	4770      	bx	lr
 80005ce:	f092 0f00 	teq	r2, #0
 80005d2:	f000 4c00 	and.w	ip, r0, #2147483648	; 0x80000000
 80005d6:	bf02      	ittt	eq
 80005d8:	0040      	lsleq	r0, r0, #1
 80005da:	f410 0f00 	tsteq.w	r0, #8388608	; 0x800000
 80005de:	3a01      	subeq	r2, #1
 80005e0:	d0f9      	beq.n	80005d6 <__aeabi_fmul+0xce>
 80005e2:	ea40 000c 	orr.w	r0, r0, ip
 80005e6:	f093 0f00 	teq	r3, #0
 80005ea:	f001 4c00 	and.w	ip, r1, #2147483648	; 0x80000000
 80005ee:	bf02      	ittt	eq
 80005f0:	0049      	lsleq	r1, r1, #1
 80005f2:	f411 0f00 	tsteq.w	r1, #8388608	; 0x800000
 80005f6:	3b01      	subeq	r3, #1
 80005f8:	d0f9      	beq.n	80005ee <__aeabi_fmul+0xe6>
 80005fa:	ea41 010c 	orr.w	r1, r1, ip
 80005fe:	e78f      	b.n	8000520 <__aeabi_fmul+0x18>
 8000600:	ea0c 53d1 	and.w	r3, ip, r1, lsr #23
 8000604:	ea92 0f0c 	teq	r2, ip
 8000608:	bf18      	it	ne
 800060a:	ea93 0f0c 	teqne	r3, ip
 800060e:	d00a      	beq.n	8000626 <__aeabi_fmul+0x11e>
 8000610:	f030 4c00 	bics.w	ip, r0, #2147483648	; 0x80000000
 8000614:	bf18      	it	ne
 8000616:	f031 4c00 	bicsne.w	ip, r1, #2147483648	; 0x80000000
 800061a:	d1d8      	bne.n	80005ce <__aeabi_fmul+0xc6>
 800061c:	ea80 0001 	eor.w	r0, r0, r1
 8000620:	f000 4000 	and.w	r0, r0, #2147483648	; 0x80000000
 8000624:	4770      	bx	lr
 8000626:	f090 0f00 	teq	r0, #0
 800062a:	bf17      	itett	ne
 800062c:	f090 4f00 	teqne	r0, #2147483648	; 0x80000000
 8000630:	4608      	moveq	r0, r1
 8000632:	f091 0f00 	teqne	r1, #0
 8000636:	f091 4f00 	teqne	r1, #2147483648	; 0x80000000
 800063a:	d014      	beq.n	8000666 <__aeabi_fmul+0x15e>
 800063c:	ea92 0f0c 	teq	r2, ip
 8000640:	d101      	bne.n	8000646 <__aeabi_fmul+0x13e>
 8000642:	0242      	lsls	r2, r0, #9
 8000644:	d10f      	bne.n	8000666 <__aeabi_fmul+0x15e>
 8000646:	ea93 0f0c 	teq	r3, ip
 800064a:	d103      	bne.n	8000654 <__aeabi_fmul+0x14c>
 800064c:	024b      	lsls	r3, r1, #9
 800064e:	bf18      	it	ne
 8000650:	4608      	movne	r0, r1
 8000652:	d108      	bne.n	8000666 <__aeabi_fmul+0x15e>
 8000654:	ea80 0001 	eor.w	r0, r0, r1
 8000658:	f000 4000 	and.w	r0, r0, #2147483648	; 0x80000000
 800065c:	f040 40fe 	orr.w	r0, r0, #2130706432	; 0x7f000000
 8000660:	f440 0000 	orr.w	r0, r0, #8388608	; 0x800000
 8000664:	4770      	bx	lr
 8000666:	f040 40fe 	orr.w	r0, r0, #2130706432	; 0x7f000000
 800066a:	f440 0040 	orr.w	r0, r0, #12582912	; 0xc00000
 800066e:	4770      	bx	lr

08000670 <__aeabi_fdiv>:
 8000670:	f04f 0cff 	mov.w	ip, #255	; 0xff
 8000674:	ea1c 52d0 	ands.w	r2, ip, r0, lsr #23
 8000678:	bf1e      	ittt	ne
 800067a:	ea1c 53d1 	andsne.w	r3, ip, r1, lsr #23
 800067e:	ea92 0f0c 	teqne	r2, ip
 8000682:	ea93 0f0c 	teqne	r3, ip
 8000686:	d069      	beq.n	800075c <__aeabi_fdiv+0xec>
 8000688:	eba2 0203 	sub.w	r2, r2, r3
 800068c:	ea80 0c01 	eor.w	ip, r0, r1
 8000690:	0249      	lsls	r1, r1, #9
 8000692:	ea4f 2040 	mov.w	r0, r0, lsl #9
 8000696:	d037      	beq.n	8000708 <__aeabi_fdiv+0x98>
 8000698:	f04f 5380 	mov.w	r3, #268435456	; 0x10000000
 800069c:	ea43 1111 	orr.w	r1, r3, r1, lsr #4
 80006a0:	ea43 1310 	orr.w	r3, r3, r0, lsr #4
 80006a4:	f00c 4000 	and.w	r0, ip, #2147483648	; 0x80000000
 80006a8:	428b      	cmp	r3, r1
 80006aa:	bf38      	it	cc
 80006ac:	005b      	lslcc	r3, r3, #1
 80006ae:	f142 027d 	adc.w	r2, r2, #125	; 0x7d
 80006b2:	f44f 0c00 	mov.w	ip, #8388608	; 0x800000
 80006b6:	428b      	cmp	r3, r1
 80006b8:	bf24      	itt	cs
 80006ba:	1a5b      	subcs	r3, r3, r1
 80006bc:	ea40 000c 	orrcs.w	r0, r0, ip
 80006c0:	ebb3 0f51 	cmp.w	r3, r1, lsr #1
 80006c4:	bf24      	itt	cs
 80006c6:	eba3 0351 	subcs.w	r3, r3, r1, lsr #1
 80006ca:	ea40 005c 	orrcs.w	r0, r0, ip, lsr #1
 80006ce:	ebb3 0f91 	cmp.w	r3, r1, lsr #2
 80006d2:	bf24      	itt	cs
 80006d4:	eba3 0391 	subcs.w	r3, r3, r1, lsr #2
 80006d8:	ea40 009c 	orrcs.w	r0, r0, ip, lsr #2
 80006dc:	ebb3 0fd1 	cmp.w	r3, r1, lsr #3
 80006e0:	bf24      	itt	cs
 80006e2:	eba3 03d1 	subcs.w	r3, r3, r1, lsr #3
 80006e6:	ea40 00dc 	orrcs.w	r0, r0, ip, lsr #3
 80006ea:	011b      	lsls	r3, r3, #4
 80006ec:	bf18      	it	ne
 80006ee:	ea5f 1c1c 	movsne.w	ip, ip, lsr #4
 80006f2:	d1e0      	bne.n	80006b6 <__aeabi_fdiv+0x46>
 80006f4:	2afd      	cmp	r2, #253	; 0xfd
 80006f6:	f63f af50 	bhi.w	800059a <__aeabi_fmul+0x92>
 80006fa:	428b      	cmp	r3, r1
 80006fc:	eb40 50c2 	adc.w	r0, r0, r2, lsl #23
 8000700:	bf08      	it	eq
 8000702:	f020 0001 	biceq.w	r0, r0, #1
 8000706:	4770      	bx	lr
 8000708:	f00c 4c00 	and.w	ip, ip, #2147483648	; 0x80000000
 800070c:	ea4c 2050 	orr.w	r0, ip, r0, lsr #9
 8000710:	327f      	adds	r2, #127	; 0x7f
 8000712:	bfc2      	ittt	gt
 8000714:	f1d2 03ff 	rsbsgt	r3, r2, #255	; 0xff
 8000718:	ea40 50c2 	orrgt.w	r0, r0, r2, lsl #23
 800071c:	4770      	bxgt	lr
 800071e:	f440 0000 	orr.w	r0, r0, #8388608	; 0x800000
 8000722:	f04f 0300 	mov.w	r3, #0
 8000726:	3a01      	subs	r2, #1
 8000728:	e737      	b.n	800059a <__aeabi_fmul+0x92>
 800072a:	f092 0f00 	teq	r2, #0
 800072e:	f000 4c00 	and.w	ip, r0, #2147483648	; 0x80000000
 8000732:	bf02      	ittt	eq
 8000734:	0040      	lsleq	r0, r0, #1
 8000736:	f410 0f00 	tsteq.w	r0, #8388608	; 0x800000
 800073a:	3a01      	subeq	r2, #1
 800073c:	d0f9      	beq.n	8000732 <__aeabi_fdiv+0xc2>
 800073e:	ea40 000c 	orr.w	r0, r0, ip
 8000742:	f093 0f00 	teq	r3, #0
 8000746:	f001 4c00 	and.w	ip, r1, #2147483648	; 0x80000000
 800074a:	bf02      	ittt	eq
 800074c:	0049      	lsleq	r1, r1, #1
 800074e:	f411 0f00 	tsteq.w	r1, #8388608	; 0x800000
 8000752:	3b01      	subeq	r3, #1
 8000754:	d0f9      	beq.n	800074a <__aeabi_fdiv+0xda>
 8000756:	ea41 010c 	orr.w	r1, r1, ip
 800075a:	e795      	b.n	8000688 <__aeabi_fdiv+0x18>
 800075c:	ea0c 53d1 	and.w	r3, ip, r1, lsr #23
 8000760:	ea92 0f0c 	teq	r2, ip
 8000764:	d108      	bne.n	8000778 <__aeabi_fdiv+0x108>
 8000766:	0242      	lsls	r2, r0, #9
 8000768:	f47f af7d 	bne.w	8000666 <__aeabi_fmul+0x15e>
 800076c:	ea93 0f0c 	teq	r3, ip
 8000770:	f47f af70 	bne.w	8000654 <__aeabi_fmul+0x14c>
 8000774:	4608      	mov	r0, r1
 8000776:	e776      	b.n	8000666 <__aeabi_fmul+0x15e>
 8000778:	ea93 0f0c 	teq	r3, ip
 800077c:	d104      	bne.n	8000788 <__aeabi_fdiv+0x118>
 800077e:	024b      	lsls	r3, r1, #9
 8000780:	f43f af4c 	beq.w	800061c <__aeabi_fmul+0x114>
 8000784:	4608      	mov	r0, r1
 8000786:	e76e      	b.n	8000666 <__aeabi_fmul+0x15e>
 8000788:	f030 4c00 	bics.w	ip, r0, #2147483648	; 0x80000000
 800078c:	bf18      	it	ne
 800078e:	f031 4c00 	bicsne.w	ip, r1, #2147483648	; 0x80000000
 8000792:	d1ca      	bne.n	800072a <__aeabi_fdiv+0xba>
 8000794:	f030 4200 	bics.w	r2, r0, #2147483648	; 0x80000000
 8000798:	f47f af5c 	bne.w	8000654 <__aeabi_fmul+0x14c>
 800079c:	f031 4300 	bics.w	r3, r1, #2147483648	; 0x80000000
 80007a0:	f47f af3c 	bne.w	800061c <__aeabi_fmul+0x114>
 80007a4:	e75f      	b.n	8000666 <__aeabi_fmul+0x15e>
 80007a6:	bf00      	nop

080007a8 <__gesf2>:
 80007a8:	f04f 3cff 	mov.w	ip, #4294967295	; 0xffffffff
 80007ac:	e006      	b.n	80007bc <__cmpsf2+0x4>
 80007ae:	bf00      	nop

080007b0 <__lesf2>:
 80007b0:	f04f 0c01 	mov.w	ip, #1
 80007b4:	e002      	b.n	80007bc <__cmpsf2+0x4>
 80007b6:	bf00      	nop

080007b8 <__cmpsf2>:
 80007b8:	f04f 0c01 	mov.w	ip, #1
 80007bc:	f84d cd04 	str.w	ip, [sp, #-4]!
 80007c0:	ea4f 0240 	mov.w	r2, r0, lsl #1
 80007c4:	ea4f 0341 	mov.w	r3, r1, lsl #1
 80007c8:	ea7f 6c22 	mvns.w	ip, r2, asr #24
 80007cc:	bf18      	it	ne
 80007ce:	ea7f 6c23 	mvnsne.w	ip, r3, asr #24
 80007d2:	d011      	beq.n	80007f8 <__cmpsf2+0x40>
 80007d4:	b001      	add	sp, #4
 80007d6:	ea52 0c53 	orrs.w	ip, r2, r3, lsr #1
 80007da:	bf18      	it	ne
 80007dc:	ea90 0f01 	teqne	r0, r1
 80007e0:	bf58      	it	pl
 80007e2:	ebb2 0003 	subspl.w	r0, r2, r3
 80007e6:	bf88      	it	hi
 80007e8:	17c8      	asrhi	r0, r1, #31
 80007ea:	bf38      	it	cc
 80007ec:	ea6f 70e1 	mvncc.w	r0, r1, asr #31
 80007f0:	bf18      	it	ne
 80007f2:	f040 0001 	orrne.w	r0, r0, #1
 80007f6:	4770      	bx	lr
 80007f8:	ea7f 6c22 	mvns.w	ip, r2, asr #24
 80007fc:	d102      	bne.n	8000804 <__cmpsf2+0x4c>
 80007fe:	ea5f 2c40 	movs.w	ip, r0, lsl #9
 8000802:	d105      	bne.n	8000810 <__cmpsf2+0x58>
 8000804:	ea7f 6c23 	mvns.w	ip, r3, asr #24
 8000808:	d1e4      	bne.n	80007d4 <__cmpsf2+0x1c>
 800080a:	ea5f 2c41 	movs.w	ip, r1, lsl #9
 800080e:	d0e1      	beq.n	80007d4 <__cmpsf2+0x1c>
 8000810:	f85d 0b04 	ldr.w	r0, [sp], #4
 8000814:	4770      	bx	lr
 8000816:	bf00      	nop

08000818 <__aeabi_cfrcmple>:
 8000818:	4684      	mov	ip, r0
 800081a:	4608      	mov	r0, r1
 800081c:	4661      	mov	r1, ip
 800081e:	e7ff      	b.n	8000820 <__aeabi_cfcmpeq>

08000820 <__aeabi_cfcmpeq>:
 8000820:	b50f      	push	{r0, r1, r2, r3, lr}
 8000822:	f7ff ffc9 	bl	80007b8 <__cmpsf2>
 8000826:	2800      	cmp	r0, #0
 8000828:	bf48      	it	mi
 800082a:	f110 0f00 	cmnmi.w	r0, #0
 800082e:	bd0f      	pop	{r0, r1, r2, r3, pc}

08000830 <__aeabi_fcmpeq>:
 8000830:	f84d ed08 	str.w	lr, [sp, #-8]!
 8000834:	f7ff fff4 	bl	8000820 <__aeabi_cfcmpeq>
 8000838:	bf0c      	ite	eq
 800083a:	2001      	moveq	r0, #1
 800083c:	2000      	movne	r0, #0
 800083e:	f85d fb08 	ldr.w	pc, [sp], #8
 8000842:	bf00      	nop

08000844 <__aeabi_fcmplt>:
 8000844:	f84d ed08 	str.w	lr, [sp, #-8]!
 8000848:	f7ff ffea 	bl	8000820 <__aeabi_cfcmpeq>
 800084c:	bf34      	ite	cc
 800084e:	2001      	movcc	r0, #1
 8000850:	2000      	movcs	r0, #0
 8000852:	f85d fb08 	ldr.w	pc, [sp], #8
 8000856:	bf00      	nop

08000858 <__aeabi_fcmple>:
 8000858:	f84d ed08 	str.w	lr, [sp, #-8]!
 800085c:	f7ff ffe0 	bl	8000820 <__aeabi_cfcmpeq>
 8000860:	bf94      	ite	ls
 8000862:	2001      	movls	r0, #1
 8000864:	2000      	movhi	r0, #0
 8000866:	f85d fb08 	ldr.w	pc, [sp], #8
 800086a:	bf00      	nop

0800086c <__aeabi_fcmpge>:
 800086c:	f84d ed08 	str.w	lr, [sp, #-8]!
 8000870:	f7ff ffd2 	bl	8000818 <__aeabi_cfrcmple>
 8000874:	bf94      	ite	ls
 8000876:	2001      	movls	r0, #1
 8000878:	2000      	movhi	r0, #0
 800087a:	f85d fb08 	ldr.w	pc, [sp], #8
 800087e:	bf00      	nop

08000880 <__aeabi_fcmpgt>:
 8000880:	f84d ed08 	str.w	lr, [sp, #-8]!
 8000884:	f7ff ffc8 	bl	8000818 <__aeabi_cfrcmple>
 8000888:	bf34      	ite	cc
 800088a:	2001      	movcc	r0, #1
 800088c:	2000      	movcs	r0, #0
 800088e:	f85d fb08 	ldr.w	pc, [sp], #8
 8000892:	bf00      	nop

08000894 <__aeabi_f2iz>:
 8000894:	ea4f 0240 	mov.w	r2, r0, lsl #1
 8000898:	f1b2 4ffe 	cmp.w	r2, #2130706432	; 0x7f000000
 800089c:	d30f      	bcc.n	80008be <__aeabi_f2iz+0x2a>
 800089e:	f04f 039e 	mov.w	r3, #158	; 0x9e
 80008a2:	ebb3 6212 	subs.w	r2, r3, r2, lsr #24
 80008a6:	d90d      	bls.n	80008c4 <__aeabi_f2iz+0x30>
 80008a8:	ea4f 2300 	mov.w	r3, r0, lsl #8
 80008ac:	f043 4300 	orr.w	r3, r3, #2147483648	; 0x80000000
 80008b0:	f010 4f00 	tst.w	r0, #2147483648	; 0x80000000
 80008b4:	fa23 f002 	lsr.w	r0, r3, r2
 80008b8:	bf18      	it	ne
 80008ba:	4240      	negne	r0, r0
 80008bc:	4770      	bx	lr
 80008be:	f04f 0000 	mov.w	r0, #0
 80008c2:	4770      	bx	lr
 80008c4:	f112 0f61 	cmn.w	r2, #97	; 0x61
 80008c8:	d101      	bne.n	80008ce <__aeabi_f2iz+0x3a>
 80008ca:	0242      	lsls	r2, r0, #9
 80008cc:	d105      	bne.n	80008da <__aeabi_f2iz+0x46>
 80008ce:	f010 4000 	ands.w	r0, r0, #2147483648	; 0x80000000
 80008d2:	bf08      	it	eq
 80008d4:	f06f 4000 	mvneq.w	r0, #2147483648	; 0x80000000
 80008d8:	4770      	bx	lr
 80008da:	f04f 0000 	mov.w	r0, #0
 80008de:	4770      	bx	lr

080008e0 <__aeabi_f2uiz>:
 80008e0:	0042      	lsls	r2, r0, #1
 80008e2:	d20e      	bcs.n	8000902 <__aeabi_f2uiz+0x22>
 80008e4:	f1b2 4ffe 	cmp.w	r2, #2130706432	; 0x7f000000
 80008e8:	d30b      	bcc.n	8000902 <__aeabi_f2uiz+0x22>
 80008ea:	f04f 039e 	mov.w	r3, #158	; 0x9e
 80008ee:	ebb3 6212 	subs.w	r2, r3, r2, lsr #24
 80008f2:	d409      	bmi.n	8000908 <__aeabi_f2uiz+0x28>
 80008f4:	ea4f 2300 	mov.w	r3, r0, lsl #8
 80008f8:	f043 4300 	orr.w	r3, r3, #2147483648	; 0x80000000
 80008fc:	fa23 f002 	lsr.w	r0, r3, r2
 8000900:	4770      	bx	lr
 8000902:	f04f 0000 	mov.w	r0, #0
 8000906:	4770      	bx	lr
 8000908:	f112 0f61 	cmn.w	r2, #97	; 0x61
 800090c:	d101      	bne.n	8000912 <__aeabi_f2uiz+0x32>
 800090e:	0242      	lsls	r2, r0, #9
 8000910:	d102      	bne.n	8000918 <__aeabi_f2uiz+0x38>
 8000912:	f04f 30ff 	mov.w	r0, #4294967295	; 0xffffffff
 8000916:	4770      	bx	lr
 8000918:	f04f 0000 	mov.w	r0, #0
 800091c:	4770      	bx	lr
 800091e:	bf00      	nop

08000920 <selfrel_offset31>:
 8000920:	6803      	ldr	r3, [r0, #0]
 8000922:	005a      	lsls	r2, r3, #1
 8000924:	bf4c      	ite	mi
 8000926:	f043 4300 	orrmi.w	r3, r3, #2147483648	; 0x80000000
 800092a:	f023 4300 	bicpl.w	r3, r3, #2147483648	; 0x80000000
 800092e:	4418      	add	r0, r3
 8000930:	4770      	bx	lr
 8000932:	bf00      	nop

08000934 <search_EIT_table>:
 8000934:	e92d 43f8 	stmdb	sp!, {r3, r4, r5, r6, r7, r8, r9, lr}
 8000938:	b329      	cbz	r1, 8000986 <search_EIT_table+0x52>
 800093a:	1e4f      	subs	r7, r1, #1
 800093c:	4604      	mov	r4, r0
 800093e:	4615      	mov	r5, r2
 8000940:	463e      	mov	r6, r7
 8000942:	f04f 0800 	mov.w	r8, #0
 8000946:	eb08 0106 	add.w	r1, r8, r6
 800094a:	eb01 71d1 	add.w	r1, r1, r1, lsr #31
 800094e:	1049      	asrs	r1, r1, #1
 8000950:	eb04 09c1 	add.w	r9, r4, r1, lsl #3
 8000954:	4648      	mov	r0, r9
 8000956:	f7ff ffe3 	bl	8000920 <selfrel_offset31>
 800095a:	4603      	mov	r3, r0
 800095c:	00c8      	lsls	r0, r1, #3
 800095e:	3008      	adds	r0, #8
 8000960:	428f      	cmp	r7, r1
 8000962:	4420      	add	r0, r4
 8000964:	d009      	beq.n	800097a <search_EIT_table+0x46>
 8000966:	42ab      	cmp	r3, r5
 8000968:	d809      	bhi.n	800097e <search_EIT_table+0x4a>
 800096a:	f7ff ffd9 	bl	8000920 <selfrel_offset31>
 800096e:	3801      	subs	r0, #1
 8000970:	42a8      	cmp	r0, r5
 8000972:	d20a      	bcs.n	800098a <search_EIT_table+0x56>
 8000974:	f101 0801 	add.w	r8, r1, #1
 8000978:	e7e5      	b.n	8000946 <search_EIT_table+0x12>
 800097a:	42ab      	cmp	r3, r5
 800097c:	d905      	bls.n	800098a <search_EIT_table+0x56>
 800097e:	4588      	cmp	r8, r1
 8000980:	d001      	beq.n	8000986 <search_EIT_table+0x52>
 8000982:	1e4e      	subs	r6, r1, #1
 8000984:	e7df      	b.n	8000946 <search_EIT_table+0x12>
 8000986:	f04f 0900 	mov.w	r9, #0
 800098a:	4648      	mov	r0, r9
 800098c:	e8bd 83f8 	ldmia.w	sp!, {r3, r4, r5, r6, r7, r8, r9, pc}

08000990 <__gnu_unwind_get_pr_addr>:
 8000990:	2801      	cmp	r0, #1
 8000992:	d007      	beq.n	80009a4 <__gnu_unwind_get_pr_addr+0x14>
 8000994:	2802      	cmp	r0, #2
 8000996:	d007      	beq.n	80009a8 <__gnu_unwind_get_pr_addr+0x18>
 8000998:	4b04      	ldr	r3, [pc, #16]	; (80009ac <__gnu_unwind_get_pr_addr+0x1c>)
 800099a:	2800      	cmp	r0, #0
 800099c:	bf0c      	ite	eq
 800099e:	4618      	moveq	r0, r3
 80009a0:	2000      	movne	r0, #0
 80009a2:	4770      	bx	lr
 80009a4:	4802      	ldr	r0, [pc, #8]	; (80009b0 <__gnu_unwind_get_pr_addr+0x20>)
 80009a6:	4770      	bx	lr
 80009a8:	4802      	ldr	r0, [pc, #8]	; (80009b4 <__gnu_unwind_get_pr_addr+0x24>)
 80009aa:	4770      	bx	lr
 80009ac:	08001055 	.word	0x08001055
 80009b0:	08001059 	.word	0x08001059
 80009b4:	0800105d 	.word	0x0800105d

080009b8 <get_eit_entry>:
 80009b8:	b530      	push	{r4, r5, lr}
 80009ba:	4b23      	ldr	r3, [pc, #140]	; (8000a48 <get_eit_entry+0x90>)
 80009bc:	b083      	sub	sp, #12
 80009be:	4604      	mov	r4, r0
 80009c0:	1e8d      	subs	r5, r1, #2
 80009c2:	b33b      	cbz	r3, 8000a14 <get_eit_entry+0x5c>
 80009c4:	a901      	add	r1, sp, #4
 80009c6:	4628      	mov	r0, r5
 80009c8:	f3af 8000 	nop.w
 80009cc:	b1e8      	cbz	r0, 8000a0a <get_eit_entry+0x52>
 80009ce:	9901      	ldr	r1, [sp, #4]
 80009d0:	462a      	mov	r2, r5
 80009d2:	f7ff ffaf 	bl	8000934 <search_EIT_table>
 80009d6:	4601      	mov	r1, r0
 80009d8:	b1b8      	cbz	r0, 8000a0a <get_eit_entry+0x52>
 80009da:	f7ff ffa1 	bl	8000920 <selfrel_offset31>
 80009de:	684b      	ldr	r3, [r1, #4]
 80009e0:	64a0      	str	r0, [r4, #72]	; 0x48
 80009e2:	2b01      	cmp	r3, #1
 80009e4:	d02b      	beq.n	8000a3e <get_eit_entry+0x86>
 80009e6:	2b00      	cmp	r3, #0
 80009e8:	f101 0004 	add.w	r0, r1, #4
 80009ec:	db23      	blt.n	8000a36 <get_eit_entry+0x7e>
 80009ee:	f7ff ff97 	bl	8000920 <selfrel_offset31>
 80009f2:	2300      	movs	r3, #0
 80009f4:	e9c4 0313 	strd	r0, r3, [r4, #76]	; 0x4c
 80009f8:	6803      	ldr	r3, [r0, #0]
 80009fa:	2b00      	cmp	r3, #0
 80009fc:	db10      	blt.n	8000a20 <get_eit_entry+0x68>
 80009fe:	f7ff ff8f 	bl	8000920 <selfrel_offset31>
 8000a02:	6120      	str	r0, [r4, #16]
 8000a04:	2000      	movs	r0, #0
 8000a06:	b003      	add	sp, #12
 8000a08:	bd30      	pop	{r4, r5, pc}
 8000a0a:	2300      	movs	r3, #0
 8000a0c:	2009      	movs	r0, #9
 8000a0e:	6123      	str	r3, [r4, #16]
 8000a10:	b003      	add	sp, #12
 8000a12:	bd30      	pop	{r4, r5, pc}
 8000a14:	490d      	ldr	r1, [pc, #52]	; (8000a4c <get_eit_entry+0x94>)
 8000a16:	480e      	ldr	r0, [pc, #56]	; (8000a50 <get_eit_entry+0x98>)
 8000a18:	1a09      	subs	r1, r1, r0
 8000a1a:	10c9      	asrs	r1, r1, #3
 8000a1c:	9101      	str	r1, [sp, #4]
 8000a1e:	e7d7      	b.n	80009d0 <get_eit_entry+0x18>
 8000a20:	f3c3 6003 	ubfx	r0, r3, #24, #4
 8000a24:	f7ff ffb4 	bl	8000990 <__gnu_unwind_get_pr_addr>
 8000a28:	2800      	cmp	r0, #0
 8000a2a:	6120      	str	r0, [r4, #16]
 8000a2c:	bf14      	ite	ne
 8000a2e:	2000      	movne	r0, #0
 8000a30:	2009      	moveq	r0, #9
 8000a32:	b003      	add	sp, #12
 8000a34:	bd30      	pop	{r4, r5, pc}
 8000a36:	2301      	movs	r3, #1
 8000a38:	e9c4 0313 	strd	r0, r3, [r4, #76]	; 0x4c
 8000a3c:	e7dc      	b.n	80009f8 <get_eit_entry+0x40>
 8000a3e:	2300      	movs	r3, #0
 8000a40:	6123      	str	r3, [r4, #16]
 8000a42:	2005      	movs	r0, #5
 8000a44:	e7df      	b.n	8000a06 <get_eit_entry+0x4e>
 8000a46:	bf00      	nop
 8000a48:	00000000 	.word	0x00000000
 8000a4c:	080069d8 	.word	0x080069d8
 8000a50:	080068b0 	.word	0x080068b0

08000a54 <restore_non_core_regs>:
 8000a54:	6803      	ldr	r3, [r0, #0]
 8000a56:	07da      	lsls	r2, r3, #31
 8000a58:	b510      	push	{r4, lr}
 8000a5a:	4604      	mov	r4, r0
 8000a5c:	d406      	bmi.n	8000a6c <restore_non_core_regs+0x18>
 8000a5e:	079b      	lsls	r3, r3, #30
 8000a60:	f100 0048 	add.w	r0, r0, #72	; 0x48
 8000a64:	d509      	bpl.n	8000a7a <restore_non_core_regs+0x26>
 8000a66:	f000 fc4b 	bl	8001300 <__gnu_Unwind_Restore_VFP_D>
 8000a6a:	6823      	ldr	r3, [r4, #0]
 8000a6c:	0759      	lsls	r1, r3, #29
 8000a6e:	d509      	bpl.n	8000a84 <restore_non_core_regs+0x30>
 8000a70:	071a      	lsls	r2, r3, #28
 8000a72:	d50e      	bpl.n	8000a92 <restore_non_core_regs+0x3e>
 8000a74:	06db      	lsls	r3, r3, #27
 8000a76:	d513      	bpl.n	8000aa0 <restore_non_core_regs+0x4c>
 8000a78:	bd10      	pop	{r4, pc}
 8000a7a:	f000 fc39 	bl	80012f0 <__gnu_Unwind_Restore_VFP>
 8000a7e:	6823      	ldr	r3, [r4, #0]
 8000a80:	0759      	lsls	r1, r3, #29
 8000a82:	d4f5      	bmi.n	8000a70 <restore_non_core_regs+0x1c>
 8000a84:	f104 00d0 	add.w	r0, r4, #208	; 0xd0
 8000a88:	f000 fc42 	bl	8001310 <__gnu_Unwind_Restore_VFP_D_16_to_31>
 8000a8c:	6823      	ldr	r3, [r4, #0]
 8000a8e:	071a      	lsls	r2, r3, #28
 8000a90:	d4f0      	bmi.n	8000a74 <restore_non_core_regs+0x20>
 8000a92:	f504 70a8 	add.w	r0, r4, #336	; 0x150
 8000a96:	f000 fc43 	bl	8001320 <__gnu_Unwind_Restore_WMMXD>
 8000a9a:	6823      	ldr	r3, [r4, #0]
 8000a9c:	06db      	lsls	r3, r3, #27
 8000a9e:	d4eb      	bmi.n	8000a78 <restore_non_core_regs+0x24>
 8000aa0:	f504 70e8 	add.w	r0, r4, #464	; 0x1d0
 8000aa4:	e8bd 4010 	ldmia.w	sp!, {r4, lr}
 8000aa8:	f000 bc7e 	b.w	80013a8 <__gnu_Unwind_Restore_WMMXC>

08000aac <_Unwind_decode_typeinfo_ptr.isra.0>:
 8000aac:	4603      	mov	r3, r0
 8000aae:	6800      	ldr	r0, [r0, #0]
 8000ab0:	b100      	cbz	r0, 8000ab4 <_Unwind_decode_typeinfo_ptr.isra.0+0x8>
 8000ab2:	4418      	add	r0, r3
 8000ab4:	4770      	bx	lr
 8000ab6:	bf00      	nop

08000ab8 <__gnu_unwind_24bit.isra.0>:
 8000ab8:	2009      	movs	r0, #9
 8000aba:	4770      	bx	lr

08000abc <_Unwind_DebugHook>:
 8000abc:	4770      	bx	lr
 8000abe:	bf00      	nop

08000ac0 <unwind_phase2>:
 8000ac0:	b570      	push	{r4, r5, r6, lr}
 8000ac2:	4604      	mov	r4, r0
 8000ac4:	460e      	mov	r6, r1
 8000ac6:	6c31      	ldr	r1, [r6, #64]	; 0x40
 8000ac8:	4620      	mov	r0, r4
 8000aca:	f7ff ff75 	bl	80009b8 <get_eit_entry>
 8000ace:	4605      	mov	r5, r0
 8000ad0:	b988      	cbnz	r0, 8000af6 <unwind_phase2+0x36>
 8000ad2:	6c33      	ldr	r3, [r6, #64]	; 0x40
 8000ad4:	6163      	str	r3, [r4, #20]
 8000ad6:	4632      	mov	r2, r6
 8000ad8:	6923      	ldr	r3, [r4, #16]
 8000ada:	4621      	mov	r1, r4
 8000adc:	2001      	movs	r0, #1
 8000ade:	4798      	blx	r3
 8000ae0:	2808      	cmp	r0, #8
 8000ae2:	d0f0      	beq.n	8000ac6 <unwind_phase2+0x6>
 8000ae4:	2807      	cmp	r0, #7
 8000ae6:	d106      	bne.n	8000af6 <unwind_phase2+0x36>
 8000ae8:	4628      	mov	r0, r5
 8000aea:	6c31      	ldr	r1, [r6, #64]	; 0x40
 8000aec:	f7ff ffe6 	bl	8000abc <_Unwind_DebugHook>
 8000af0:	1d30      	adds	r0, r6, #4
 8000af2:	f000 fbf1 	bl	80012d8 <__restore_core_regs>
 8000af6:	f000 ffcb 	bl	8001a90 <abort>
 8000afa:	bf00      	nop

08000afc <unwind_phase2_forced>:
 8000afc:	e92d 47f0 	stmdb	sp!, {r4, r5, r6, r7, r8, r9, sl, lr}
 8000b00:	1d0d      	adds	r5, r1, #4
 8000b02:	4606      	mov	r6, r0
 8000b04:	4614      	mov	r4, r2
 8000b06:	cd0f      	ldmia	r5!, {r0, r1, r2, r3}
 8000b08:	f5ad 7d72 	sub.w	sp, sp, #968	; 0x3c8
 8000b0c:	f10d 0c0c 	add.w	ip, sp, #12
 8000b10:	e8ac 000f 	stmia.w	ip!, {r0, r1, r2, r3}
 8000b14:	cd0f      	ldmia	r5!, {r0, r1, r2, r3}
 8000b16:	e8ac 000f 	stmia.w	ip!, {r0, r1, r2, r3}
 8000b1a:	cd0f      	ldmia	r5!, {r0, r1, r2, r3}
 8000b1c:	e8ac 000f 	stmia.w	ip!, {r0, r1, r2, r3}
 8000b20:	e895 000f 	ldmia.w	r5, {r0, r1, r2, r3}
 8000b24:	ad02      	add	r5, sp, #8
 8000b26:	68f7      	ldr	r7, [r6, #12]
 8000b28:	f8d6 8018 	ldr.w	r8, [r6, #24]
 8000b2c:	e88c 000f 	stmia.w	ip, {r0, r1, r2, r3}
 8000b30:	2300      	movs	r3, #0
 8000b32:	602b      	str	r3, [r5, #0]
 8000b34:	e021      	b.n	8000b7a <unwind_phase2_forced+0x7e>
 8000b36:	6c2b      	ldr	r3, [r5, #64]	; 0x40
 8000b38:	6173      	str	r3, [r6, #20]
 8000b3a:	f44f 72f0 	mov.w	r2, #480	; 0x1e0
 8000b3e:	4629      	mov	r1, r5
 8000b40:	a87a      	add	r0, sp, #488	; 0x1e8
 8000b42:	f000 ffad 	bl	8001aa0 <memcpy>
 8000b46:	6933      	ldr	r3, [r6, #16]
 8000b48:	aa7a      	add	r2, sp, #488	; 0x1e8
 8000b4a:	4631      	mov	r1, r6
 8000b4c:	4650      	mov	r0, sl
 8000b4e:	4798      	blx	r3
 8000b50:	9b88      	ldr	r3, [sp, #544]	; 0x220
 8000b52:	e9cd 5800 	strd	r5, r8, [sp]
 8000b56:	4621      	mov	r1, r4
 8000b58:	646b      	str	r3, [r5, #68]	; 0x44
 8000b5a:	4681      	mov	r9, r0
 8000b5c:	4633      	mov	r3, r6
 8000b5e:	4632      	mov	r2, r6
 8000b60:	2001      	movs	r0, #1
 8000b62:	47b8      	blx	r7
 8000b64:	4604      	mov	r4, r0
 8000b66:	b9e8      	cbnz	r0, 8000ba4 <unwind_phase2_forced+0xa8>
 8000b68:	f44f 72f0 	mov.w	r2, #480	; 0x1e0
 8000b6c:	a97a      	add	r1, sp, #488	; 0x1e8
 8000b6e:	4628      	mov	r0, r5
 8000b70:	f000 ff96 	bl	8001aa0 <memcpy>
 8000b74:	f1b9 0f08 	cmp.w	r9, #8
 8000b78:	d11b      	bne.n	8000bb2 <unwind_phase2_forced+0xb6>
 8000b7a:	6c29      	ldr	r1, [r5, #64]	; 0x40
 8000b7c:	4630      	mov	r0, r6
 8000b7e:	f7ff ff1b 	bl	80009b8 <get_eit_entry>
 8000b82:	3409      	adds	r4, #9
 8000b84:	fa5f fa84 	uxtb.w	sl, r4
 8000b88:	4681      	mov	r9, r0
 8000b8a:	2800      	cmp	r0, #0
 8000b8c:	d0d3      	beq.n	8000b36 <unwind_phase2_forced+0x3a>
 8000b8e:	6bab      	ldr	r3, [r5, #56]	; 0x38
 8000b90:	f04a 0110 	orr.w	r1, sl, #16
 8000b94:	e9cd 5800 	strd	r5, r8, [sp]
 8000b98:	4632      	mov	r2, r6
 8000b9a:	646b      	str	r3, [r5, #68]	; 0x44
 8000b9c:	2001      	movs	r0, #1
 8000b9e:	4633      	mov	r3, r6
 8000ba0:	47b8      	blx	r7
 8000ba2:	b108      	cbz	r0, 8000ba8 <unwind_phase2_forced+0xac>
 8000ba4:	f04f 0909 	mov.w	r9, #9
 8000ba8:	4648      	mov	r0, r9
 8000baa:	f50d 7d72 	add.w	sp, sp, #968	; 0x3c8
 8000bae:	e8bd 87f0 	ldmia.w	sp!, {r4, r5, r6, r7, r8, r9, sl, pc}
 8000bb2:	f1b9 0f07 	cmp.w	r9, #7
 8000bb6:	d1f5      	bne.n	8000ba4 <unwind_phase2_forced+0xa8>
 8000bb8:	4620      	mov	r0, r4
 8000bba:	6c29      	ldr	r1, [r5, #64]	; 0x40
 8000bbc:	f7ff ff7e 	bl	8000abc <_Unwind_DebugHook>
 8000bc0:	a803      	add	r0, sp, #12
 8000bc2:	f000 fb89 	bl	80012d8 <__restore_core_regs>
 8000bc6:	bf00      	nop

08000bc8 <_Unwind_GetCFA>:
 8000bc8:	6c40      	ldr	r0, [r0, #68]	; 0x44
 8000bca:	4770      	bx	lr

08000bcc <__gnu_Unwind_RaiseException>:
 8000bcc:	b5f0      	push	{r4, r5, r6, r7, lr}
 8000bce:	6bcb      	ldr	r3, [r1, #60]	; 0x3c
 8000bd0:	640b      	str	r3, [r1, #64]	; 0x40
 8000bd2:	1d0e      	adds	r6, r1, #4
 8000bd4:	460f      	mov	r7, r1
 8000bd6:	4605      	mov	r5, r0
 8000bd8:	ce0f      	ldmia	r6!, {r0, r1, r2, r3}
 8000bda:	b0f9      	sub	sp, #484	; 0x1e4
 8000bdc:	ac01      	add	r4, sp, #4
 8000bde:	c40f      	stmia	r4!, {r0, r1, r2, r3}
 8000be0:	ce0f      	ldmia	r6!, {r0, r1, r2, r3}
 8000be2:	c40f      	stmia	r4!, {r0, r1, r2, r3}
 8000be4:	ce0f      	ldmia	r6!, {r0, r1, r2, r3}
 8000be6:	c40f      	stmia	r4!, {r0, r1, r2, r3}
 8000be8:	e896 000f 	ldmia.w	r6, {r0, r1, r2, r3}
 8000bec:	f04f 36ff 	mov.w	r6, #4294967295	; 0xffffffff
 8000bf0:	e884 000f 	stmia.w	r4, {r0, r1, r2, r3}
 8000bf4:	9600      	str	r6, [sp, #0]
 8000bf6:	e006      	b.n	8000c06 <__gnu_Unwind_RaiseException+0x3a>
 8000bf8:	692b      	ldr	r3, [r5, #16]
 8000bfa:	466a      	mov	r2, sp
 8000bfc:	4629      	mov	r1, r5
 8000bfe:	4798      	blx	r3
 8000c00:	2808      	cmp	r0, #8
 8000c02:	4604      	mov	r4, r0
 8000c04:	d108      	bne.n	8000c18 <__gnu_Unwind_RaiseException+0x4c>
 8000c06:	9910      	ldr	r1, [sp, #64]	; 0x40
 8000c08:	4628      	mov	r0, r5
 8000c0a:	f7ff fed5 	bl	80009b8 <get_eit_entry>
 8000c0e:	2800      	cmp	r0, #0
 8000c10:	d0f2      	beq.n	8000bf8 <__gnu_Unwind_RaiseException+0x2c>
 8000c12:	2009      	movs	r0, #9
 8000c14:	b079      	add	sp, #484	; 0x1e4
 8000c16:	bdf0      	pop	{r4, r5, r6, r7, pc}
 8000c18:	4668      	mov	r0, sp
 8000c1a:	f7ff ff1b 	bl	8000a54 <restore_non_core_regs>
 8000c1e:	2c06      	cmp	r4, #6
 8000c20:	d1f7      	bne.n	8000c12 <__gnu_Unwind_RaiseException+0x46>
 8000c22:	4639      	mov	r1, r7
 8000c24:	4628      	mov	r0, r5
 8000c26:	f7ff ff4b 	bl	8000ac0 <unwind_phase2>
 8000c2a:	bf00      	nop

08000c2c <__gnu_Unwind_ForcedUnwind>:
 8000c2c:	b430      	push	{r4, r5}
 8000c2e:	6bdd      	ldr	r5, [r3, #60]	; 0x3c
 8000c30:	60c1      	str	r1, [r0, #12]
 8000c32:	6182      	str	r2, [r0, #24]
 8000c34:	4619      	mov	r1, r3
 8000c36:	641d      	str	r5, [r3, #64]	; 0x40
 8000c38:	2200      	movs	r2, #0
 8000c3a:	bc30      	pop	{r4, r5}
 8000c3c:	e75e      	b.n	8000afc <unwind_phase2_forced>
 8000c3e:	bf00      	nop

08000c40 <__gnu_Unwind_Resume>:
 8000c40:	b570      	push	{r4, r5, r6, lr}
 8000c42:	68c6      	ldr	r6, [r0, #12]
 8000c44:	6943      	ldr	r3, [r0, #20]
 8000c46:	640b      	str	r3, [r1, #64]	; 0x40
 8000c48:	b9ae      	cbnz	r6, 8000c76 <__gnu_Unwind_Resume+0x36>
 8000c4a:	6903      	ldr	r3, [r0, #16]
 8000c4c:	460a      	mov	r2, r1
 8000c4e:	4604      	mov	r4, r0
 8000c50:	460d      	mov	r5, r1
 8000c52:	4601      	mov	r1, r0
 8000c54:	2002      	movs	r0, #2
 8000c56:	4798      	blx	r3
 8000c58:	2807      	cmp	r0, #7
 8000c5a:	d005      	beq.n	8000c68 <__gnu_Unwind_Resume+0x28>
 8000c5c:	2808      	cmp	r0, #8
 8000c5e:	d10f      	bne.n	8000c80 <__gnu_Unwind_Resume+0x40>
 8000c60:	4629      	mov	r1, r5
 8000c62:	4620      	mov	r0, r4
 8000c64:	f7ff ff2c 	bl	8000ac0 <unwind_phase2>
 8000c68:	4630      	mov	r0, r6
 8000c6a:	6c29      	ldr	r1, [r5, #64]	; 0x40
 8000c6c:	f7ff ff26 	bl	8000abc <_Unwind_DebugHook>
 8000c70:	1d28      	adds	r0, r5, #4
 8000c72:	f000 fb31 	bl	80012d8 <__restore_core_regs>
 8000c76:	2201      	movs	r2, #1
 8000c78:	f7ff ff40 	bl	8000afc <unwind_phase2_forced>
 8000c7c:	f000 ff08 	bl	8001a90 <abort>
 8000c80:	f000 ff06 	bl	8001a90 <abort>

08000c84 <__gnu_Unwind_Resume_or_Rethrow>:
 8000c84:	68c2      	ldr	r2, [r0, #12]
 8000c86:	b11a      	cbz	r2, 8000c90 <__gnu_Unwind_Resume_or_Rethrow+0xc>
 8000c88:	6bca      	ldr	r2, [r1, #60]	; 0x3c
 8000c8a:	640a      	str	r2, [r1, #64]	; 0x40
 8000c8c:	2200      	movs	r2, #0
 8000c8e:	e735      	b.n	8000afc <unwind_phase2_forced>
 8000c90:	e79c      	b.n	8000bcc <__gnu_Unwind_RaiseException>
 8000c92:	bf00      	nop

08000c94 <_Unwind_Complete>:
 8000c94:	4770      	bx	lr
 8000c96:	bf00      	nop

08000c98 <_Unwind_DeleteException>:
 8000c98:	6883      	ldr	r3, [r0, #8]
 8000c9a:	4601      	mov	r1, r0
 8000c9c:	b10b      	cbz	r3, 8000ca2 <_Unwind_DeleteException+0xa>
 8000c9e:	2001      	movs	r0, #1
 8000ca0:	4718      	bx	r3
 8000ca2:	4770      	bx	lr

08000ca4 <_Unwind_VRS_Get>:
 8000ca4:	2901      	cmp	r1, #1
 8000ca6:	d012      	beq.n	8000cce <_Unwind_VRS_Get+0x2a>
 8000ca8:	d809      	bhi.n	8000cbe <_Unwind_VRS_Get+0x1a>
 8000caa:	b973      	cbnz	r3, 8000cca <_Unwind_VRS_Get+0x26>
 8000cac:	2a0f      	cmp	r2, #15
 8000cae:	d80c      	bhi.n	8000cca <_Unwind_VRS_Get+0x26>
 8000cb0:	eb00 0282 	add.w	r2, r0, r2, lsl #2
 8000cb4:	4618      	mov	r0, r3
 8000cb6:	6853      	ldr	r3, [r2, #4]
 8000cb8:	9a00      	ldr	r2, [sp, #0]
 8000cba:	6013      	str	r3, [r2, #0]
 8000cbc:	4770      	bx	lr
 8000cbe:	3903      	subs	r1, #3
 8000cc0:	2901      	cmp	r1, #1
 8000cc2:	bf94      	ite	ls
 8000cc4:	2001      	movls	r0, #1
 8000cc6:	2002      	movhi	r0, #2
 8000cc8:	4770      	bx	lr
 8000cca:	2002      	movs	r0, #2
 8000ccc:	4770      	bx	lr
 8000cce:	4608      	mov	r0, r1
 8000cd0:	4770      	bx	lr
 8000cd2:	bf00      	nop

08000cd4 <_Unwind_GetGR>:
 8000cd4:	b510      	push	{r4, lr}
 8000cd6:	b084      	sub	sp, #16
 8000cd8:	2300      	movs	r3, #0
 8000cda:	ac03      	add	r4, sp, #12
 8000cdc:	460a      	mov	r2, r1
 8000cde:	9400      	str	r4, [sp, #0]
 8000ce0:	4619      	mov	r1, r3
 8000ce2:	f7ff ffdf 	bl	8000ca4 <_Unwind_VRS_Get>
 8000ce6:	9803      	ldr	r0, [sp, #12]
 8000ce8:	b004      	add	sp, #16
 8000cea:	bd10      	pop	{r4, pc}

08000cec <_Unwind_VRS_Set>:
 8000cec:	2901      	cmp	r1, #1
 8000cee:	d012      	beq.n	8000d16 <_Unwind_VRS_Set+0x2a>
 8000cf0:	d809      	bhi.n	8000d06 <_Unwind_VRS_Set+0x1a>
 8000cf2:	b973      	cbnz	r3, 8000d12 <_Unwind_VRS_Set+0x26>
 8000cf4:	2a0f      	cmp	r2, #15
 8000cf6:	d80c      	bhi.n	8000d12 <_Unwind_VRS_Set+0x26>
 8000cf8:	eb00 0082 	add.w	r0, r0, r2, lsl #2
 8000cfc:	9a00      	ldr	r2, [sp, #0]
 8000cfe:	6812      	ldr	r2, [r2, #0]
 8000d00:	6042      	str	r2, [r0, #4]
 8000d02:	4618      	mov	r0, r3
 8000d04:	4770      	bx	lr
 8000d06:	3903      	subs	r1, #3
 8000d08:	2901      	cmp	r1, #1
 8000d0a:	bf94      	ite	ls
 8000d0c:	2001      	movls	r0, #1
 8000d0e:	2002      	movhi	r0, #2
 8000d10:	4770      	bx	lr
 8000d12:	2002      	movs	r0, #2
 8000d14:	4770      	bx	lr
 8000d16:	4608      	mov	r0, r1
 8000d18:	4770      	bx	lr
 8000d1a:	bf00      	nop

08000d1c <_Unwind_SetGR>:
 8000d1c:	b510      	push	{r4, lr}
 8000d1e:	b084      	sub	sp, #16
 8000d20:	2300      	movs	r3, #0
 8000d22:	ac03      	add	r4, sp, #12
 8000d24:	9203      	str	r2, [sp, #12]
 8000d26:	9400      	str	r4, [sp, #0]
 8000d28:	460a      	mov	r2, r1
 8000d2a:	4619      	mov	r1, r3
 8000d2c:	f7ff ffde 	bl	8000cec <_Unwind_VRS_Set>
 8000d30:	b004      	add	sp, #16
 8000d32:	bd10      	pop	{r4, pc}

08000d34 <__gnu_Unwind_Backtrace>:
 8000d34:	b5f0      	push	{r4, r5, r6, r7, lr}
 8000d36:	6bd3      	ldr	r3, [r2, #60]	; 0x3c
 8000d38:	6413      	str	r3, [r2, #64]	; 0x40
 8000d3a:	1d15      	adds	r5, r2, #4
 8000d3c:	468c      	mov	ip, r1
 8000d3e:	4606      	mov	r6, r0
 8000d40:	cd0f      	ldmia	r5!, {r0, r1, r2, r3}
 8000d42:	f5ad 7d0f 	sub.w	sp, sp, #572	; 0x23c
 8000d46:	ac17      	add	r4, sp, #92	; 0x5c
 8000d48:	c40f      	stmia	r4!, {r0, r1, r2, r3}
 8000d4a:	cd0f      	ldmia	r5!, {r0, r1, r2, r3}
 8000d4c:	c40f      	stmia	r4!, {r0, r1, r2, r3}
 8000d4e:	cd0f      	ldmia	r5!, {r0, r1, r2, r3}
 8000d50:	c40f      	stmia	r4!, {r0, r1, r2, r3}
 8000d52:	e895 000f 	ldmia.w	r5, {r0, r1, r2, r3}
 8000d56:	f04f 37ff 	mov.w	r7, #4294967295	; 0xffffffff
 8000d5a:	e884 000f 	stmia.w	r4, {r0, r1, r2, r3}
 8000d5e:	4665      	mov	r5, ip
 8000d60:	9716      	str	r7, [sp, #88]	; 0x58
 8000d62:	e010      	b.n	8000d86 <__gnu_Unwind_Backtrace+0x52>
 8000d64:	f7ff ffda 	bl	8000d1c <_Unwind_SetGR>
 8000d68:	4629      	mov	r1, r5
 8000d6a:	a816      	add	r0, sp, #88	; 0x58
 8000d6c:	47b0      	blx	r6
 8000d6e:	4603      	mov	r3, r0
 8000d70:	aa16      	add	r2, sp, #88	; 0x58
 8000d72:	4669      	mov	r1, sp
 8000d74:	2008      	movs	r0, #8
 8000d76:	b983      	cbnz	r3, 8000d9a <__gnu_Unwind_Backtrace+0x66>
 8000d78:	9b04      	ldr	r3, [sp, #16]
 8000d7a:	4798      	blx	r3
 8000d7c:	2805      	cmp	r0, #5
 8000d7e:	4604      	mov	r4, r0
 8000d80:	d00c      	beq.n	8000d9c <__gnu_Unwind_Backtrace+0x68>
 8000d82:	2809      	cmp	r0, #9
 8000d84:	d009      	beq.n	8000d9a <__gnu_Unwind_Backtrace+0x66>
 8000d86:	9926      	ldr	r1, [sp, #152]	; 0x98
 8000d88:	4668      	mov	r0, sp
 8000d8a:	f7ff fe15 	bl	80009b8 <get_eit_entry>
 8000d8e:	4603      	mov	r3, r0
 8000d90:	466a      	mov	r2, sp
 8000d92:	210c      	movs	r1, #12
 8000d94:	a816      	add	r0, sp, #88	; 0x58
 8000d96:	2b00      	cmp	r3, #0
 8000d98:	d0e4      	beq.n	8000d64 <__gnu_Unwind_Backtrace+0x30>
 8000d9a:	2409      	movs	r4, #9
 8000d9c:	a816      	add	r0, sp, #88	; 0x58
 8000d9e:	f7ff fe59 	bl	8000a54 <restore_non_core_regs>
 8000da2:	4620      	mov	r0, r4
 8000da4:	f50d 7d0f 	add.w	sp, sp, #572	; 0x23c
 8000da8:	bdf0      	pop	{r4, r5, r6, r7, pc}
 8000daa:	bf00      	nop

08000dac <__gnu_unwind_pr_common>:
 8000dac:	e92d 4ff0 	stmdb	sp!, {r4, r5, r6, r7, r8, r9, sl, fp, lr}
 8000db0:	6ccc      	ldr	r4, [r1, #76]	; 0x4c
 8000db2:	b089      	sub	sp, #36	; 0x24
 8000db4:	460d      	mov	r5, r1
 8000db6:	f854 1b04 	ldr.w	r1, [r4], #4
 8000dba:	9406      	str	r4, [sp, #24]
 8000dbc:	4617      	mov	r7, r2
 8000dbe:	f000 0803 	and.w	r8, r0, #3
 8000dc2:	461e      	mov	r6, r3
 8000dc4:	2b00      	cmp	r3, #0
 8000dc6:	d079      	beq.n	8000ebc <__gnu_unwind_pr_common+0x110>
 8000dc8:	0c0b      	lsrs	r3, r1, #16
 8000dca:	b2da      	uxtb	r2, r3
 8000dcc:	0409      	lsls	r1, r1, #16
 8000dce:	f88d 301d 	strb.w	r3, [sp, #29]
 8000dd2:	2302      	movs	r3, #2
 8000dd4:	eb04 0482 	add.w	r4, r4, r2, lsl #2
 8000dd8:	9105      	str	r1, [sp, #20]
 8000dda:	f88d 301c 	strb.w	r3, [sp, #28]
 8000dde:	6d2b      	ldr	r3, [r5, #80]	; 0x50
 8000de0:	f1b8 0f02 	cmp.w	r8, #2
 8000de4:	bf08      	it	eq
 8000de6:	6bac      	ldreq	r4, [r5, #56]	; 0x38
 8000de8:	f013 0301 	ands.w	r3, r3, #1
 8000dec:	d00c      	beq.n	8000e08 <__gnu_unwind_pr_common+0x5c>
 8000dee:	4638      	mov	r0, r7
 8000df0:	a905      	add	r1, sp, #20
 8000df2:	f000 fb73 	bl	80014dc <__gnu_unwind_execute>
 8000df6:	b918      	cbnz	r0, 8000e00 <__gnu_unwind_pr_common+0x54>
 8000df8:	2008      	movs	r0, #8
 8000dfa:	b009      	add	sp, #36	; 0x24
 8000dfc:	e8bd 8ff0 	ldmia.w	sp!, {r4, r5, r6, r7, r8, r9, sl, fp, pc}
 8000e00:	2009      	movs	r0, #9
 8000e02:	b009      	add	sp, #36	; 0x24
 8000e04:	e8bd 8ff0 	ldmia.w	sp!, {r4, r5, r6, r7, r8, r9, sl, fp, pc}
 8000e08:	f8d4 a000 	ldr.w	sl, [r4]
 8000e0c:	f1ba 0f00 	cmp.w	sl, #0
 8000e10:	d0ed      	beq.n	8000dee <__gnu_unwind_pr_common+0x42>
 8000e12:	9301      	str	r3, [sp, #4]
 8000e14:	f000 0308 	and.w	r3, r0, #8
 8000e18:	9302      	str	r3, [sp, #8]
 8000e1a:	2e02      	cmp	r6, #2
 8000e1c:	d04a      	beq.n	8000eb4 <__gnu_unwind_pr_common+0x108>
 8000e1e:	f8b4 a000 	ldrh.w	sl, [r4]
 8000e22:	f8b4 9002 	ldrh.w	r9, [r4, #2]
 8000e26:	3404      	adds	r4, #4
 8000e28:	6caa      	ldr	r2, [r5, #72]	; 0x48
 8000e2a:	f029 0b01 	bic.w	fp, r9, #1
 8000e2e:	210f      	movs	r1, #15
 8000e30:	4638      	mov	r0, r7
 8000e32:	4493      	add	fp, r2
 8000e34:	f7ff ff4e 	bl	8000cd4 <_Unwind_GetGR>
 8000e38:	4583      	cmp	fp, r0
 8000e3a:	d839      	bhi.n	8000eb0 <__gnu_unwind_pr_common+0x104>
 8000e3c:	f02a 0201 	bic.w	r2, sl, #1
 8000e40:	445a      	add	r2, fp
 8000e42:	4282      	cmp	r2, r0
 8000e44:	bf94      	ite	ls
 8000e46:	2000      	movls	r0, #0
 8000e48:	2001      	movhi	r0, #1
 8000e4a:	ea4f 0349 	mov.w	r3, r9, lsl #1
 8000e4e:	f003 0302 	and.w	r3, r3, #2
 8000e52:	f00a 0a01 	and.w	sl, sl, #1
 8000e56:	ea43 030a 	orr.w	r3, r3, sl
 8000e5a:	2b01      	cmp	r3, #1
 8000e5c:	d049      	beq.n	8000ef2 <__gnu_unwind_pr_common+0x146>
 8000e5e:	2b02      	cmp	r3, #2
 8000e60:	d032      	beq.n	8000ec8 <__gnu_unwind_pr_common+0x11c>
 8000e62:	2b00      	cmp	r3, #0
 8000e64:	d1cc      	bne.n	8000e00 <__gnu_unwind_pr_common+0x54>
 8000e66:	f1b8 0f00 	cmp.w	r8, #0
 8000e6a:	d002      	beq.n	8000e72 <__gnu_unwind_pr_common+0xc6>
 8000e6c:	2800      	cmp	r0, #0
 8000e6e:	f040 80cd 	bne.w	800100c <__gnu_unwind_pr_common+0x260>
 8000e72:	3404      	adds	r4, #4
 8000e74:	f8d4 a000 	ldr.w	sl, [r4]
 8000e78:	f1ba 0f00 	cmp.w	sl, #0
 8000e7c:	d1cd      	bne.n	8000e1a <__gnu_unwind_pr_common+0x6e>
 8000e7e:	a905      	add	r1, sp, #20
 8000e80:	4638      	mov	r0, r7
 8000e82:	f000 fb2b 	bl	80014dc <__gnu_unwind_execute>
 8000e86:	2800      	cmp	r0, #0
 8000e88:	d1ba      	bne.n	8000e00 <__gnu_unwind_pr_common+0x54>
 8000e8a:	9b01      	ldr	r3, [sp, #4]
 8000e8c:	2b00      	cmp	r3, #0
 8000e8e:	d0b3      	beq.n	8000df8 <__gnu_unwind_pr_common+0x4c>
 8000e90:	210f      	movs	r1, #15
 8000e92:	4638      	mov	r0, r7
 8000e94:	f7ff ff1e 	bl	8000cd4 <_Unwind_GetGR>
 8000e98:	210e      	movs	r1, #14
 8000e9a:	4602      	mov	r2, r0
 8000e9c:	4638      	mov	r0, r7
 8000e9e:	f7ff ff3d 	bl	8000d1c <_Unwind_SetGR>
 8000ea2:	4638      	mov	r0, r7
 8000ea4:	4a6a      	ldr	r2, [pc, #424]	; (8001050 <__gnu_unwind_pr_common+0x2a4>)
 8000ea6:	210f      	movs	r1, #15
 8000ea8:	f7ff ff38 	bl	8000d1c <_Unwind_SetGR>
 8000eac:	2007      	movs	r0, #7
 8000eae:	e7a8      	b.n	8000e02 <__gnu_unwind_pr_common+0x56>
 8000eb0:	2000      	movs	r0, #0
 8000eb2:	e7ca      	b.n	8000e4a <__gnu_unwind_pr_common+0x9e>
 8000eb4:	f8d4 9004 	ldr.w	r9, [r4, #4]
 8000eb8:	3408      	adds	r4, #8
 8000eba:	e7b5      	b.n	8000e28 <__gnu_unwind_pr_common+0x7c>
 8000ebc:	0209      	lsls	r1, r1, #8
 8000ebe:	2303      	movs	r3, #3
 8000ec0:	9105      	str	r1, [sp, #20]
 8000ec2:	f8ad 301c 	strh.w	r3, [sp, #28]
 8000ec6:	e78a      	b.n	8000dde <__gnu_unwind_pr_common+0x32>
 8000ec8:	6823      	ldr	r3, [r4, #0]
 8000eca:	f023 4b00 	bic.w	fp, r3, #2147483648	; 0x80000000
 8000ece:	f1b8 0f00 	cmp.w	r8, #0
 8000ed2:	d145      	bne.n	8000f60 <__gnu_unwind_pr_common+0x1b4>
 8000ed4:	b128      	cbz	r0, 8000ee2 <__gnu_unwind_pr_common+0x136>
 8000ed6:	9a02      	ldr	r2, [sp, #8]
 8000ed8:	2a00      	cmp	r2, #0
 8000eda:	d05c      	beq.n	8000f96 <__gnu_unwind_pr_common+0x1ea>
 8000edc:	f1bb 0f00 	cmp.w	fp, #0
 8000ee0:	d074      	beq.n	8000fcc <__gnu_unwind_pr_common+0x220>
 8000ee2:	2b00      	cmp	r3, #0
 8000ee4:	da00      	bge.n	8000ee8 <__gnu_unwind_pr_common+0x13c>
 8000ee6:	3404      	adds	r4, #4
 8000ee8:	f10b 0b01 	add.w	fp, fp, #1
 8000eec:	eb04 048b 	add.w	r4, r4, fp, lsl #2
 8000ef0:	e7c0      	b.n	8000e74 <__gnu_unwind_pr_common+0xc8>
 8000ef2:	f1b8 0f00 	cmp.w	r8, #0
 8000ef6:	d119      	bne.n	8000f2c <__gnu_unwind_pr_common+0x180>
 8000ef8:	b1b0      	cbz	r0, 8000f28 <__gnu_unwind_pr_common+0x17c>
 8000efa:	e9d4 2300 	ldrd	r2, r3, [r4]
 8000efe:	1c99      	adds	r1, r3, #2
 8000f00:	ea4f 72d2 	mov.w	r2, r2, lsr #31
 8000f04:	f43f af7c 	beq.w	8000e00 <__gnu_unwind_pr_common+0x54>
 8000f08:	f105 0158 	add.w	r1, r5, #88	; 0x58
 8000f0c:	3301      	adds	r3, #1
 8000f0e:	9104      	str	r1, [sp, #16]
 8000f10:	f000 8090 	beq.w	8001034 <__gnu_unwind_pr_common+0x288>
 8000f14:	1d20      	adds	r0, r4, #4
 8000f16:	f7ff fdc9 	bl	8000aac <_Unwind_decode_typeinfo_ptr.isra.0>
 8000f1a:	ab04      	add	r3, sp, #16
 8000f1c:	4601      	mov	r1, r0
 8000f1e:	4628      	mov	r0, r5
 8000f20:	f3af 8000 	nop.w
 8000f24:	2800      	cmp	r0, #0
 8000f26:	d15b      	bne.n	8000fe0 <__gnu_unwind_pr_common+0x234>
 8000f28:	3408      	adds	r4, #8
 8000f2a:	e7a3      	b.n	8000e74 <__gnu_unwind_pr_common+0xc8>
 8000f2c:	210d      	movs	r1, #13
 8000f2e:	4638      	mov	r0, r7
 8000f30:	f8d5 9020 	ldr.w	r9, [r5, #32]
 8000f34:	f7ff fece 	bl	8000cd4 <_Unwind_GetGR>
 8000f38:	4581      	cmp	r9, r0
 8000f3a:	d1f5      	bne.n	8000f28 <__gnu_unwind_pr_common+0x17c>
 8000f3c:	6aab      	ldr	r3, [r5, #40]	; 0x28
 8000f3e:	429c      	cmp	r4, r3
 8000f40:	d1f2      	bne.n	8000f28 <__gnu_unwind_pr_common+0x17c>
 8000f42:	4620      	mov	r0, r4
 8000f44:	f7ff fcec 	bl	8000920 <selfrel_offset31>
 8000f48:	210f      	movs	r1, #15
 8000f4a:	4602      	mov	r2, r0
 8000f4c:	4638      	mov	r0, r7
 8000f4e:	f7ff fee5 	bl	8000d1c <_Unwind_SetGR>
 8000f52:	4638      	mov	r0, r7
 8000f54:	462a      	mov	r2, r5
 8000f56:	2100      	movs	r1, #0
 8000f58:	f7ff fee0 	bl	8000d1c <_Unwind_SetGR>
 8000f5c:	2007      	movs	r0, #7
 8000f5e:	e750      	b.n	8000e02 <__gnu_unwind_pr_common+0x56>
 8000f60:	210d      	movs	r1, #13
 8000f62:	4638      	mov	r0, r7
 8000f64:	f8d5 9020 	ldr.w	r9, [r5, #32]
 8000f68:	f7ff feb4 	bl	8000cd4 <_Unwind_GetGR>
 8000f6c:	4581      	cmp	r9, r0
 8000f6e:	d001      	beq.n	8000f74 <__gnu_unwind_pr_common+0x1c8>
 8000f70:	6823      	ldr	r3, [r4, #0]
 8000f72:	e7b6      	b.n	8000ee2 <__gnu_unwind_pr_common+0x136>
 8000f74:	6aab      	ldr	r3, [r5, #40]	; 0x28
 8000f76:	429c      	cmp	r4, r3
 8000f78:	d1fa      	bne.n	8000f70 <__gnu_unwind_pr_common+0x1c4>
 8000f7a:	2204      	movs	r2, #4
 8000f7c:	2100      	movs	r1, #0
 8000f7e:	e9c5 120b 	strd	r1, r2, [r5, #44]	; 0x2c
 8000f82:	18a3      	adds	r3, r4, r2
 8000f84:	f8c5 b028 	str.w	fp, [r5, #40]	; 0x28
 8000f88:	636b      	str	r3, [r5, #52]	; 0x34
 8000f8a:	6823      	ldr	r3, [r4, #0]
 8000f8c:	428b      	cmp	r3, r1
 8000f8e:	db59      	blt.n	8001044 <__gnu_unwind_pr_common+0x298>
 8000f90:	2301      	movs	r3, #1
 8000f92:	9301      	str	r3, [sp, #4]
 8000f94:	e7a8      	b.n	8000ee8 <__gnu_unwind_pr_common+0x13c>
 8000f96:	f105 0358 	add.w	r3, r5, #88	; 0x58
 8000f9a:	f8cd 800c 	str.w	r8, [sp, #12]
 8000f9e:	f104 0a04 	add.w	sl, r4, #4
 8000fa2:	46b0      	mov	r8, r6
 8000fa4:	4691      	mov	r9, r2
 8000fa6:	461e      	mov	r6, r3
 8000fa8:	e00d      	b.n	8000fc6 <__gnu_unwind_pr_common+0x21a>
 8000faa:	9604      	str	r6, [sp, #16]
 8000fac:	f7ff fd7e 	bl	8000aac <_Unwind_decode_typeinfo_ptr.isra.0>
 8000fb0:	ab04      	add	r3, sp, #16
 8000fb2:	4601      	mov	r1, r0
 8000fb4:	2200      	movs	r2, #0
 8000fb6:	4628      	mov	r0, r5
 8000fb8:	f3af 8000 	nop.w
 8000fbc:	f109 0901 	add.w	r9, r9, #1
 8000fc0:	f10a 0a04 	add.w	sl, sl, #4
 8000fc4:	b9e8      	cbnz	r0, 8001002 <__gnu_unwind_pr_common+0x256>
 8000fc6:	45d9      	cmp	r9, fp
 8000fc8:	4650      	mov	r0, sl
 8000fca:	d1ee      	bne.n	8000faa <__gnu_unwind_pr_common+0x1fe>
 8000fcc:	4638      	mov	r0, r7
 8000fce:	210d      	movs	r1, #13
 8000fd0:	f7ff fe80 	bl	8000cd4 <_Unwind_GetGR>
 8000fd4:	9b04      	ldr	r3, [sp, #16]
 8000fd6:	6228      	str	r0, [r5, #32]
 8000fd8:	e9c5 3409 	strd	r3, r4, [r5, #36]	; 0x24
 8000fdc:	2006      	movs	r0, #6
 8000fde:	e710      	b.n	8000e02 <__gnu_unwind_pr_common+0x56>
 8000fe0:	4681      	mov	r9, r0
 8000fe2:	210d      	movs	r1, #13
 8000fe4:	4638      	mov	r0, r7
 8000fe6:	f7ff fe75 	bl	8000cd4 <_Unwind_GetGR>
 8000fea:	f1b9 0f02 	cmp.w	r9, #2
 8000fee:	6228      	str	r0, [r5, #32]
 8000ff0:	d125      	bne.n	800103e <__gnu_unwind_pr_common+0x292>
 8000ff2:	462b      	mov	r3, r5
 8000ff4:	9a04      	ldr	r2, [sp, #16]
 8000ff6:	f843 2f2c 	str.w	r2, [r3, #44]!
 8000ffa:	626b      	str	r3, [r5, #36]	; 0x24
 8000ffc:	62ac      	str	r4, [r5, #40]	; 0x28
 8000ffe:	2006      	movs	r0, #6
 8001000:	e6ff      	b.n	8000e02 <__gnu_unwind_pr_common+0x56>
 8001002:	4646      	mov	r6, r8
 8001004:	6823      	ldr	r3, [r4, #0]
 8001006:	f8dd 800c 	ldr.w	r8, [sp, #12]
 800100a:	e76a      	b.n	8000ee2 <__gnu_unwind_pr_common+0x136>
 800100c:	4620      	mov	r0, r4
 800100e:	f7ff fc87 	bl	8000920 <selfrel_offset31>
 8001012:	3404      	adds	r4, #4
 8001014:	4602      	mov	r2, r0
 8001016:	63ac      	str	r4, [r5, #56]	; 0x38
 8001018:	4628      	mov	r0, r5
 800101a:	4614      	mov	r4, r2
 800101c:	f3af 8000 	nop.w
 8001020:	2800      	cmp	r0, #0
 8001022:	f43f aeed 	beq.w	8000e00 <__gnu_unwind_pr_common+0x54>
 8001026:	4638      	mov	r0, r7
 8001028:	4622      	mov	r2, r4
 800102a:	210f      	movs	r1, #15
 800102c:	f7ff fe76 	bl	8000d1c <_Unwind_SetGR>
 8001030:	2007      	movs	r0, #7
 8001032:	e6e6      	b.n	8000e02 <__gnu_unwind_pr_common+0x56>
 8001034:	4638      	mov	r0, r7
 8001036:	210d      	movs	r1, #13
 8001038:	f7ff fe4c 	bl	8000cd4 <_Unwind_GetGR>
 800103c:	6228      	str	r0, [r5, #32]
 800103e:	9b04      	ldr	r3, [sp, #16]
 8001040:	626b      	str	r3, [r5, #36]	; 0x24
 8001042:	e7db      	b.n	8000ffc <__gnu_unwind_pr_common+0x250>
 8001044:	f10b 0001 	add.w	r0, fp, #1
 8001048:	eb04 0080 	add.w	r0, r4, r0, lsl #2
 800104c:	e77a      	b.n	8000f44 <__gnu_unwind_pr_common+0x198>
 800104e:	bf00      	nop
 8001050:	00000000 	.word	0x00000000

08001054 <__aeabi_unwind_cpp_pr0>:
 8001054:	2300      	movs	r3, #0
 8001056:	e6a9      	b.n	8000dac <__gnu_unwind_pr_common>

08001058 <__aeabi_unwind_cpp_pr1>:
 8001058:	2301      	movs	r3, #1
 800105a:	e6a7      	b.n	8000dac <__gnu_unwind_pr_common>

0800105c <__aeabi_unwind_cpp_pr2>:
 800105c:	2302      	movs	r3, #2
 800105e:	e6a5      	b.n	8000dac <__gnu_unwind_pr_common>

08001060 <_Unwind_VRS_Pop>:
 8001060:	e92d 43f0 	stmdb	sp!, {r4, r5, r6, r7, r8, r9, lr}
 8001064:	4606      	mov	r6, r0
 8001066:	b0c3      	sub	sp, #268	; 0x10c
 8001068:	4615      	mov	r5, r2
 800106a:	461c      	mov	r4, r3
 800106c:	2904      	cmp	r1, #4
 800106e:	f200 80b9 	bhi.w	80011e4 <_Unwind_VRS_Pop+0x184>
 8001072:	e8df f001 	tbb	[pc, r1]
 8001076:	539a      	.short	0x539a
 8001078:	29b7      	.short	0x29b7
 800107a:	03          	.byte	0x03
 800107b:	00          	.byte	0x00
 800107c:	2c00      	cmp	r4, #0
 800107e:	f040 80b1 	bne.w	80011e4 <_Unwind_VRS_Pop+0x184>
 8001082:	2a10      	cmp	r2, #16
 8001084:	f200 80ae 	bhi.w	80011e4 <_Unwind_VRS_Pop+0x184>
 8001088:	6803      	ldr	r3, [r0, #0]
 800108a:	06d8      	lsls	r0, r3, #27
 800108c:	f100 80f3 	bmi.w	8001276 <_Unwind_VRS_Pop+0x216>
 8001090:	af20      	add	r7, sp, #128	; 0x80
 8001092:	4638      	mov	r0, r7
 8001094:	f000 f992 	bl	80013bc <__gnu_Unwind_Save_WMMXC>
 8001098:	6bb0      	ldr	r0, [r6, #56]	; 0x38
 800109a:	2300      	movs	r3, #0
 800109c:	2401      	movs	r4, #1
 800109e:	fa04 f203 	lsl.w	r2, r4, r3
 80010a2:	422a      	tst	r2, r5
 80010a4:	4601      	mov	r1, r0
 80010a6:	d004      	beq.n	80010b2 <_Unwind_VRS_Pop+0x52>
 80010a8:	f851 2b04 	ldr.w	r2, [r1], #4
 80010ac:	f847 2023 	str.w	r2, [r7, r3, lsl #2]
 80010b0:	4608      	mov	r0, r1
 80010b2:	3301      	adds	r3, #1
 80010b4:	2b04      	cmp	r3, #4
 80010b6:	d1f2      	bne.n	800109e <_Unwind_VRS_Pop+0x3e>
 80010b8:	63b0      	str	r0, [r6, #56]	; 0x38
 80010ba:	4638      	mov	r0, r7
 80010bc:	f000 f974 	bl	80013a8 <__gnu_Unwind_Restore_WMMXC>
 80010c0:	2000      	movs	r0, #0
 80010c2:	b043      	add	sp, #268	; 0x10c
 80010c4:	e8bd 83f0 	ldmia.w	sp!, {r4, r5, r6, r7, r8, r9, pc}
 80010c8:	2c03      	cmp	r4, #3
 80010ca:	f040 808b 	bne.w	80011e4 <_Unwind_VRS_Pop+0x184>
 80010ce:	b294      	uxth	r4, r2
 80010d0:	eb04 4312 	add.w	r3, r4, r2, lsr #16
 80010d4:	2b10      	cmp	r3, #16
 80010d6:	ea4f 4512 	mov.w	r5, r2, lsr #16
 80010da:	f200 8083 	bhi.w	80011e4 <_Unwind_VRS_Pop+0x184>
 80010de:	6803      	ldr	r3, [r0, #0]
 80010e0:	071f      	lsls	r7, r3, #28
 80010e2:	f100 80d0 	bmi.w	8001286 <_Unwind_VRS_Pop+0x226>
 80010e6:	af20      	add	r7, sp, #128	; 0x80
 80010e8:	4638      	mov	r0, r7
 80010ea:	f000 f93b 	bl	8001364 <__gnu_Unwind_Save_WMMXD>
 80010ee:	eb07 01c5 	add.w	r1, r7, r5, lsl #3
 80010f2:	6bb5      	ldr	r5, [r6, #56]	; 0x38
 80010f4:	b154      	cbz	r4, 800110c <_Unwind_VRS_Pop+0xac>
 80010f6:	460b      	mov	r3, r1
 80010f8:	1ae8      	subs	r0, r5, r3
 80010fa:	eb01 01c4 	add.w	r1, r1, r4, lsl #3
 80010fe:	00e4      	lsls	r4, r4, #3
 8001100:	581a      	ldr	r2, [r3, r0]
 8001102:	f843 2b04 	str.w	r2, [r3], #4
 8001106:	428b      	cmp	r3, r1
 8001108:	d1fa      	bne.n	8001100 <_Unwind_VRS_Pop+0xa0>
 800110a:	4425      	add	r5, r4
 800110c:	4638      	mov	r0, r7
 800110e:	63b5      	str	r5, [r6, #56]	; 0x38
 8001110:	f000 f906 	bl	8001320 <__gnu_Unwind_Restore_WMMXD>
 8001114:	2000      	movs	r0, #0
 8001116:	b043      	add	sp, #268	; 0x10c
 8001118:	e8bd 83f0 	ldmia.w	sp!, {r4, r5, r6, r7, r8, r9, pc}
 800111c:	2c01      	cmp	r4, #1
 800111e:	ea4f 4812 	mov.w	r8, r2, lsr #16
 8001122:	b295      	uxth	r5, r2
 8001124:	d05a      	beq.n	80011dc <_Unwind_VRS_Pop+0x17c>
 8001126:	2c05      	cmp	r4, #5
 8001128:	d15c      	bne.n	80011e4 <_Unwind_VRS_Pop+0x184>
 800112a:	eb08 0905 	add.w	r9, r8, r5
 800112e:	f1b9 0f20 	cmp.w	r9, #32
 8001132:	d857      	bhi.n	80011e4 <_Unwind_VRS_Pop+0x184>
 8001134:	f1b8 0f0f 	cmp.w	r8, #15
 8001138:	d977      	bls.n	800122a <_Unwind_VRS_Pop+0x1ca>
 800113a:	46a9      	mov	r9, r5
 800113c:	2d00      	cmp	r5, #0
 800113e:	f040 8088 	bne.w	8001252 <_Unwind_VRS_Pop+0x1f2>
 8001142:	6bb3      	ldr	r3, [r6, #56]	; 0x38
 8001144:	b36d      	cbz	r5, 80011a2 <_Unwind_VRS_Pop+0x142>
 8001146:	af20      	add	r7, sp, #128	; 0x80
 8001148:	f04f 0900 	mov.w	r9, #0
 800114c:	eb07 07c8 	add.w	r7, r7, r8, lsl #3
 8001150:	3f04      	subs	r7, #4
 8001152:	eb03 05c5 	add.w	r5, r3, r5, lsl #3
 8001156:	f853 1b04 	ldr.w	r1, [r3], #4
 800115a:	f847 1f04 	str.w	r1, [r7, #4]!
 800115e:	42ab      	cmp	r3, r5
 8001160:	d1f9      	bne.n	8001156 <_Unwind_VRS_Pop+0xf6>
 8001162:	f1b9 0f00 	cmp.w	r9, #0
 8001166:	d00f      	beq.n	8001188 <_Unwind_VRS_Pop+0x128>
 8001168:	466f      	mov	r7, sp
 800116a:	4641      	mov	r1, r8
 800116c:	2910      	cmp	r1, #16
 800116e:	bf38      	it	cc
 8001170:	2110      	movcc	r1, #16
 8001172:	eb07 01c1 	add.w	r1, r7, r1, lsl #3
 8001176:	3984      	subs	r1, #132	; 0x84
 8001178:	eb03 05c9 	add.w	r5, r3, r9, lsl #3
 800117c:	f853 0b04 	ldr.w	r0, [r3], #4
 8001180:	f841 0f04 	str.w	r0, [r1, #4]!
 8001184:	42ab      	cmp	r3, r5
 8001186:	d1f9      	bne.n	800117c <_Unwind_VRS_Pop+0x11c>
 8001188:	2c01      	cmp	r4, #1
 800118a:	f000 8084 	beq.w	8001296 <_Unwind_VRS_Pop+0x236>
 800118e:	f1b8 0f0f 	cmp.w	r8, #15
 8001192:	63b5      	str	r5, [r6, #56]	; 0x38
 8001194:	d945      	bls.n	8001222 <_Unwind_VRS_Pop+0x1c2>
 8001196:	f1b9 0f00 	cmp.w	r9, #0
 800119a:	d002      	beq.n	80011a2 <_Unwind_VRS_Pop+0x142>
 800119c:	4668      	mov	r0, sp
 800119e:	f000 f8b7 	bl	8001310 <__gnu_Unwind_Restore_VFP_D_16_to_31>
 80011a2:	2000      	movs	r0, #0
 80011a4:	b043      	add	sp, #268	; 0x10c
 80011a6:	e8bd 83f0 	ldmia.w	sp!, {r4, r5, r6, r7, r8, r9, pc}
 80011aa:	b9dc      	cbnz	r4, 80011e4 <_Unwind_VRS_Pop+0x184>
 80011ac:	6b87      	ldr	r7, [r0, #56]	; 0x38
 80011ae:	4623      	mov	r3, r4
 80011b0:	2001      	movs	r0, #1
 80011b2:	b294      	uxth	r4, r2
 80011b4:	f106 0c04 	add.w	ip, r6, #4
 80011b8:	fa00 f203 	lsl.w	r2, r0, r3
 80011bc:	4222      	tst	r2, r4
 80011be:	4639      	mov	r1, r7
 80011c0:	d004      	beq.n	80011cc <_Unwind_VRS_Pop+0x16c>
 80011c2:	f851 2b04 	ldr.w	r2, [r1], #4
 80011c6:	f84c 2023 	str.w	r2, [ip, r3, lsl #2]
 80011ca:	460f      	mov	r7, r1
 80011cc:	3301      	adds	r3, #1
 80011ce:	2b10      	cmp	r3, #16
 80011d0:	d1f2      	bne.n	80011b8 <_Unwind_VRS_Pop+0x158>
 80011d2:	f415 5000 	ands.w	r0, r5, #8192	; 0x2000
 80011d6:	d1e4      	bne.n	80011a2 <_Unwind_VRS_Pop+0x142>
 80011d8:	63b7      	str	r7, [r6, #56]	; 0x38
 80011da:	e004      	b.n	80011e6 <_Unwind_VRS_Pop+0x186>
 80011dc:	eb08 0305 	add.w	r3, r8, r5
 80011e0:	2b10      	cmp	r3, #16
 80011e2:	d903      	bls.n	80011ec <_Unwind_VRS_Pop+0x18c>
 80011e4:	2002      	movs	r0, #2
 80011e6:	b043      	add	sp, #268	; 0x10c
 80011e8:	e8bd 83f0 	ldmia.w	sp!, {r4, r5, r6, r7, r8, r9, pc}
 80011ec:	f1b8 0f0f 	cmp.w	r8, #15
 80011f0:	d8f8      	bhi.n	80011e4 <_Unwind_VRS_Pop+0x184>
 80011f2:	6833      	ldr	r3, [r6, #0]
 80011f4:	07da      	lsls	r2, r3, #31
 80011f6:	d506      	bpl.n	8001206 <_Unwind_VRS_Pop+0x1a6>
 80011f8:	4630      	mov	r0, r6
 80011fa:	f023 0303 	bic.w	r3, r3, #3
 80011fe:	f840 3b48 	str.w	r3, [r0], #72
 8001202:	f000 f879 	bl	80012f8 <__gnu_Unwind_Save_VFP>
 8001206:	af20      	add	r7, sp, #128	; 0x80
 8001208:	4638      	mov	r0, r7
 800120a:	f000 f875 	bl	80012f8 <__gnu_Unwind_Save_VFP>
 800120e:	6bb3      	ldr	r3, [r6, #56]	; 0x38
 8001210:	2d00      	cmp	r5, #0
 8001212:	d199      	bne.n	8001148 <_Unwind_VRS_Pop+0xe8>
 8001214:	461d      	mov	r5, r3
 8001216:	3504      	adds	r5, #4
 8001218:	63b5      	str	r5, [r6, #56]	; 0x38
 800121a:	4638      	mov	r0, r7
 800121c:	f000 f868 	bl	80012f0 <__gnu_Unwind_Restore_VFP>
 8001220:	e7bf      	b.n	80011a2 <_Unwind_VRS_Pop+0x142>
 8001222:	a820      	add	r0, sp, #128	; 0x80
 8001224:	f000 f86c 	bl	8001300 <__gnu_Unwind_Restore_VFP_D>
 8001228:	e7b5      	b.n	8001196 <_Unwind_VRS_Pop+0x136>
 800122a:	f1b9 0f10 	cmp.w	r9, #16
 800122e:	d940      	bls.n	80012b2 <_Unwind_VRS_Pop+0x252>
 8001230:	f1a9 0910 	sub.w	r9, r9, #16
 8001234:	6833      	ldr	r3, [r6, #0]
 8001236:	07d9      	lsls	r1, r3, #31
 8001238:	d508      	bpl.n	800124c <_Unwind_VRS_Pop+0x1ec>
 800123a:	f023 0301 	bic.w	r3, r3, #1
 800123e:	4630      	mov	r0, r6
 8001240:	f043 0302 	orr.w	r3, r3, #2
 8001244:	f840 3b48 	str.w	r3, [r0], #72
 8001248:	f000 f85e 	bl	8001308 <__gnu_Unwind_Save_VFP_D>
 800124c:	f1b9 0f00 	cmp.w	r9, #0
 8001250:	d032      	beq.n	80012b8 <_Unwind_VRS_Pop+0x258>
 8001252:	6833      	ldr	r3, [r6, #0]
 8001254:	075a      	lsls	r2, r3, #29
 8001256:	d420      	bmi.n	800129a <_Unwind_VRS_Pop+0x23a>
 8001258:	f1b8 0f0f 	cmp.w	r8, #15
 800125c:	d925      	bls.n	80012aa <_Unwind_VRS_Pop+0x24a>
 800125e:	466f      	mov	r7, sp
 8001260:	4638      	mov	r0, r7
 8001262:	f1c8 0510 	rsb	r5, r8, #16
 8001266:	f000 f857 	bl	8001318 <__gnu_Unwind_Save_VFP_D_16_to_31>
 800126a:	2d00      	cmp	r5, #0
 800126c:	6bb3      	ldr	r3, [r6, #56]	; 0x38
 800126e:	f77f af7c 	ble.w	800116a <_Unwind_VRS_Pop+0x10a>
 8001272:	af20      	add	r7, sp, #128	; 0x80
 8001274:	e76a      	b.n	800114c <_Unwind_VRS_Pop+0xec>
 8001276:	f023 0310 	bic.w	r3, r3, #16
 800127a:	6033      	str	r3, [r6, #0]
 800127c:	f506 70e8 	add.w	r0, r6, #464	; 0x1d0
 8001280:	f000 f89c 	bl	80013bc <__gnu_Unwind_Save_WMMXC>
 8001284:	e704      	b.n	8001090 <_Unwind_VRS_Pop+0x30>
 8001286:	f023 0308 	bic.w	r3, r3, #8
 800128a:	6003      	str	r3, [r0, #0]
 800128c:	f500 70a8 	add.w	r0, r0, #336	; 0x150
 8001290:	f000 f868 	bl	8001364 <__gnu_Unwind_Save_WMMXD>
 8001294:	e727      	b.n	80010e6 <_Unwind_VRS_Pop+0x86>
 8001296:	af20      	add	r7, sp, #128	; 0x80
 8001298:	e7bd      	b.n	8001216 <_Unwind_VRS_Pop+0x1b6>
 800129a:	4630      	mov	r0, r6
 800129c:	f023 0304 	bic.w	r3, r3, #4
 80012a0:	f840 3bd0 	str.w	r3, [r0], #208
 80012a4:	f000 f838 	bl	8001318 <__gnu_Unwind_Save_VFP_D_16_to_31>
 80012a8:	e7d6      	b.n	8001258 <_Unwind_VRS_Pop+0x1f8>
 80012aa:	a820      	add	r0, sp, #128	; 0x80
 80012ac:	f000 f82c 	bl	8001308 <__gnu_Unwind_Save_VFP_D>
 80012b0:	e7d5      	b.n	800125e <_Unwind_VRS_Pop+0x1fe>
 80012b2:	f04f 0900 	mov.w	r9, #0
 80012b6:	e7bd      	b.n	8001234 <_Unwind_VRS_Pop+0x1d4>
 80012b8:	f1b8 0f0f 	cmp.w	r8, #15
 80012bc:	f63f af41 	bhi.w	8001142 <_Unwind_VRS_Pop+0xe2>
 80012c0:	af20      	add	r7, sp, #128	; 0x80
 80012c2:	4638      	mov	r0, r7
 80012c4:	f000 f820 	bl	8001308 <__gnu_Unwind_Save_VFP_D>
 80012c8:	6bb3      	ldr	r3, [r6, #56]	; 0x38
 80012ca:	2d00      	cmp	r5, #0
 80012cc:	f47f af3c 	bne.w	8001148 <_Unwind_VRS_Pop+0xe8>
 80012d0:	4638      	mov	r0, r7
 80012d2:	f000 f815 	bl	8001300 <__gnu_Unwind_Restore_VFP_D>
 80012d6:	e764      	b.n	80011a2 <_Unwind_VRS_Pop+0x142>

080012d8 <__restore_core_regs>:
 80012d8:	f100 0134 	add.w	r1, r0, #52	; 0x34
 80012dc:	e891 0038 	ldmia.w	r1, {r3, r4, r5}
 80012e0:	469c      	mov	ip, r3
 80012e2:	46a6      	mov	lr, r4
 80012e4:	f84c 5d04 	str.w	r5, [ip, #-4]!
 80012e8:	e890 0fff 	ldmia.w	r0, {r0, r1, r2, r3, r4, r5, r6, r7, r8, r9, sl, fp}
 80012ec:	46e5      	mov	sp, ip
 80012ee:	bd00      	pop	{pc}

080012f0 <__gnu_Unwind_Restore_VFP>:
 80012f0:	ec90 0b21 	fldmiax	r0, {d0-d15}	;@ Deprecated
 80012f4:	4770      	bx	lr
 80012f6:	bf00      	nop

080012f8 <__gnu_Unwind_Save_VFP>:
 80012f8:	ec80 0b21 	fstmiax	r0, {d0-d15}	;@ Deprecated
 80012fc:	4770      	bx	lr
 80012fe:	bf00      	nop

08001300 <__gnu_Unwind_Restore_VFP_D>:
 8001300:	ec90 0b20 	vldmia	r0, {d0-d15}
 8001304:	4770      	bx	lr
 8001306:	bf00      	nop

08001308 <__gnu_Unwind_Save_VFP_D>:
 8001308:	ec80 0b20 	vstmia	r0, {d0-d15}
 800130c:	4770      	bx	lr
 800130e:	bf00      	nop

08001310 <__gnu_Unwind_Restore_VFP_D_16_to_31>:
 8001310:	ecd0 0b20 	vldmia	r0, {d16-d31}
 8001314:	4770      	bx	lr
 8001316:	bf00      	nop

08001318 <__gnu_Unwind_Save_VFP_D_16_to_31>:
 8001318:	ecc0 0b20 	vstmia	r0, {d16-d31}
 800131c:	4770      	bx	lr
 800131e:	bf00      	nop

08001320 <__gnu_Unwind_Restore_WMMXD>:
 8001320:	ecf0 0102 	ldfe	f0, [r0], #8
 8001324:	ecf0 1102 	ldfe	f1, [r0], #8
 8001328:	ecf0 2102 	ldfe	f2, [r0], #8
 800132c:	ecf0 3102 	ldfe	f3, [r0], #8
 8001330:	ecf0 4102 	ldfe	f4, [r0], #8
 8001334:	ecf0 5102 	ldfe	f5, [r0], #8
 8001338:	ecf0 6102 	ldfe	f6, [r0], #8
 800133c:	ecf0 7102 	ldfe	f7, [r0], #8
 8001340:	ecf0 8102 	ldfp	f0, [r0], #8
 8001344:	ecf0 9102 	ldfp	f1, [r0], #8
 8001348:	ecf0 a102 	ldfp	f2, [r0], #8
 800134c:	ecf0 b102 	ldfp	f3, [r0], #8
 8001350:	ecf0 c102 	ldfp	f4, [r0], #8
 8001354:	ecf0 d102 	ldfp	f5, [r0], #8
 8001358:	ecf0 e102 	ldfp	f6, [r0], #8
 800135c:	ecf0 f102 	ldfp	f7, [r0], #8
 8001360:	4770      	bx	lr
 8001362:	bf00      	nop

08001364 <__gnu_Unwind_Save_WMMXD>:
 8001364:	ece0 0102 	stfe	f0, [r0], #8
 8001368:	ece0 1102 	stfe	f1, [r0], #8
 800136c:	ece0 2102 	stfe	f2, [r0], #8
 8001370:	ece0 3102 	stfe	f3, [r0], #8
 8001374:	ece0 4102 	stfe	f4, [r0], #8
 8001378:	ece0 5102 	stfe	f5, [r0], #8
 800137c:	ece0 6102 	stfe	f6, [r0], #8
 8001380:	ece0 7102 	stfe	f7, [r0], #8
 8001384:	ece0 8102 	stfp	f0, [r0], #8
 8001388:	ece0 9102 	stfp	f1, [r0], #8
 800138c:	ece0 a102 	stfp	f2, [r0], #8
 8001390:	ece0 b102 	stfp	f3, [r0], #8
 8001394:	ece0 c102 	stfp	f4, [r0], #8
 8001398:	ece0 d102 	stfp	f5, [r0], #8
 800139c:	ece0 e102 	stfp	f6, [r0], #8
 80013a0:	ece0 f102 	stfp	f7, [r0], #8
 80013a4:	4770      	bx	lr
 80013a6:	bf00      	nop

080013a8 <__gnu_Unwind_Restore_WMMXC>:
 80013a8:	fcb0 8101 	ldc2	1, cr8, [r0], #4
 80013ac:	fcb0 9101 	ldc2	1, cr9, [r0], #4
 80013b0:	fcb0 a101 	ldc2	1, cr10, [r0], #4
 80013b4:	fcb0 b101 	ldc2	1, cr11, [r0], #4
 80013b8:	4770      	bx	lr
 80013ba:	bf00      	nop

080013bc <__gnu_Unwind_Save_WMMXC>:
 80013bc:	fca0 8101 	stc2	1, cr8, [r0], #4
 80013c0:	fca0 9101 	stc2	1, cr9, [r0], #4
 80013c4:	fca0 a101 	stc2	1, cr10, [r0], #4
 80013c8:	fca0 b101 	stc2	1, cr11, [r0], #4
 80013cc:	4770      	bx	lr
 80013ce:	bf00      	nop

080013d0 <_Unwind_RaiseException>:
 80013d0:	46ec      	mov	ip, sp
 80013d2:	b500      	push	{lr}
 80013d4:	e92d 5000 	stmdb	sp!, {ip, lr}
 80013d8:	e92d 1fff 	stmdb	sp!, {r0, r1, r2, r3, r4, r5, r6, r7, r8, r9, sl, fp, ip}
 80013dc:	f04f 0300 	mov.w	r3, #0
 80013e0:	e92d 000c 	stmdb	sp!, {r2, r3}
 80013e4:	a901      	add	r1, sp, #4
 80013e6:	f7ff fbf1 	bl	8000bcc <__gnu_Unwind_RaiseException>
 80013ea:	f8dd e040 	ldr.w	lr, [sp, #64]	; 0x40
 80013ee:	b012      	add	sp, #72	; 0x48
 80013f0:	4770      	bx	lr
 80013f2:	bf00      	nop

080013f4 <_Unwind_Resume>:
 80013f4:	46ec      	mov	ip, sp
 80013f6:	b500      	push	{lr}
 80013f8:	e92d 5000 	stmdb	sp!, {ip, lr}
 80013fc:	e92d 1fff 	stmdb	sp!, {r0, r1, r2, r3, r4, r5, r6, r7, r8, r9, sl, fp, ip}
 8001400:	f04f 0300 	mov.w	r3, #0
 8001404:	e92d 000c 	stmdb	sp!, {r2, r3}
 8001408:	a901      	add	r1, sp, #4
 800140a:	f7ff fc19 	bl	8000c40 <__gnu_Unwind_Resume>
 800140e:	f8dd e040 	ldr.w	lr, [sp, #64]	; 0x40
 8001412:	b012      	add	sp, #72	; 0x48
 8001414:	4770      	bx	lr
 8001416:	bf00      	nop

08001418 <_Unwind_Resume_or_Rethrow>:
 8001418:	46ec      	mov	ip, sp
 800141a:	b500      	push	{lr}
 800141c:	e92d 5000 	stmdb	sp!, {ip, lr}
 8001420:	e92d 1fff 	stmdb	sp!, {r0, r1, r2, r3, r4, r5, r6, r7, r8, r9, sl, fp, ip}
 8001424:	f04f 0300 	mov.w	r3, #0
 8001428:	e92d 000c 	stmdb	sp!, {r2, r3}
 800142c:	a901      	add	r1, sp, #4
 800142e:	f7ff fc29 	bl	8000c84 <__gnu_Unwind_Resume_or_Rethrow>
 8001432:	f8dd e040 	ldr.w	lr, [sp, #64]	; 0x40
 8001436:	b012      	add	sp, #72	; 0x48
 8001438:	4770      	bx	lr
 800143a:	bf00      	nop

0800143c <_Unwind_ForcedUnwind>:
 800143c:	46ec      	mov	ip, sp
 800143e:	b500      	push	{lr}
 8001440:	e92d 5000 	stmdb	sp!, {ip, lr}
 8001444:	e92d 1fff 	stmdb	sp!, {r0, r1, r2, r3, r4, r5, r6, r7, r8, r9, sl, fp, ip}
 8001448:	f04f 0300 	mov.w	r3, #0
 800144c:	e92d 000c 	stmdb	sp!, {r2, r3}
 8001450:	ab01      	add	r3, sp, #4
 8001452:	f7ff fbeb 	bl	8000c2c <__gnu_Unwind_ForcedUnwind>
 8001456:	f8dd e040 	ldr.w	lr, [sp, #64]	; 0x40
 800145a:	b012      	add	sp, #72	; 0x48
 800145c:	4770      	bx	lr
 800145e:	bf00      	nop

08001460 <_Unwind_Backtrace>:
 8001460:	46ec      	mov	ip, sp
 8001462:	b500      	push	{lr}
 8001464:	e92d 5000 	stmdb	sp!, {ip, lr}
 8001468:	e92d 1fff 	stmdb	sp!, {r0, r1, r2, r3, r4, r5, r6, r7, r8, r9, sl, fp, ip}
 800146c:	f04f 0300 	mov.w	r3, #0
 8001470:	e92d 000c 	stmdb	sp!, {r2, r3}
 8001474:	aa01      	add	r2, sp, #4
 8001476:	f7ff fc5d 	bl	8000d34 <__gnu_Unwind_Backtrace>
 800147a:	f8dd e040 	ldr.w	lr, [sp, #64]	; 0x40
 800147e:	b012      	add	sp, #72	; 0x48
 8001480:	4770      	bx	lr
 8001482:	bf00      	nop

08001484 <next_unwind_byte>:
 8001484:	7a02      	ldrb	r2, [r0, #8]
 8001486:	b97a      	cbnz	r2, 80014a8 <next_unwind_byte+0x24>
 8001488:	7a43      	ldrb	r3, [r0, #9]
 800148a:	b1a3      	cbz	r3, 80014b6 <next_unwind_byte+0x32>
 800148c:	6842      	ldr	r2, [r0, #4]
 800148e:	3b01      	subs	r3, #1
 8001490:	b410      	push	{r4}
 8001492:	7243      	strb	r3, [r0, #9]
 8001494:	6813      	ldr	r3, [r2, #0]
 8001496:	2103      	movs	r1, #3
 8001498:	1d14      	adds	r4, r2, #4
 800149a:	7201      	strb	r1, [r0, #8]
 800149c:	021a      	lsls	r2, r3, #8
 800149e:	6044      	str	r4, [r0, #4]
 80014a0:	6002      	str	r2, [r0, #0]
 80014a2:	bc10      	pop	{r4}
 80014a4:	0e18      	lsrs	r0, r3, #24
 80014a6:	4770      	bx	lr
 80014a8:	6803      	ldr	r3, [r0, #0]
 80014aa:	3a01      	subs	r2, #1
 80014ac:	7202      	strb	r2, [r0, #8]
 80014ae:	021a      	lsls	r2, r3, #8
 80014b0:	6002      	str	r2, [r0, #0]
 80014b2:	0e18      	lsrs	r0, r3, #24
 80014b4:	4770      	bx	lr
 80014b6:	20b0      	movs	r0, #176	; 0xb0
 80014b8:	4770      	bx	lr
 80014ba:	bf00      	nop

080014bc <_Unwind_GetGR.constprop.0>:
 80014bc:	b500      	push	{lr}
 80014be:	b085      	sub	sp, #20
 80014c0:	aa03      	add	r2, sp, #12
 80014c2:	2300      	movs	r3, #0
 80014c4:	9200      	str	r2, [sp, #0]
 80014c6:	4619      	mov	r1, r3
 80014c8:	220c      	movs	r2, #12
 80014ca:	f7ff fbeb 	bl	8000ca4 <_Unwind_VRS_Get>
 80014ce:	9803      	ldr	r0, [sp, #12]
 80014d0:	b005      	add	sp, #20
 80014d2:	f85d fb04 	ldr.w	pc, [sp], #4
 80014d6:	bf00      	nop

080014d8 <unwind_UCB_from_context>:
 80014d8:	e7f0      	b.n	80014bc <_Unwind_GetGR.constprop.0>
 80014da:	bf00      	nop

080014dc <__gnu_unwind_execute>:
 80014dc:	e92d 43f0 	stmdb	sp!, {r4, r5, r6, r7, r8, r9, lr}
 80014e0:	4605      	mov	r5, r0
 80014e2:	b085      	sub	sp, #20
 80014e4:	460e      	mov	r6, r1
 80014e6:	f04f 0800 	mov.w	r8, #0
 80014ea:	4630      	mov	r0, r6
 80014ec:	f7ff ffca 	bl	8001484 <next_unwind_byte>
 80014f0:	28b0      	cmp	r0, #176	; 0xb0
 80014f2:	4604      	mov	r4, r0
 80014f4:	f000 80b2 	beq.w	800165c <__gnu_unwind_execute+0x180>
 80014f8:	0607      	lsls	r7, r0, #24
 80014fa:	d520      	bpl.n	800153e <__gnu_unwind_execute+0x62>
 80014fc:	f000 03f0 	and.w	r3, r0, #240	; 0xf0
 8001500:	2b80      	cmp	r3, #128	; 0x80
 8001502:	d04d      	beq.n	80015a0 <__gnu_unwind_execute+0xc4>
 8001504:	2b90      	cmp	r3, #144	; 0x90
 8001506:	d036      	beq.n	8001576 <__gnu_unwind_execute+0x9a>
 8001508:	2ba0      	cmp	r3, #160	; 0xa0
 800150a:	d060      	beq.n	80015ce <__gnu_unwind_execute+0xf2>
 800150c:	2bb0      	cmp	r3, #176	; 0xb0
 800150e:	d074      	beq.n	80015fa <__gnu_unwind_execute+0x11e>
 8001510:	2bc0      	cmp	r3, #192	; 0xc0
 8001512:	f000 808b 	beq.w	800162c <__gnu_unwind_execute+0x150>
 8001516:	f000 03f8 	and.w	r3, r0, #248	; 0xf8
 800151a:	2bd0      	cmp	r3, #208	; 0xd0
 800151c:	d10b      	bne.n	8001536 <__gnu_unwind_execute+0x5a>
 800151e:	f000 0207 	and.w	r2, r0, #7
 8001522:	3201      	adds	r2, #1
 8001524:	f442 2200 	orr.w	r2, r2, #524288	; 0x80000
 8001528:	2305      	movs	r3, #5
 800152a:	2101      	movs	r1, #1
 800152c:	4628      	mov	r0, r5
 800152e:	f7ff fd97 	bl	8001060 <_Unwind_VRS_Pop>
 8001532:	2800      	cmp	r0, #0
 8001534:	d0d9      	beq.n	80014ea <__gnu_unwind_execute+0xe>
 8001536:	2009      	movs	r0, #9
 8001538:	b005      	add	sp, #20
 800153a:	e8bd 83f0 	ldmia.w	sp!, {r4, r5, r6, r7, r8, r9, pc}
 800153e:	f10d 090c 	add.w	r9, sp, #12
 8001542:	2300      	movs	r3, #0
 8001544:	4619      	mov	r1, r3
 8001546:	0087      	lsls	r7, r0, #2
 8001548:	f8cd 9000 	str.w	r9, [sp]
 800154c:	220d      	movs	r2, #13
 800154e:	4628      	mov	r0, r5
 8001550:	f7ff fba8 	bl	8000ca4 <_Unwind_VRS_Get>
 8001554:	b2ff      	uxtb	r7, r7
 8001556:	9b03      	ldr	r3, [sp, #12]
 8001558:	f8cd 9000 	str.w	r9, [sp]
 800155c:	3704      	adds	r7, #4
 800155e:	0660      	lsls	r0, r4, #25
 8001560:	bf4c      	ite	mi
 8001562:	1bdf      	submi	r7, r3, r7
 8001564:	18ff      	addpl	r7, r7, r3
 8001566:	2300      	movs	r3, #0
 8001568:	4619      	mov	r1, r3
 800156a:	220d      	movs	r2, #13
 800156c:	4628      	mov	r0, r5
 800156e:	9703      	str	r7, [sp, #12]
 8001570:	f7ff fbbc 	bl	8000cec <_Unwind_VRS_Set>
 8001574:	e7b9      	b.n	80014ea <__gnu_unwind_execute+0xe>
 8001576:	f000 030d 	and.w	r3, r0, #13
 800157a:	2b0d      	cmp	r3, #13
 800157c:	d0db      	beq.n	8001536 <__gnu_unwind_execute+0x5a>
 800157e:	af03      	add	r7, sp, #12
 8001580:	2300      	movs	r3, #0
 8001582:	f000 020f 	and.w	r2, r0, #15
 8001586:	4619      	mov	r1, r3
 8001588:	9700      	str	r7, [sp, #0]
 800158a:	4628      	mov	r0, r5
 800158c:	f7ff fb8a 	bl	8000ca4 <_Unwind_VRS_Get>
 8001590:	2300      	movs	r3, #0
 8001592:	9700      	str	r7, [sp, #0]
 8001594:	4619      	mov	r1, r3
 8001596:	220d      	movs	r2, #13
 8001598:	4628      	mov	r0, r5
 800159a:	f7ff fba7 	bl	8000cec <_Unwind_VRS_Set>
 800159e:	e7a4      	b.n	80014ea <__gnu_unwind_execute+0xe>
 80015a0:	4630      	mov	r0, r6
 80015a2:	f7ff ff6f 	bl	8001484 <next_unwind_byte>
 80015a6:	0224      	lsls	r4, r4, #8
 80015a8:	4320      	orrs	r0, r4
 80015aa:	f5b0 4f00 	cmp.w	r0, #32768	; 0x8000
 80015ae:	d0c2      	beq.n	8001536 <__gnu_unwind_execute+0x5a>
 80015b0:	0104      	lsls	r4, r0, #4
 80015b2:	2300      	movs	r3, #0
 80015b4:	b2a2      	uxth	r2, r4
 80015b6:	4619      	mov	r1, r3
 80015b8:	4628      	mov	r0, r5
 80015ba:	f7ff fd51 	bl	8001060 <_Unwind_VRS_Pop>
 80015be:	2800      	cmp	r0, #0
 80015c0:	d1b9      	bne.n	8001536 <__gnu_unwind_execute+0x5a>
 80015c2:	f414 4f00 	tst.w	r4, #32768	; 0x8000
 80015c6:	bf18      	it	ne
 80015c8:	f04f 0801 	movne.w	r8, #1
 80015cc:	e78d      	b.n	80014ea <__gnu_unwind_execute+0xe>
 80015ce:	43c2      	mvns	r2, r0
 80015d0:	f002 0307 	and.w	r3, r2, #7
 80015d4:	f44f 627f 	mov.w	r2, #4080	; 0xff0
 80015d8:	411a      	asrs	r2, r3
 80015da:	0701      	lsls	r1, r0, #28
 80015dc:	f402 627f 	and.w	r2, r2, #4080	; 0xff0
 80015e0:	f04f 0300 	mov.w	r3, #0
 80015e4:	bf48      	it	mi
 80015e6:	f442 4280 	orrmi.w	r2, r2, #16384	; 0x4000
 80015ea:	4619      	mov	r1, r3
 80015ec:	4628      	mov	r0, r5
 80015ee:	f7ff fd37 	bl	8001060 <_Unwind_VRS_Pop>
 80015f2:	2800      	cmp	r0, #0
 80015f4:	f43f af79 	beq.w	80014ea <__gnu_unwind_execute+0xe>
 80015f8:	e79d      	b.n	8001536 <__gnu_unwind_execute+0x5a>
 80015fa:	28b1      	cmp	r0, #177	; 0xb1
 80015fc:	d033      	beq.n	8001666 <__gnu_unwind_execute+0x18a>
 80015fe:	28b2      	cmp	r0, #178	; 0xb2
 8001600:	f000 808b 	beq.w	800171a <__gnu_unwind_execute+0x23e>
 8001604:	28b3      	cmp	r0, #179	; 0xb3
 8001606:	d039      	beq.n	800167c <__gnu_unwind_execute+0x1a0>
 8001608:	f000 03fc 	and.w	r3, r0, #252	; 0xfc
 800160c:	2bb4      	cmp	r3, #180	; 0xb4
 800160e:	d092      	beq.n	8001536 <__gnu_unwind_execute+0x5a>
 8001610:	f000 0207 	and.w	r2, r0, #7
 8001614:	3201      	adds	r2, #1
 8001616:	2301      	movs	r3, #1
 8001618:	f442 2200 	orr.w	r2, r2, #524288	; 0x80000
 800161c:	4619      	mov	r1, r3
 800161e:	4628      	mov	r0, r5
 8001620:	f7ff fd1e 	bl	8001060 <_Unwind_VRS_Pop>
 8001624:	2800      	cmp	r0, #0
 8001626:	f43f af60 	beq.w	80014ea <__gnu_unwind_execute+0xe>
 800162a:	e784      	b.n	8001536 <__gnu_unwind_execute+0x5a>
 800162c:	28c6      	cmp	r0, #198	; 0xc6
 800162e:	d042      	beq.n	80016b6 <__gnu_unwind_execute+0x1da>
 8001630:	28c7      	cmp	r0, #199	; 0xc7
 8001632:	d04c      	beq.n	80016ce <__gnu_unwind_execute+0x1f2>
 8001634:	f000 03f8 	and.w	r3, r0, #248	; 0xf8
 8001638:	2bc0      	cmp	r3, #192	; 0xc0
 800163a:	d05b      	beq.n	80016f4 <__gnu_unwind_execute+0x218>
 800163c:	28c8      	cmp	r0, #200	; 0xc8
 800163e:	d060      	beq.n	8001702 <__gnu_unwind_execute+0x226>
 8001640:	28c9      	cmp	r0, #201	; 0xc9
 8001642:	f47f af78 	bne.w	8001536 <__gnu_unwind_execute+0x5a>
 8001646:	4630      	mov	r0, r6
 8001648:	f7ff ff1c 	bl	8001484 <next_unwind_byte>
 800164c:	0302      	lsls	r2, r0, #12
 800164e:	f000 000f 	and.w	r0, r0, #15
 8001652:	f402 2270 	and.w	r2, r2, #983040	; 0xf0000
 8001656:	3001      	adds	r0, #1
 8001658:	4302      	orrs	r2, r0
 800165a:	e765      	b.n	8001528 <__gnu_unwind_execute+0x4c>
 800165c:	f1b8 0f00 	cmp.w	r8, #0
 8001660:	d018      	beq.n	8001694 <__gnu_unwind_execute+0x1b8>
 8001662:	2000      	movs	r0, #0
 8001664:	e768      	b.n	8001538 <__gnu_unwind_execute+0x5c>
 8001666:	4630      	mov	r0, r6
 8001668:	f7ff ff0c 	bl	8001484 <next_unwind_byte>
 800166c:	4602      	mov	r2, r0
 800166e:	2800      	cmp	r0, #0
 8001670:	f43f af61 	beq.w	8001536 <__gnu_unwind_execute+0x5a>
 8001674:	f010 03f0 	ands.w	r3, r0, #240	; 0xf0
 8001678:	d0d0      	beq.n	800161c <__gnu_unwind_execute+0x140>
 800167a:	e75c      	b.n	8001536 <__gnu_unwind_execute+0x5a>
 800167c:	4630      	mov	r0, r6
 800167e:	f7ff ff01 	bl	8001484 <next_unwind_byte>
 8001682:	0301      	lsls	r1, r0, #12
 8001684:	f000 000f 	and.w	r0, r0, #15
 8001688:	f401 2170 	and.w	r1, r1, #983040	; 0xf0000
 800168c:	1c42      	adds	r2, r0, #1
 800168e:	2301      	movs	r3, #1
 8001690:	430a      	orrs	r2, r1
 8001692:	e7c3      	b.n	800161c <__gnu_unwind_execute+0x140>
 8001694:	ac03      	add	r4, sp, #12
 8001696:	4643      	mov	r3, r8
 8001698:	220e      	movs	r2, #14
 800169a:	4641      	mov	r1, r8
 800169c:	9400      	str	r4, [sp, #0]
 800169e:	4628      	mov	r0, r5
 80016a0:	f7ff fb00 	bl	8000ca4 <_Unwind_VRS_Get>
 80016a4:	9400      	str	r4, [sp, #0]
 80016a6:	4628      	mov	r0, r5
 80016a8:	4643      	mov	r3, r8
 80016aa:	220f      	movs	r2, #15
 80016ac:	4641      	mov	r1, r8
 80016ae:	f7ff fb1d 	bl	8000cec <_Unwind_VRS_Set>
 80016b2:	4640      	mov	r0, r8
 80016b4:	e740      	b.n	8001538 <__gnu_unwind_execute+0x5c>
 80016b6:	4630      	mov	r0, r6
 80016b8:	f7ff fee4 	bl	8001484 <next_unwind_byte>
 80016bc:	0301      	lsls	r1, r0, #12
 80016be:	f000 000f 	and.w	r0, r0, #15
 80016c2:	f401 2170 	and.w	r1, r1, #983040	; 0xf0000
 80016c6:	1c42      	adds	r2, r0, #1
 80016c8:	2303      	movs	r3, #3
 80016ca:	430a      	orrs	r2, r1
 80016cc:	e7a6      	b.n	800161c <__gnu_unwind_execute+0x140>
 80016ce:	4630      	mov	r0, r6
 80016d0:	f7ff fed8 	bl	8001484 <next_unwind_byte>
 80016d4:	4602      	mov	r2, r0
 80016d6:	2800      	cmp	r0, #0
 80016d8:	f43f af2d 	beq.w	8001536 <__gnu_unwind_execute+0x5a>
 80016dc:	f010 03f0 	ands.w	r3, r0, #240	; 0xf0
 80016e0:	f47f af29 	bne.w	8001536 <__gnu_unwind_execute+0x5a>
 80016e4:	2104      	movs	r1, #4
 80016e6:	4628      	mov	r0, r5
 80016e8:	f7ff fcba 	bl	8001060 <_Unwind_VRS_Pop>
 80016ec:	2800      	cmp	r0, #0
 80016ee:	f43f aefc 	beq.w	80014ea <__gnu_unwind_execute+0xe>
 80016f2:	e720      	b.n	8001536 <__gnu_unwind_execute+0x5a>
 80016f4:	f000 020f 	and.w	r2, r0, #15
 80016f8:	3201      	adds	r2, #1
 80016fa:	2303      	movs	r3, #3
 80016fc:	f442 2220 	orr.w	r2, r2, #655360	; 0xa0000
 8001700:	e78c      	b.n	800161c <__gnu_unwind_execute+0x140>
 8001702:	4630      	mov	r0, r6
 8001704:	f7ff febe 	bl	8001484 <next_unwind_byte>
 8001708:	f000 02f0 	and.w	r2, r0, #240	; 0xf0
 800170c:	f000 030f 	and.w	r3, r0, #15
 8001710:	3210      	adds	r2, #16
 8001712:	3301      	adds	r3, #1
 8001714:	ea43 3202 	orr.w	r2, r3, r2, lsl #12
 8001718:	e706      	b.n	8001528 <__gnu_unwind_execute+0x4c>
 800171a:	2300      	movs	r3, #0
 800171c:	f10d 090c 	add.w	r9, sp, #12
 8001720:	220d      	movs	r2, #13
 8001722:	4619      	mov	r1, r3
 8001724:	f8cd 9000 	str.w	r9, [sp]
 8001728:	4628      	mov	r0, r5
 800172a:	f7ff fabb 	bl	8000ca4 <_Unwind_VRS_Get>
 800172e:	4630      	mov	r0, r6
 8001730:	f7ff fea8 	bl	8001484 <next_unwind_byte>
 8001734:	0602      	lsls	r2, r0, #24
 8001736:	f04f 0702 	mov.w	r7, #2
 800173a:	d50c      	bpl.n	8001756 <__gnu_unwind_execute+0x27a>
 800173c:	9b03      	ldr	r3, [sp, #12]
 800173e:	f000 007f 	and.w	r0, r0, #127	; 0x7f
 8001742:	40b8      	lsls	r0, r7
 8001744:	4403      	add	r3, r0
 8001746:	4630      	mov	r0, r6
 8001748:	9303      	str	r3, [sp, #12]
 800174a:	f7ff fe9b 	bl	8001484 <next_unwind_byte>
 800174e:	0603      	lsls	r3, r0, #24
 8001750:	f107 0707 	add.w	r7, r7, #7
 8001754:	d4f2      	bmi.n	800173c <__gnu_unwind_execute+0x260>
 8001756:	9b03      	ldr	r3, [sp, #12]
 8001758:	f8cd 9000 	str.w	r9, [sp]
 800175c:	f000 047f 	and.w	r4, r0, #127	; 0x7f
 8001760:	f503 7201 	add.w	r2, r3, #516	; 0x204
 8001764:	40bc      	lsls	r4, r7
 8001766:	2300      	movs	r3, #0
 8001768:	4414      	add	r4, r2
 800176a:	4619      	mov	r1, r3
 800176c:	220d      	movs	r2, #13
 800176e:	4628      	mov	r0, r5
 8001770:	9403      	str	r4, [sp, #12]
 8001772:	f7ff fabb 	bl	8000cec <_Unwind_VRS_Set>
 8001776:	e6b8      	b.n	80014ea <__gnu_unwind_execute+0xe>

08001778 <__gnu_unwind_frame>:
 8001778:	b510      	push	{r4, lr}
 800177a:	6cc2      	ldr	r2, [r0, #76]	; 0x4c
 800177c:	b084      	sub	sp, #16
 800177e:	6853      	ldr	r3, [r2, #4]
 8001780:	2403      	movs	r4, #3
 8001782:	f88d 400c 	strb.w	r4, [sp, #12]
 8001786:	021b      	lsls	r3, r3, #8
 8001788:	f102 0408 	add.w	r4, r2, #8
 800178c:	4608      	mov	r0, r1
 800178e:	79d2      	ldrb	r2, [r2, #7]
 8001790:	9301      	str	r3, [sp, #4]
 8001792:	a901      	add	r1, sp, #4
 8001794:	9402      	str	r4, [sp, #8]
 8001796:	f88d 200d 	strb.w	r2, [sp, #13]
 800179a:	f7ff fe9f 	bl	80014dc <__gnu_unwind_execute>
 800179e:	b004      	add	sp, #16
 80017a0:	bd10      	pop	{r4, pc}
 80017a2:	bf00      	nop

080017a4 <_Unwind_GetRegionStart>:
 80017a4:	b508      	push	{r3, lr}
 80017a6:	f7ff fe97 	bl	80014d8 <unwind_UCB_from_context>
 80017aa:	6c80      	ldr	r0, [r0, #72]	; 0x48
 80017ac:	bd08      	pop	{r3, pc}
 80017ae:	bf00      	nop

080017b0 <_Unwind_GetLanguageSpecificData>:
 80017b0:	b508      	push	{r3, lr}
 80017b2:	f7ff fe91 	bl	80014d8 <unwind_UCB_from_context>
 80017b6:	6cc0      	ldr	r0, [r0, #76]	; 0x4c
 80017b8:	79c3      	ldrb	r3, [r0, #7]
 80017ba:	3302      	adds	r3, #2
 80017bc:	eb00 0083 	add.w	r0, r0, r3, lsl #2
 80017c0:	bd08      	pop	{r3, pc}
 80017c2:	bf00      	nop

080017c4 <read_uleb128>:
 80017c4:	b430      	push	{r4, r5}
 80017c6:	2500      	movs	r5, #0
 80017c8:	462a      	mov	r2, r5
 80017ca:	f810 4b01 	ldrb.w	r4, [r0], #1
 80017ce:	f004 037f 	and.w	r3, r4, #127	; 0x7f
 80017d2:	4093      	lsls	r3, r2
 80017d4:	431d      	orrs	r5, r3
 80017d6:	0623      	lsls	r3, r4, #24
 80017d8:	f102 0207 	add.w	r2, r2, #7
 80017dc:	d4f5      	bmi.n	80017ca <read_uleb128+0x6>
 80017de:	600d      	str	r5, [r1, #0]
 80017e0:	bc30      	pop	{r4, r5}
 80017e2:	4770      	bx	lr

080017e4 <read_sleb128>:
 80017e4:	b430      	push	{r4, r5}
 80017e6:	2500      	movs	r5, #0
 80017e8:	462a      	mov	r2, r5
 80017ea:	f810 4b01 	ldrb.w	r4, [r0], #1
 80017ee:	f004 037f 	and.w	r3, r4, #127	; 0x7f
 80017f2:	4093      	lsls	r3, r2
 80017f4:	431d      	orrs	r5, r3
 80017f6:	0623      	lsls	r3, r4, #24
 80017f8:	f102 0207 	add.w	r2, r2, #7
 80017fc:	d4f5      	bmi.n	80017ea <read_sleb128+0x6>
 80017fe:	2a1f      	cmp	r2, #31
 8001800:	d806      	bhi.n	8001810 <read_sleb128+0x2c>
 8001802:	0663      	lsls	r3, r4, #25
 8001804:	d504      	bpl.n	8001810 <read_sleb128+0x2c>
 8001806:	f04f 33ff 	mov.w	r3, #4294967295	; 0xffffffff
 800180a:	fa03 f202 	lsl.w	r2, r3, r2
 800180e:	4315      	orrs	r5, r2
 8001810:	600d      	str	r5, [r1, #0]
 8001812:	bc30      	pop	{r4, r5}
 8001814:	4770      	bx	lr
 8001816:	bf00      	nop

08001818 <base_of_encoded_value>:
 8001818:	28ff      	cmp	r0, #255	; 0xff
 800181a:	b508      	push	{r3, lr}
 800181c:	4603      	mov	r3, r0
 800181e:	d019      	beq.n	8001854 <base_of_encoded_value+0x3c>
 8001820:	f003 0270 	and.w	r2, r3, #112	; 0x70
 8001824:	2a30      	cmp	r2, #48	; 0x30
 8001826:	4608      	mov	r0, r1
 8001828:	d016      	beq.n	8001858 <base_of_encoded_value+0x40>
 800182a:	d805      	bhi.n	8001838 <base_of_encoded_value+0x20>
 800182c:	2a20      	cmp	r2, #32
 800182e:	d109      	bne.n	8001844 <base_of_encoded_value+0x2c>
 8001830:	e8bd 4008 	ldmia.w	sp!, {r3, lr}
 8001834:	f004 bd29 	b.w	800628a <_Unwind_GetTextRelBase>
 8001838:	2a40      	cmp	r2, #64	; 0x40
 800183a:	d109      	bne.n	8001850 <base_of_encoded_value+0x38>
 800183c:	e8bd 4008 	ldmia.w	sp!, {r3, lr}
 8001840:	f7ff bfb0 	b.w	80017a4 <_Unwind_GetRegionStart>
 8001844:	d802      	bhi.n	800184c <base_of_encoded_value+0x34>
 8001846:	f013 0f60 	tst.w	r3, #96	; 0x60
 800184a:	d003      	beq.n	8001854 <base_of_encoded_value+0x3c>
 800184c:	f000 f920 	bl	8001a90 <abort>
 8001850:	2a50      	cmp	r2, #80	; 0x50
 8001852:	d1fb      	bne.n	800184c <base_of_encoded_value+0x34>
 8001854:	2000      	movs	r0, #0
 8001856:	bd08      	pop	{r3, pc}
 8001858:	e8bd 4008 	ldmia.w	sp!, {r3, lr}
 800185c:	f004 bd12 	b.w	8006284 <_Unwind_GetDataRelBase>

08001860 <read_encoded_value_with_base>:
 8001860:	b5f0      	push	{r4, r5, r6, r7, lr}
 8001862:	2850      	cmp	r0, #80	; 0x50
 8001864:	b083      	sub	sp, #12
 8001866:	4615      	mov	r5, r2
 8001868:	461e      	mov	r6, r3
 800186a:	d01e      	beq.n	80018aa <read_encoded_value_with_base+0x4a>
 800186c:	f000 030f 	and.w	r3, r0, #15
 8001870:	4604      	mov	r4, r0
 8001872:	460f      	mov	r7, r1
 8001874:	2b0c      	cmp	r3, #12
 8001876:	d838      	bhi.n	80018ea <read_encoded_value_with_base+0x8a>
 8001878:	e8df f003 	tbb	[pc, r3]
 800187c:	07332d07 	.word	0x07332d07
 8001880:	3737371f 	.word	0x3737371f
 8001884:	07232737 	.word	0x07232737
 8001888:	1f          	.byte	0x1f
 8001889:	00          	.byte	0x00
 800188a:	4628      	mov	r0, r5
 800188c:	f850 2b04 	ldr.w	r2, [r0], #4
 8001890:	b142      	cbz	r2, 80018a4 <read_encoded_value_with_base+0x44>
 8001892:	f004 0370 	and.w	r3, r4, #112	; 0x70
 8001896:	2b10      	cmp	r3, #16
 8001898:	bf08      	it	eq
 800189a:	462f      	moveq	r7, r5
 800189c:	443a      	add	r2, r7
 800189e:	0623      	lsls	r3, r4, #24
 80018a0:	bf48      	it	mi
 80018a2:	6812      	ldrmi	r2, [r2, #0]
 80018a4:	6032      	str	r2, [r6, #0]
 80018a6:	b003      	add	sp, #12
 80018a8:	bdf0      	pop	{r4, r5, r6, r7, pc}
 80018aa:	1cd0      	adds	r0, r2, #3
 80018ac:	f020 0003 	bic.w	r0, r0, #3
 80018b0:	f850 2b04 	ldr.w	r2, [r0], #4
 80018b4:	6032      	str	r2, [r6, #0]
 80018b6:	b003      	add	sp, #12
 80018b8:	bdf0      	pop	{r4, r5, r6, r7, pc}
 80018ba:	4628      	mov	r0, r5
 80018bc:	f850 2b08 	ldr.w	r2, [r0], #8
 80018c0:	e7e6      	b.n	8001890 <read_encoded_value_with_base+0x30>
 80018c2:	4628      	mov	r0, r5
 80018c4:	f930 2b02 	ldrsh.w	r2, [r0], #2
 80018c8:	e7e2      	b.n	8001890 <read_encoded_value_with_base+0x30>
 80018ca:	a901      	add	r1, sp, #4
 80018cc:	4628      	mov	r0, r5
 80018ce:	f7ff ff89 	bl	80017e4 <read_sleb128>
 80018d2:	9a01      	ldr	r2, [sp, #4]
 80018d4:	e7dc      	b.n	8001890 <read_encoded_value_with_base+0x30>
 80018d6:	a901      	add	r1, sp, #4
 80018d8:	4628      	mov	r0, r5
 80018da:	f7ff ff73 	bl	80017c4 <read_uleb128>
 80018de:	9a01      	ldr	r2, [sp, #4]
 80018e0:	e7d6      	b.n	8001890 <read_encoded_value_with_base+0x30>
 80018e2:	4628      	mov	r0, r5
 80018e4:	f830 2b02 	ldrh.w	r2, [r0], #2
 80018e8:	e7d2      	b.n	8001890 <read_encoded_value_with_base+0x30>
 80018ea:	f000 f8d1 	bl	8001a90 <abort>
 80018ee:	bf00      	nop

080018f0 <read_encoded_value>:
 80018f0:	b570      	push	{r4, r5, r6, lr}
 80018f2:	460c      	mov	r4, r1
 80018f4:	4601      	mov	r1, r0
 80018f6:	4620      	mov	r0, r4
 80018f8:	4615      	mov	r5, r2
 80018fa:	461e      	mov	r6, r3
 80018fc:	f7ff ff8c 	bl	8001818 <base_of_encoded_value>
 8001900:	4633      	mov	r3, r6
 8001902:	4601      	mov	r1, r0
 8001904:	462a      	mov	r2, r5
 8001906:	4620      	mov	r0, r4
 8001908:	e8bd 4070 	ldmia.w	sp!, {r4, r5, r6, lr}
 800190c:	e7a8      	b.n	8001860 <read_encoded_value_with_base>
 800190e:	bf00      	nop

08001910 <parse_lsda_header>:
 8001910:	b570      	push	{r4, r5, r6, lr}
 8001912:	460c      	mov	r4, r1
 8001914:	b082      	sub	sp, #8
 8001916:	4615      	mov	r5, r2
 8001918:	4606      	mov	r6, r0
 800191a:	b360      	cbz	r0, 8001976 <parse_lsda_header+0x66>
 800191c:	f7ff ff42 	bl	80017a4 <_Unwind_GetRegionStart>
 8001920:	4603      	mov	r3, r0
 8001922:	4620      	mov	r0, r4
 8001924:	602b      	str	r3, [r5, #0]
 8001926:	f810 1b01 	ldrb.w	r1, [r0], #1
 800192a:	29ff      	cmp	r1, #255	; 0xff
 800192c:	d112      	bne.n	8001954 <parse_lsda_header+0x44>
 800192e:	606b      	str	r3, [r5, #4]
 8001930:	f810 3b01 	ldrb.w	r3, [r0], #1
 8001934:	752b      	strb	r3, [r5, #20]
 8001936:	2bff      	cmp	r3, #255	; 0xff
 8001938:	d116      	bne.n	8001968 <parse_lsda_header+0x58>
 800193a:	2300      	movs	r3, #0
 800193c:	60eb      	str	r3, [r5, #12]
 800193e:	a901      	add	r1, sp, #4
 8001940:	f810 3b01 	ldrb.w	r3, [r0], #1
 8001944:	756b      	strb	r3, [r5, #21]
 8001946:	f7ff ff3d 	bl	80017c4 <read_uleb128>
 800194a:	9b01      	ldr	r3, [sp, #4]
 800194c:	4403      	add	r3, r0
 800194e:	612b      	str	r3, [r5, #16]
 8001950:	b002      	add	sp, #8
 8001952:	bd70      	pop	{r4, r5, r6, pc}
 8001954:	4602      	mov	r2, r0
 8001956:	1d2b      	adds	r3, r5, #4
 8001958:	4630      	mov	r0, r6
 800195a:	f7ff ffc9 	bl	80018f0 <read_encoded_value>
 800195e:	f810 3b01 	ldrb.w	r3, [r0], #1
 8001962:	752b      	strb	r3, [r5, #20]
 8001964:	2bff      	cmp	r3, #255	; 0xff
 8001966:	d0e8      	beq.n	800193a <parse_lsda_header+0x2a>
 8001968:	a901      	add	r1, sp, #4
 800196a:	f7ff ff2b 	bl	80017c4 <read_uleb128>
 800196e:	9b01      	ldr	r3, [sp, #4]
 8001970:	4403      	add	r3, r0
 8001972:	60eb      	str	r3, [r5, #12]
 8001974:	e7e4      	b.n	8001940 <parse_lsda_header+0x30>
 8001976:	4603      	mov	r3, r0
 8001978:	e7d3      	b.n	8001922 <parse_lsda_header+0x12>
 800197a:	bf00      	nop

0800197c <_Unwind_SetGR>:
 800197c:	b510      	push	{r4, lr}
 800197e:	b084      	sub	sp, #16
 8001980:	2300      	movs	r3, #0
 8001982:	ac03      	add	r4, sp, #12
 8001984:	9203      	str	r2, [sp, #12]
 8001986:	9400      	str	r4, [sp, #0]
 8001988:	460a      	mov	r2, r1
 800198a:	4619      	mov	r1, r3
 800198c:	f7ff f9ae 	bl	8000cec <_Unwind_VRS_Set>
 8001990:	b004      	add	sp, #16
 8001992:	bd10      	pop	{r4, pc}

08001994 <_Unwind_GetGR.constprop.0>:
 8001994:	b500      	push	{lr}
 8001996:	b085      	sub	sp, #20
 8001998:	aa03      	add	r2, sp, #12
 800199a:	2300      	movs	r3, #0
 800199c:	9200      	str	r2, [sp, #0]
 800199e:	4619      	mov	r1, r3
 80019a0:	220f      	movs	r2, #15
 80019a2:	f7ff f97f 	bl	8000ca4 <_Unwind_VRS_Get>
 80019a6:	9803      	ldr	r0, [sp, #12]
 80019a8:	b005      	add	sp, #20
 80019aa:	f85d fb04 	ldr.w	pc, [sp], #4
 80019ae:	bf00      	nop

080019b0 <__gcc_personality_v0>:
 80019b0:	b570      	push	{r4, r5, r6, lr}
 80019b2:	f000 0003 	and.w	r0, r0, #3
 80019b6:	2801      	cmp	r0, #1
 80019b8:	b08c      	sub	sp, #48	; 0x30
 80019ba:	460d      	mov	r5, r1
 80019bc:	4614      	mov	r4, r2
 80019be:	d00a      	beq.n	80019d6 <__gcc_personality_v0+0x26>
 80019c0:	4621      	mov	r1, r4
 80019c2:	4628      	mov	r0, r5
 80019c4:	f7ff fed8 	bl	8001778 <__gnu_unwind_frame>
 80019c8:	b910      	cbnz	r0, 80019d0 <__gcc_personality_v0+0x20>
 80019ca:	2008      	movs	r0, #8
 80019cc:	b00c      	add	sp, #48	; 0x30
 80019ce:	bd70      	pop	{r4, r5, r6, pc}
 80019d0:	2009      	movs	r0, #9
 80019d2:	b00c      	add	sp, #48	; 0x30
 80019d4:	bd70      	pop	{r4, r5, r6, pc}
 80019d6:	460a      	mov	r2, r1
 80019d8:	4620      	mov	r0, r4
 80019da:	210c      	movs	r1, #12
 80019dc:	f7ff ffce 	bl	800197c <_Unwind_SetGR>
 80019e0:	4620      	mov	r0, r4
 80019e2:	f7ff fee5 	bl	80017b0 <_Unwind_GetLanguageSpecificData>
 80019e6:	4601      	mov	r1, r0
 80019e8:	2800      	cmp	r0, #0
 80019ea:	d0e9      	beq.n	80019c0 <__gcc_personality_v0+0x10>
 80019ec:	aa06      	add	r2, sp, #24
 80019ee:	4620      	mov	r0, r4
 80019f0:	f7ff ff8e 	bl	8001910 <parse_lsda_header>
 80019f4:	4602      	mov	r2, r0
 80019f6:	4620      	mov	r0, r4
 80019f8:	9201      	str	r2, [sp, #4]
 80019fa:	f7ff ffcb 	bl	8001994 <_Unwind_GetGR.constprop.0>
 80019fe:	9b0a      	ldr	r3, [sp, #40]	; 0x28
 8001a00:	9a01      	ldr	r2, [sp, #4]
 8001a02:	f020 0601 	bic.w	r6, r0, #1
 8001a06:	429a      	cmp	r2, r3
 8001a08:	f106 36ff 	add.w	r6, r6, #4294967295	; 0xffffffff
 8001a0c:	d303      	bcc.n	8001a16 <__gcc_personality_v0+0x66>
 8001a0e:	e7d7      	b.n	80019c0 <__gcc_personality_v0+0x10>
 8001a10:	9b0a      	ldr	r3, [sp, #40]	; 0x28
 8001a12:	4283      	cmp	r3, r0
 8001a14:	d9d4      	bls.n	80019c0 <__gcc_personality_v0+0x10>
 8001a16:	f89d 102d 	ldrb.w	r1, [sp, #45]	; 0x2d
 8001a1a:	ab02      	add	r3, sp, #8
 8001a1c:	2000      	movs	r0, #0
 8001a1e:	f7ff ff67 	bl	80018f0 <read_encoded_value>
 8001a22:	f89d 102d 	ldrb.w	r1, [sp, #45]	; 0x2d
 8001a26:	4602      	mov	r2, r0
 8001a28:	ab03      	add	r3, sp, #12
 8001a2a:	2000      	movs	r0, #0
 8001a2c:	f7ff ff60 	bl	80018f0 <read_encoded_value>
 8001a30:	ab04      	add	r3, sp, #16
 8001a32:	4602      	mov	r2, r0
 8001a34:	f89d 102d 	ldrb.w	r1, [sp, #45]	; 0x2d
 8001a38:	2000      	movs	r0, #0
 8001a3a:	f7ff ff59 	bl	80018f0 <read_encoded_value>
 8001a3e:	a905      	add	r1, sp, #20
 8001a40:	f7ff fec0 	bl	80017c4 <read_uleb128>
 8001a44:	9a02      	ldr	r2, [sp, #8]
 8001a46:	9b06      	ldr	r3, [sp, #24]
 8001a48:	4413      	add	r3, r2
 8001a4a:	42b3      	cmp	r3, r6
 8001a4c:	4602      	mov	r2, r0
 8001a4e:	d8b7      	bhi.n	80019c0 <__gcc_personality_v0+0x10>
 8001a50:	9903      	ldr	r1, [sp, #12]
 8001a52:	440b      	add	r3, r1
 8001a54:	42b3      	cmp	r3, r6
 8001a56:	d9db      	bls.n	8001a10 <__gcc_personality_v0+0x60>
 8001a58:	9b04      	ldr	r3, [sp, #16]
 8001a5a:	2b00      	cmp	r3, #0
 8001a5c:	d0b0      	beq.n	80019c0 <__gcc_personality_v0+0x10>
 8001a5e:	9e07      	ldr	r6, [sp, #28]
 8001a60:	199e      	adds	r6, r3, r6
 8001a62:	d0ad      	beq.n	80019c0 <__gcc_personality_v0+0x10>
 8001a64:	462a      	mov	r2, r5
 8001a66:	2100      	movs	r1, #0
 8001a68:	4620      	mov	r0, r4
 8001a6a:	f7ff ff87 	bl	800197c <_Unwind_SetGR>
 8001a6e:	2200      	movs	r2, #0
 8001a70:	2101      	movs	r1, #1
 8001a72:	4620      	mov	r0, r4
 8001a74:	f7ff ff82 	bl	800197c <_Unwind_SetGR>
 8001a78:	4620      	mov	r0, r4
 8001a7a:	f7ff ff8b 	bl	8001994 <_Unwind_GetGR.constprop.0>
 8001a7e:	f000 0201 	and.w	r2, r0, #1
 8001a82:	4332      	orrs	r2, r6
 8001a84:	4620      	mov	r0, r4
 8001a86:	210f      	movs	r1, #15
 8001a88:	f7ff ff78 	bl	800197c <_Unwind_SetGR>
 8001a8c:	2007      	movs	r0, #7
 8001a8e:	e79d      	b.n	80019cc <__gcc_personality_v0+0x1c>

08001a90 <abort>:
 8001a90:	b508      	push	{r3, lr}
 8001a92:	2006      	movs	r0, #6
 8001a94:	f000 f97a 	bl	8001d8c <raise>
 8001a98:	2001      	movs	r0, #1
 8001a9a:	f000 fddf 	bl	800265c <_exit>
 8001a9e:	bf00      	nop

08001aa0 <memcpy>:
 8001aa0:	4684      	mov	ip, r0
 8001aa2:	ea41 0300 	orr.w	r3, r1, r0
 8001aa6:	f013 0303 	ands.w	r3, r3, #3
 8001aaa:	d16d      	bne.n	8001b88 <memcpy+0xe8>
 8001aac:	3a40      	subs	r2, #64	; 0x40
 8001aae:	d341      	bcc.n	8001b34 <memcpy+0x94>
 8001ab0:	f851 3b04 	ldr.w	r3, [r1], #4
 8001ab4:	f840 3b04 	str.w	r3, [r0], #4
 8001ab8:	f851 3b04 	ldr.w	r3, [r1], #4
 8001abc:	f840 3b04 	str.w	r3, [r0], #4
 8001ac0:	f851 3b04 	ldr.w	r3, [r1], #4
 8001ac4:	f840 3b04 	str.w	r3, [r0], #4
 8001ac8:	f851 3b04 	ldr.w	r3, [r1], #4
 8001acc:	f840 3b04 	str.w	r3, [r0], #4
 8001ad0:	f851 3b04 	ldr.w	r3, [r1], #4
 8001ad4:	f840 3b04 	str.w	r3, [r0], #4
 8001ad8:	f851 3b04 	ldr.w	r3, [r1], #4
 8001adc:	f840 3b04 	str.w	r3, [r0], #4
 8001ae0:	f851 3b04 	ldr.w	r3, [r1], #4
 8001ae4:	f840 3b04 	str.w	r3, [r0], #4
 8001ae8:	f851 3b04 	ldr.w	r3, [r1], #4
 8001aec:	f840 3b04 	str.w	r3, [r0], #4
 8001af0:	f851 3b04 	ldr.w	r3, [r1], #4
 8001af4:	f840 3b04 	str.w	r3, [r0], #4
 8001af8:	f851 3b04 	ldr.w	r3, [r1], #4
 8001afc:	f840 3b04 	str.w	r3, [r0], #4
 8001b00:	f851 3b04 	ldr.w	r3, [r1], #4
 8001b04:	f840 3b04 	str.w	r3, [r0], #4
 8001b08:	f851 3b04 	ldr.w	r3, [r1], #4
 8001b0c:	f840 3b04 	str.w	r3, [r0], #4
 8001b10:	f851 3b04 	ldr.w	r3, [r1], #4
 8001b14:	f840 3b04 	str.w	r3, [r0], #4
 8001b18:	f851 3b04 	ldr.w	r3, [r1], #4
 8001b1c:	f840 3b04 	str.w	r3, [r0], #4
 8001b20:	f851 3b04 	ldr.w	r3, [r1], #4
 8001b24:	f840 3b04 	str.w	r3, [r0], #4
 8001b28:	f851 3b04 	ldr.w	r3, [r1], #4
 8001b2c:	f840 3b04 	str.w	r3, [r0], #4
 8001b30:	3a40      	subs	r2, #64	; 0x40
 8001b32:	d2bd      	bcs.n	8001ab0 <memcpy+0x10>
 8001b34:	3230      	adds	r2, #48	; 0x30
 8001b36:	d311      	bcc.n	8001b5c <memcpy+0xbc>
 8001b38:	f851 3b04 	ldr.w	r3, [r1], #4
 8001b3c:	f840 3b04 	str.w	r3, [r0], #4
 8001b40:	f851 3b04 	ldr.w	r3, [r1], #4
 8001b44:	f840 3b04 	str.w	r3, [r0], #4
 8001b48:	f851 3b04 	ldr.w	r3, [r1], #4
 8001b4c:	f840 3b04 	str.w	r3, [r0], #4
 8001b50:	f851 3b04 	ldr.w	r3, [r1], #4
 8001b54:	f840 3b04 	str.w	r3, [r0], #4
 8001b58:	3a10      	subs	r2, #16
 8001b5a:	d2ed      	bcs.n	8001b38 <memcpy+0x98>
 8001b5c:	320c      	adds	r2, #12
 8001b5e:	d305      	bcc.n	8001b6c <memcpy+0xcc>
 8001b60:	f851 3b04 	ldr.w	r3, [r1], #4
 8001b64:	f840 3b04 	str.w	r3, [r0], #4
 8001b68:	3a04      	subs	r2, #4
 8001b6a:	d2f9      	bcs.n	8001b60 <memcpy+0xc0>
 8001b6c:	3204      	adds	r2, #4
 8001b6e:	d008      	beq.n	8001b82 <memcpy+0xe2>
 8001b70:	07d2      	lsls	r2, r2, #31
 8001b72:	bf1c      	itt	ne
 8001b74:	f811 3b01 	ldrbne.w	r3, [r1], #1
 8001b78:	f800 3b01 	strbne.w	r3, [r0], #1
 8001b7c:	d301      	bcc.n	8001b82 <memcpy+0xe2>
 8001b7e:	880b      	ldrh	r3, [r1, #0]
 8001b80:	8003      	strh	r3, [r0, #0]
 8001b82:	4660      	mov	r0, ip
 8001b84:	4770      	bx	lr
 8001b86:	bf00      	nop
 8001b88:	2a08      	cmp	r2, #8
 8001b8a:	d313      	bcc.n	8001bb4 <memcpy+0x114>
 8001b8c:	078b      	lsls	r3, r1, #30
 8001b8e:	d08d      	beq.n	8001aac <memcpy+0xc>
 8001b90:	f010 0303 	ands.w	r3, r0, #3
 8001b94:	d08a      	beq.n	8001aac <memcpy+0xc>
 8001b96:	f1c3 0304 	rsb	r3, r3, #4
 8001b9a:	1ad2      	subs	r2, r2, r3
 8001b9c:	07db      	lsls	r3, r3, #31
 8001b9e:	bf1c      	itt	ne
 8001ba0:	f811 3b01 	ldrbne.w	r3, [r1], #1
 8001ba4:	f800 3b01 	strbne.w	r3, [r0], #1
 8001ba8:	d380      	bcc.n	8001aac <memcpy+0xc>
 8001baa:	f831 3b02 	ldrh.w	r3, [r1], #2
 8001bae:	f820 3b02 	strh.w	r3, [r0], #2
 8001bb2:	e77b      	b.n	8001aac <memcpy+0xc>
 8001bb4:	3a04      	subs	r2, #4
 8001bb6:	d3d9      	bcc.n	8001b6c <memcpy+0xcc>
 8001bb8:	3a01      	subs	r2, #1
 8001bba:	f811 3b01 	ldrb.w	r3, [r1], #1
 8001bbe:	f800 3b01 	strb.w	r3, [r0], #1
 8001bc2:	d2f9      	bcs.n	8001bb8 <memcpy+0x118>
 8001bc4:	780b      	ldrb	r3, [r1, #0]
 8001bc6:	7003      	strb	r3, [r0, #0]
 8001bc8:	784b      	ldrb	r3, [r1, #1]
 8001bca:	7043      	strb	r3, [r0, #1]
 8001bcc:	788b      	ldrb	r3, [r1, #2]
 8001bce:	7083      	strb	r3, [r0, #2]
 8001bd0:	4660      	mov	r0, ip
 8001bd2:	4770      	bx	lr

08001bd4 <memset>:
 8001bd4:	b4f0      	push	{r4, r5, r6, r7}
 8001bd6:	0786      	lsls	r6, r0, #30
 8001bd8:	d046      	beq.n	8001c68 <memset+0x94>
 8001bda:	1e54      	subs	r4, r2, #1
 8001bdc:	2a00      	cmp	r2, #0
 8001bde:	d03c      	beq.n	8001c5a <memset+0x86>
 8001be0:	b2ca      	uxtb	r2, r1
 8001be2:	4603      	mov	r3, r0
 8001be4:	e002      	b.n	8001bec <memset+0x18>
 8001be6:	f114 34ff 	adds.w	r4, r4, #4294967295	; 0xffffffff
 8001bea:	d336      	bcc.n	8001c5a <memset+0x86>
 8001bec:	f803 2b01 	strb.w	r2, [r3], #1
 8001bf0:	079d      	lsls	r5, r3, #30
 8001bf2:	d1f8      	bne.n	8001be6 <memset+0x12>
 8001bf4:	2c03      	cmp	r4, #3
 8001bf6:	d929      	bls.n	8001c4c <memset+0x78>
 8001bf8:	b2cd      	uxtb	r5, r1
 8001bfa:	ea45 2505 	orr.w	r5, r5, r5, lsl #8
 8001bfe:	2c0f      	cmp	r4, #15
 8001c00:	ea45 4505 	orr.w	r5, r5, r5, lsl #16
 8001c04:	d933      	bls.n	8001c6e <memset+0x9a>
 8001c06:	f1a4 0610 	sub.w	r6, r4, #16
 8001c0a:	0936      	lsrs	r6, r6, #4
 8001c0c:	f103 0720 	add.w	r7, r3, #32
 8001c10:	eb07 1706 	add.w	r7, r7, r6, lsl #4
 8001c14:	f103 0210 	add.w	r2, r3, #16
 8001c18:	e942 5504 	strd	r5, r5, [r2, #-16]
 8001c1c:	e942 5502 	strd	r5, r5, [r2, #-8]
 8001c20:	3210      	adds	r2, #16
 8001c22:	42ba      	cmp	r2, r7
 8001c24:	d1f8      	bne.n	8001c18 <memset+0x44>
 8001c26:	1c72      	adds	r2, r6, #1
 8001c28:	f014 0f0c 	tst.w	r4, #12
 8001c2c:	eb03 1202 	add.w	r2, r3, r2, lsl #4
 8001c30:	f004 060f 	and.w	r6, r4, #15
 8001c34:	d013      	beq.n	8001c5e <memset+0x8a>
 8001c36:	1f33      	subs	r3, r6, #4
 8001c38:	f023 0303 	bic.w	r3, r3, #3
 8001c3c:	3304      	adds	r3, #4
 8001c3e:	4413      	add	r3, r2
 8001c40:	f842 5b04 	str.w	r5, [r2], #4
 8001c44:	4293      	cmp	r3, r2
 8001c46:	d1fb      	bne.n	8001c40 <memset+0x6c>
 8001c48:	f006 0403 	and.w	r4, r6, #3
 8001c4c:	b12c      	cbz	r4, 8001c5a <memset+0x86>
 8001c4e:	b2c9      	uxtb	r1, r1
 8001c50:	441c      	add	r4, r3
 8001c52:	f803 1b01 	strb.w	r1, [r3], #1
 8001c56:	429c      	cmp	r4, r3
 8001c58:	d1fb      	bne.n	8001c52 <memset+0x7e>
 8001c5a:	bcf0      	pop	{r4, r5, r6, r7}
 8001c5c:	4770      	bx	lr
 8001c5e:	4634      	mov	r4, r6
 8001c60:	4613      	mov	r3, r2
 8001c62:	2c00      	cmp	r4, #0
 8001c64:	d1f3      	bne.n	8001c4e <memset+0x7a>
 8001c66:	e7f8      	b.n	8001c5a <memset+0x86>
 8001c68:	4614      	mov	r4, r2
 8001c6a:	4603      	mov	r3, r0
 8001c6c:	e7c2      	b.n	8001bf4 <memset+0x20>
 8001c6e:	461a      	mov	r2, r3
 8001c70:	4626      	mov	r6, r4
 8001c72:	e7e0      	b.n	8001c36 <memset+0x62>

08001c74 <_init_signal_r.part.0>:
 8001c74:	b510      	push	{r4, lr}
 8001c76:	2180      	movs	r1, #128	; 0x80
 8001c78:	4604      	mov	r4, r0
 8001c7a:	f000 f8bf 	bl	8001dfc <_malloc_r>
 8001c7e:	f8c4 02dc 	str.w	r0, [r4, #732]	; 0x2dc
 8001c82:	b140      	cbz	r0, 8001c96 <_init_signal_r.part.0+0x22>
 8001c84:	1f03      	subs	r3, r0, #4
 8001c86:	2200      	movs	r2, #0
 8001c88:	307c      	adds	r0, #124	; 0x7c
 8001c8a:	f843 2f04 	str.w	r2, [r3, #4]!
 8001c8e:	4283      	cmp	r3, r0
 8001c90:	d1fb      	bne.n	8001c8a <_init_signal_r.part.0+0x16>
 8001c92:	2000      	movs	r0, #0
 8001c94:	bd10      	pop	{r4, pc}
 8001c96:	f04f 30ff 	mov.w	r0, #4294967295	; 0xffffffff
 8001c9a:	bd10      	pop	{r4, pc}

08001c9c <_init_signal_r>:
 8001c9c:	f8d0 32dc 	ldr.w	r3, [r0, #732]	; 0x2dc
 8001ca0:	b10b      	cbz	r3, 8001ca6 <_init_signal_r+0xa>
 8001ca2:	2000      	movs	r0, #0
 8001ca4:	4770      	bx	lr
 8001ca6:	e7e5      	b.n	8001c74 <_init_signal_r.part.0>

08001ca8 <_signal_r>:
 8001ca8:	291f      	cmp	r1, #31
 8001caa:	b570      	push	{r4, r5, r6, lr}
 8001cac:	4605      	mov	r5, r0
 8001cae:	d809      	bhi.n	8001cc4 <_signal_r+0x1c>
 8001cb0:	f8d0 32dc 	ldr.w	r3, [r0, #732]	; 0x2dc
 8001cb4:	4616      	mov	r6, r2
 8001cb6:	460c      	mov	r4, r1
 8001cb8:	b14b      	cbz	r3, 8001cce <_signal_r+0x26>
 8001cba:	f853 0024 	ldr.w	r0, [r3, r4, lsl #2]
 8001cbe:	f843 6024 	str.w	r6, [r3, r4, lsl #2]
 8001cc2:	bd70      	pop	{r4, r5, r6, pc}
 8001cc4:	2216      	movs	r2, #22
 8001cc6:	6002      	str	r2, [r0, #0]
 8001cc8:	f04f 30ff 	mov.w	r0, #4294967295	; 0xffffffff
 8001ccc:	bd70      	pop	{r4, r5, r6, pc}
 8001cce:	f7ff ffd1 	bl	8001c74 <_init_signal_r.part.0>
 8001cd2:	b910      	cbnz	r0, 8001cda <_signal_r+0x32>
 8001cd4:	f8d5 32dc 	ldr.w	r3, [r5, #732]	; 0x2dc
 8001cd8:	e7ef      	b.n	8001cba <_signal_r+0x12>
 8001cda:	f04f 30ff 	mov.w	r0, #4294967295	; 0xffffffff
 8001cde:	bd70      	pop	{r4, r5, r6, pc}

08001ce0 <_raise_r>:
 8001ce0:	291f      	cmp	r1, #31
 8001ce2:	b538      	push	{r3, r4, r5, lr}
 8001ce4:	d822      	bhi.n	8001d2c <_raise_r+0x4c>
 8001ce6:	f8d0 22dc 	ldr.w	r2, [r0, #732]	; 0x2dc
 8001cea:	4605      	mov	r5, r0
 8001cec:	460c      	mov	r4, r1
 8001cee:	b16a      	cbz	r2, 8001d0c <_raise_r+0x2c>
 8001cf0:	f852 3021 	ldr.w	r3, [r2, r1, lsl #2]
 8001cf4:	b153      	cbz	r3, 8001d0c <_raise_r+0x2c>
 8001cf6:	2b01      	cmp	r3, #1
 8001cf8:	d016      	beq.n	8001d28 <_raise_r+0x48>
 8001cfa:	1c59      	adds	r1, r3, #1
 8001cfc:	d010      	beq.n	8001d20 <_raise_r+0x40>
 8001cfe:	2500      	movs	r5, #0
 8001d00:	4620      	mov	r0, r4
 8001d02:	f842 5024 	str.w	r5, [r2, r4, lsl #2]
 8001d06:	4798      	blx	r3
 8001d08:	4628      	mov	r0, r5
 8001d0a:	bd38      	pop	{r3, r4, r5, pc}
 8001d0c:	4628      	mov	r0, r5
 8001d0e:	f000 f873 	bl	8001df8 <_getpid_r>
 8001d12:	4622      	mov	r2, r4
 8001d14:	4601      	mov	r1, r0
 8001d16:	4628      	mov	r0, r5
 8001d18:	e8bd 4038 	ldmia.w	sp!, {r3, r4, r5, lr}
 8001d1c:	f000 b858 	b.w	8001dd0 <_kill_r>
 8001d20:	2316      	movs	r3, #22
 8001d22:	6003      	str	r3, [r0, #0]
 8001d24:	2001      	movs	r0, #1
 8001d26:	bd38      	pop	{r3, r4, r5, pc}
 8001d28:	2000      	movs	r0, #0
 8001d2a:	bd38      	pop	{r3, r4, r5, pc}
 8001d2c:	2316      	movs	r3, #22
 8001d2e:	6003      	str	r3, [r0, #0]
 8001d30:	f04f 30ff 	mov.w	r0, #4294967295	; 0xffffffff
 8001d34:	bd38      	pop	{r3, r4, r5, pc}
 8001d36:	bf00      	nop

08001d38 <__sigtramp_r>:
 8001d38:	291f      	cmp	r1, #31
 8001d3a:	d823      	bhi.n	8001d84 <__sigtramp_r+0x4c>
 8001d3c:	b538      	push	{r3, r4, r5, lr}
 8001d3e:	f8d0 32dc 	ldr.w	r3, [r0, #732]	; 0x2dc
 8001d42:	4605      	mov	r5, r0
 8001d44:	460c      	mov	r4, r1
 8001d46:	b183      	cbz	r3, 8001d6a <__sigtramp_r+0x32>
 8001d48:	f853 2024 	ldr.w	r2, [r3, r4, lsl #2]
 8001d4c:	eb03 0384 	add.w	r3, r3, r4, lsl #2
 8001d50:	b14a      	cbz	r2, 8001d66 <__sigtramp_r+0x2e>
 8001d52:	1c51      	adds	r1, r2, #1
 8001d54:	d011      	beq.n	8001d7a <__sigtramp_r+0x42>
 8001d56:	2a01      	cmp	r2, #1
 8001d58:	d00d      	beq.n	8001d76 <__sigtramp_r+0x3e>
 8001d5a:	2500      	movs	r5, #0
 8001d5c:	4620      	mov	r0, r4
 8001d5e:	601d      	str	r5, [r3, #0]
 8001d60:	4790      	blx	r2
 8001d62:	4628      	mov	r0, r5
 8001d64:	bd38      	pop	{r3, r4, r5, pc}
 8001d66:	2001      	movs	r0, #1
 8001d68:	bd38      	pop	{r3, r4, r5, pc}
 8001d6a:	f7ff ff83 	bl	8001c74 <_init_signal_r.part.0>
 8001d6e:	b930      	cbnz	r0, 8001d7e <__sigtramp_r+0x46>
 8001d70:	f8d5 32dc 	ldr.w	r3, [r5, #732]	; 0x2dc
 8001d74:	e7e8      	b.n	8001d48 <__sigtramp_r+0x10>
 8001d76:	2003      	movs	r0, #3
 8001d78:	bd38      	pop	{r3, r4, r5, pc}
 8001d7a:	2002      	movs	r0, #2
 8001d7c:	bd38      	pop	{r3, r4, r5, pc}
 8001d7e:	f04f 30ff 	mov.w	r0, #4294967295	; 0xffffffff
 8001d82:	bd38      	pop	{r3, r4, r5, pc}
 8001d84:	f04f 30ff 	mov.w	r0, #4294967295	; 0xffffffff
 8001d88:	4770      	bx	lr
 8001d8a:	bf00      	nop

08001d8c <raise>:
 8001d8c:	4b02      	ldr	r3, [pc, #8]	; (8001d98 <raise+0xc>)
 8001d8e:	4601      	mov	r1, r0
 8001d90:	6818      	ldr	r0, [r3, #0]
 8001d92:	f7ff bfa5 	b.w	8001ce0 <_raise_r>
 8001d96:	bf00      	nop
 8001d98:	20000800 	.word	0x20000800

08001d9c <signal>:
 8001d9c:	4b02      	ldr	r3, [pc, #8]	; (8001da8 <signal+0xc>)
 8001d9e:	460a      	mov	r2, r1
 8001da0:	4601      	mov	r1, r0
 8001da2:	6818      	ldr	r0, [r3, #0]
 8001da4:	f7ff bf80 	b.w	8001ca8 <_signal_r>
 8001da8:	20000800 	.word	0x20000800

08001dac <_init_signal>:
 8001dac:	4b03      	ldr	r3, [pc, #12]	; (8001dbc <_init_signal+0x10>)
 8001dae:	6818      	ldr	r0, [r3, #0]
 8001db0:	f8d0 32dc 	ldr.w	r3, [r0, #732]	; 0x2dc
 8001db4:	b10b      	cbz	r3, 8001dba <_init_signal+0xe>
 8001db6:	2000      	movs	r0, #0
 8001db8:	4770      	bx	lr
 8001dba:	e75b      	b.n	8001c74 <_init_signal_r.part.0>
 8001dbc:	20000800 	.word	0x20000800

08001dc0 <__sigtramp>:
 8001dc0:	4b02      	ldr	r3, [pc, #8]	; (8001dcc <__sigtramp+0xc>)
 8001dc2:	4601      	mov	r1, r0
 8001dc4:	6818      	ldr	r0, [r3, #0]
 8001dc6:	f7ff bfb7 	b.w	8001d38 <__sigtramp_r>
 8001dca:	bf00      	nop
 8001dcc:	20000800 	.word	0x20000800

08001dd0 <_kill_r>:
 8001dd0:	b538      	push	{r3, r4, r5, lr}
 8001dd2:	460b      	mov	r3, r1
 8001dd4:	4c07      	ldr	r4, [pc, #28]	; (8001df4 <_kill_r+0x24>)
 8001dd6:	4605      	mov	r5, r0
 8001dd8:	4611      	mov	r1, r2
 8001dda:	4618      	mov	r0, r3
 8001ddc:	2300      	movs	r3, #0
 8001dde:	6023      	str	r3, [r4, #0]
 8001de0:	f000 fc26 	bl	8002630 <_kill>
 8001de4:	1c43      	adds	r3, r0, #1
 8001de6:	d000      	beq.n	8001dea <_kill_r+0x1a>
 8001de8:	bd38      	pop	{r3, r4, r5, pc}
 8001dea:	6823      	ldr	r3, [r4, #0]
 8001dec:	2b00      	cmp	r3, #0
 8001dee:	d0fb      	beq.n	8001de8 <_kill_r+0x18>
 8001df0:	602b      	str	r3, [r5, #0]
 8001df2:	bd38      	pop	{r3, r4, r5, pc}
 8001df4:	200014d8 	.word	0x200014d8

08001df8 <_getpid_r>:
 8001df8:	f000 bc12 	b.w	8002620 <_getpid>

08001dfc <_malloc_r>:
 8001dfc:	e92d 4ff0 	stmdb	sp!, {r4, r5, r6, r7, r8, r9, sl, fp, lr}
 8001e00:	f101 050b 	add.w	r5, r1, #11
 8001e04:	2d16      	cmp	r5, #22
 8001e06:	b083      	sub	sp, #12
 8001e08:	4606      	mov	r6, r0
 8001e0a:	d823      	bhi.n	8001e54 <_malloc_r+0x58>
 8001e0c:	2910      	cmp	r1, #16
 8001e0e:	f200 80b9 	bhi.w	8001f84 <_malloc_r+0x188>
 8001e12:	f000 faa5 	bl	8002360 <__malloc_lock>
 8001e16:	2510      	movs	r5, #16
 8001e18:	2318      	movs	r3, #24
 8001e1a:	2002      	movs	r0, #2
 8001e1c:	4fcd      	ldr	r7, [pc, #820]	; (8002154 <_malloc_r+0x358>)
 8001e1e:	443b      	add	r3, r7
 8001e20:	f1a3 0208 	sub.w	r2, r3, #8
 8001e24:	685c      	ldr	r4, [r3, #4]
 8001e26:	4294      	cmp	r4, r2
 8001e28:	f000 80b9 	beq.w	8001f9e <_malloc_r+0x1a2>
 8001e2c:	6863      	ldr	r3, [r4, #4]
 8001e2e:	f023 0303 	bic.w	r3, r3, #3
 8001e32:	4423      	add	r3, r4
 8001e34:	e9d4 5102 	ldrd	r5, r1, [r4, #8]
 8001e38:	685a      	ldr	r2, [r3, #4]
 8001e3a:	60e9      	str	r1, [r5, #12]
 8001e3c:	f042 0201 	orr.w	r2, r2, #1
 8001e40:	4630      	mov	r0, r6
 8001e42:	608d      	str	r5, [r1, #8]
 8001e44:	605a      	str	r2, [r3, #4]
 8001e46:	f000 fa8d 	bl	8002364 <__malloc_unlock>
 8001e4a:	3408      	adds	r4, #8
 8001e4c:	4620      	mov	r0, r4
 8001e4e:	b003      	add	sp, #12
 8001e50:	e8bd 8ff0 	ldmia.w	sp!, {r4, r5, r6, r7, r8, r9, sl, fp, pc}
 8001e54:	f035 0507 	bics.w	r5, r5, #7
 8001e58:	f100 8094 	bmi.w	8001f84 <_malloc_r+0x188>
 8001e5c:	42a9      	cmp	r1, r5
 8001e5e:	f200 8091 	bhi.w	8001f84 <_malloc_r+0x188>
 8001e62:	f000 fa7d 	bl	8002360 <__malloc_lock>
 8001e66:	f5b5 7ffc 	cmp.w	r5, #504	; 0x1f8
 8001e6a:	f0c0 819d 	bcc.w	80021a8 <_malloc_r+0x3ac>
 8001e6e:	0a6b      	lsrs	r3, r5, #9
 8001e70:	f000 808f 	beq.w	8001f92 <_malloc_r+0x196>
 8001e74:	2b04      	cmp	r3, #4
 8001e76:	f200 8173 	bhi.w	8002160 <_malloc_r+0x364>
 8001e7a:	09ab      	lsrs	r3, r5, #6
 8001e7c:	f103 0039 	add.w	r0, r3, #57	; 0x39
 8001e80:	f103 0c38 	add.w	ip, r3, #56	; 0x38
 8001e84:	00c3      	lsls	r3, r0, #3
 8001e86:	4fb3      	ldr	r7, [pc, #716]	; (8002154 <_malloc_r+0x358>)
 8001e88:	443b      	add	r3, r7
 8001e8a:	f1a3 0108 	sub.w	r1, r3, #8
 8001e8e:	685c      	ldr	r4, [r3, #4]
 8001e90:	42a1      	cmp	r1, r4
 8001e92:	d106      	bne.n	8001ea2 <_malloc_r+0xa6>
 8001e94:	e00c      	b.n	8001eb0 <_malloc_r+0xb4>
 8001e96:	2a00      	cmp	r2, #0
 8001e98:	f280 812b 	bge.w	80020f2 <_malloc_r+0x2f6>
 8001e9c:	68e4      	ldr	r4, [r4, #12]
 8001e9e:	42a1      	cmp	r1, r4
 8001ea0:	d006      	beq.n	8001eb0 <_malloc_r+0xb4>
 8001ea2:	6863      	ldr	r3, [r4, #4]
 8001ea4:	f023 0303 	bic.w	r3, r3, #3
 8001ea8:	1b5a      	subs	r2, r3, r5
 8001eaa:	2a0f      	cmp	r2, #15
 8001eac:	ddf3      	ble.n	8001e96 <_malloc_r+0x9a>
 8001eae:	4660      	mov	r0, ip
 8001eb0:	693c      	ldr	r4, [r7, #16]
 8001eb2:	f8df c2a4 	ldr.w	ip, [pc, #676]	; 8002158 <_malloc_r+0x35c>
 8001eb6:	4564      	cmp	r4, ip
 8001eb8:	d07c      	beq.n	8001fb4 <_malloc_r+0x1b8>
 8001eba:	6863      	ldr	r3, [r4, #4]
 8001ebc:	f023 0303 	bic.w	r3, r3, #3
 8001ec0:	1b5a      	subs	r2, r3, r5
 8001ec2:	2a0f      	cmp	r2, #15
 8001ec4:	f300 817e 	bgt.w	80021c4 <_malloc_r+0x3c8>
 8001ec8:	2a00      	cmp	r2, #0
 8001eca:	e9c7 cc04 	strd	ip, ip, [r7, #16]
 8001ece:	f280 816f 	bge.w	80021b0 <_malloc_r+0x3b4>
 8001ed2:	f5b3 7f00 	cmp.w	r3, #512	; 0x200
 8001ed6:	f080 811a 	bcs.w	800210e <_malloc_r+0x312>
 8001eda:	08db      	lsrs	r3, r3, #3
 8001edc:	1c59      	adds	r1, r3, #1
 8001ede:	687a      	ldr	r2, [r7, #4]
 8001ee0:	f857 8031 	ldr.w	r8, [r7, r1, lsl #3]
 8001ee4:	f8c4 8008 	str.w	r8, [r4, #8]
 8001ee8:	f04f 0e01 	mov.w	lr, #1
 8001eec:	109b      	asrs	r3, r3, #2
 8001eee:	fa0e f303 	lsl.w	r3, lr, r3
 8001ef2:	eb07 0ec1 	add.w	lr, r7, r1, lsl #3
 8001ef6:	4313      	orrs	r3, r2
 8001ef8:	f1ae 0208 	sub.w	r2, lr, #8
 8001efc:	60e2      	str	r2, [r4, #12]
 8001efe:	607b      	str	r3, [r7, #4]
 8001f00:	f847 4031 	str.w	r4, [r7, r1, lsl #3]
 8001f04:	f8c8 400c 	str.w	r4, [r8, #12]
 8001f08:	1082      	asrs	r2, r0, #2
 8001f0a:	2401      	movs	r4, #1
 8001f0c:	4094      	lsls	r4, r2
 8001f0e:	429c      	cmp	r4, r3
 8001f10:	d856      	bhi.n	8001fc0 <_malloc_r+0x1c4>
 8001f12:	421c      	tst	r4, r3
 8001f14:	d106      	bne.n	8001f24 <_malloc_r+0x128>
 8001f16:	f020 0003 	bic.w	r0, r0, #3
 8001f1a:	0064      	lsls	r4, r4, #1
 8001f1c:	421c      	tst	r4, r3
 8001f1e:	f100 0004 	add.w	r0, r0, #4
 8001f22:	d0fa      	beq.n	8001f1a <_malloc_r+0x11e>
 8001f24:	eb07 09c0 	add.w	r9, r7, r0, lsl #3
 8001f28:	46ce      	mov	lr, r9
 8001f2a:	4680      	mov	r8, r0
 8001f2c:	f8de 300c 	ldr.w	r3, [lr, #12]
 8001f30:	459e      	cmp	lr, r3
 8001f32:	d107      	bne.n	8001f44 <_malloc_r+0x148>
 8001f34:	e120      	b.n	8002178 <_malloc_r+0x37c>
 8001f36:	2a00      	cmp	r2, #0
 8001f38:	f280 8127 	bge.w	800218a <_malloc_r+0x38e>
 8001f3c:	68db      	ldr	r3, [r3, #12]
 8001f3e:	459e      	cmp	lr, r3
 8001f40:	f000 811a 	beq.w	8002178 <_malloc_r+0x37c>
 8001f44:	6859      	ldr	r1, [r3, #4]
 8001f46:	f021 0103 	bic.w	r1, r1, #3
 8001f4a:	1b4a      	subs	r2, r1, r5
 8001f4c:	2a0f      	cmp	r2, #15
 8001f4e:	ddf2      	ble.n	8001f36 <_malloc_r+0x13a>
 8001f50:	e9d3 8e02 	ldrd	r8, lr, [r3, #8]
 8001f54:	195c      	adds	r4, r3, r5
 8001f56:	f045 0501 	orr.w	r5, r5, #1
 8001f5a:	605d      	str	r5, [r3, #4]
 8001f5c:	f042 0501 	orr.w	r5, r2, #1
 8001f60:	f8c8 e00c 	str.w	lr, [r8, #12]
 8001f64:	4630      	mov	r0, r6
 8001f66:	f8ce 8008 	str.w	r8, [lr, #8]
 8001f6a:	e9c7 4404 	strd	r4, r4, [r7, #16]
 8001f6e:	e9c4 cc02 	strd	ip, ip, [r4, #8]
 8001f72:	6065      	str	r5, [r4, #4]
 8001f74:	505a      	str	r2, [r3, r1]
 8001f76:	9300      	str	r3, [sp, #0]
 8001f78:	f000 f9f4 	bl	8002364 <__malloc_unlock>
 8001f7c:	9b00      	ldr	r3, [sp, #0]
 8001f7e:	f103 0408 	add.w	r4, r3, #8
 8001f82:	e002      	b.n	8001f8a <_malloc_r+0x18e>
 8001f84:	230c      	movs	r3, #12
 8001f86:	6033      	str	r3, [r6, #0]
 8001f88:	2400      	movs	r4, #0
 8001f8a:	4620      	mov	r0, r4
 8001f8c:	b003      	add	sp, #12
 8001f8e:	e8bd 8ff0 	ldmia.w	sp!, {r4, r5, r6, r7, r8, r9, sl, fp, pc}
 8001f92:	f44f 7300 	mov.w	r3, #512	; 0x200
 8001f96:	2040      	movs	r0, #64	; 0x40
 8001f98:	f04f 0c3f 	mov.w	ip, #63	; 0x3f
 8001f9c:	e773      	b.n	8001e86 <_malloc_r+0x8a>
 8001f9e:	68dc      	ldr	r4, [r3, #12]
 8001fa0:	42a3      	cmp	r3, r4
 8001fa2:	bf08      	it	eq
 8001fa4:	3002      	addeq	r0, #2
 8001fa6:	f47f af41 	bne.w	8001e2c <_malloc_r+0x30>
 8001faa:	693c      	ldr	r4, [r7, #16]
 8001fac:	f8df c1a8 	ldr.w	ip, [pc, #424]	; 8002158 <_malloc_r+0x35c>
 8001fb0:	4564      	cmp	r4, ip
 8001fb2:	d182      	bne.n	8001eba <_malloc_r+0xbe>
 8001fb4:	687b      	ldr	r3, [r7, #4]
 8001fb6:	1082      	asrs	r2, r0, #2
 8001fb8:	2401      	movs	r4, #1
 8001fba:	4094      	lsls	r4, r2
 8001fbc:	429c      	cmp	r4, r3
 8001fbe:	d9a8      	bls.n	8001f12 <_malloc_r+0x116>
 8001fc0:	68bc      	ldr	r4, [r7, #8]
 8001fc2:	6863      	ldr	r3, [r4, #4]
 8001fc4:	f023 0803 	bic.w	r8, r3, #3
 8001fc8:	45a8      	cmp	r8, r5
 8001fca:	d303      	bcc.n	8001fd4 <_malloc_r+0x1d8>
 8001fcc:	eba8 0305 	sub.w	r3, r8, r5
 8001fd0:	2b0f      	cmp	r3, #15
 8001fd2:	dc7e      	bgt.n	80020d2 <_malloc_r+0x2d6>
 8001fd4:	f8df 9184 	ldr.w	r9, [pc, #388]	; 800215c <_malloc_r+0x360>
 8001fd8:	f8d7 2408 	ldr.w	r2, [r7, #1032]	; 0x408
 8001fdc:	f8d9 3000 	ldr.w	r3, [r9]
 8001fe0:	3201      	adds	r2, #1
 8001fe2:	eb04 0a08 	add.w	sl, r4, r8
 8001fe6:	442b      	add	r3, r5
 8001fe8:	f000 8137 	beq.w	800225a <_malloc_r+0x45e>
 8001fec:	f503 5380 	add.w	r3, r3, #4096	; 0x1000
 8001ff0:	330f      	adds	r3, #15
 8001ff2:	f423 6b7f 	bic.w	fp, r3, #4080	; 0xff0
 8001ff6:	f02b 0b0f 	bic.w	fp, fp, #15
 8001ffa:	4659      	mov	r1, fp
 8001ffc:	4630      	mov	r0, r6
 8001ffe:	f000 f9b3 	bl	8002368 <_sbrk_r>
 8002002:	1c41      	adds	r1, r0, #1
 8002004:	4602      	mov	r2, r0
 8002006:	f000 80f7 	beq.w	80021f8 <_malloc_r+0x3fc>
 800200a:	4582      	cmp	sl, r0
 800200c:	f200 80f2 	bhi.w	80021f4 <_malloc_r+0x3f8>
 8002010:	f8d9 1004 	ldr.w	r1, [r9, #4]
 8002014:	4459      	add	r1, fp
 8002016:	f8c9 1004 	str.w	r1, [r9, #4]
 800201a:	460b      	mov	r3, r1
 800201c:	f000 8153 	beq.w	80022c6 <_malloc_r+0x4ca>
 8002020:	f8d7 1408 	ldr.w	r1, [r7, #1032]	; 0x408
 8002024:	3101      	adds	r1, #1
 8002026:	bf1b      	ittet	ne
 8002028:	eba2 0a0a 	subne.w	sl, r2, sl
 800202c:	4453      	addne	r3, sl
 800202e:	f8c7 2408 	streq.w	r2, [r7, #1032]	; 0x408
 8002032:	f8c9 3004 	strne.w	r3, [r9, #4]
 8002036:	f012 0307 	ands.w	r3, r2, #7
 800203a:	f000 811a 	beq.w	8002272 <_malloc_r+0x476>
 800203e:	f1c3 0108 	rsb	r1, r3, #8
 8002042:	440a      	add	r2, r1
 8002044:	f5c3 5180 	rsb	r1, r3, #4096	; 0x1000
 8002048:	4493      	add	fp, r2
 800204a:	3108      	adds	r1, #8
 800204c:	eba1 010b 	sub.w	r1, r1, fp
 8002050:	f3c1 0a0b 	ubfx	sl, r1, #0, #12
 8002054:	4651      	mov	r1, sl
 8002056:	4630      	mov	r0, r6
 8002058:	9301      	str	r3, [sp, #4]
 800205a:	9200      	str	r2, [sp, #0]
 800205c:	f000 f984 	bl	8002368 <_sbrk_r>
 8002060:	1c42      	adds	r2, r0, #1
 8002062:	e9dd 2300 	ldrd	r2, r3, [sp]
 8002066:	f000 8153 	beq.w	8002310 <_malloc_r+0x514>
 800206a:	1a83      	subs	r3, r0, r2
 800206c:	eb03 0b0a 	add.w	fp, r3, sl
 8002070:	f8d9 1004 	ldr.w	r1, [r9, #4]
 8002074:	60ba      	str	r2, [r7, #8]
 8002076:	f04b 0301 	orr.w	r3, fp, #1
 800207a:	4451      	add	r1, sl
 800207c:	42bc      	cmp	r4, r7
 800207e:	6053      	str	r3, [r2, #4]
 8002080:	f8c9 1004 	str.w	r1, [r9, #4]
 8002084:	f000 812b 	beq.w	80022de <_malloc_r+0x4e2>
 8002088:	f1b8 0f0f 	cmp.w	r8, #15
 800208c:	f240 8129 	bls.w	80022e2 <_malloc_r+0x4e6>
 8002090:	6863      	ldr	r3, [r4, #4]
 8002092:	f1a8 000c 	sub.w	r0, r8, #12
 8002096:	f020 0007 	bic.w	r0, r0, #7
 800209a:	f003 0301 	and.w	r3, r3, #1
 800209e:	eb04 0c00 	add.w	ip, r4, r0
 80020a2:	4303      	orrs	r3, r0
 80020a4:	f04f 0e05 	mov.w	lr, #5
 80020a8:	280f      	cmp	r0, #15
 80020aa:	6063      	str	r3, [r4, #4]
 80020ac:	e9cc ee01 	strd	lr, lr, [ip, #4]
 80020b0:	f200 8135 	bhi.w	800231e <_malloc_r+0x522>
 80020b4:	6853      	ldr	r3, [r2, #4]
 80020b6:	4614      	mov	r4, r2
 80020b8:	f8d9 202c 	ldr.w	r2, [r9, #44]	; 0x2c
 80020bc:	428a      	cmp	r2, r1
 80020be:	f8d9 2030 	ldr.w	r2, [r9, #48]	; 0x30
 80020c2:	bf38      	it	cc
 80020c4:	f8c9 102c 	strcc.w	r1, [r9, #44]	; 0x2c
 80020c8:	428a      	cmp	r2, r1
 80020ca:	bf38      	it	cc
 80020cc:	f8c9 1030 	strcc.w	r1, [r9, #48]	; 0x30
 80020d0:	e094      	b.n	80021fc <_malloc_r+0x400>
 80020d2:	1962      	adds	r2, r4, r5
 80020d4:	f043 0301 	orr.w	r3, r3, #1
 80020d8:	f045 0501 	orr.w	r5, r5, #1
 80020dc:	6065      	str	r5, [r4, #4]
 80020de:	4630      	mov	r0, r6
 80020e0:	60ba      	str	r2, [r7, #8]
 80020e2:	6053      	str	r3, [r2, #4]
 80020e4:	f000 f93e 	bl	8002364 <__malloc_unlock>
 80020e8:	3408      	adds	r4, #8
 80020ea:	4620      	mov	r0, r4
 80020ec:	b003      	add	sp, #12
 80020ee:	e8bd 8ff0 	ldmia.w	sp!, {r4, r5, r6, r7, r8, r9, sl, fp, pc}
 80020f2:	4423      	add	r3, r4
 80020f4:	68e1      	ldr	r1, [r4, #12]
 80020f6:	685a      	ldr	r2, [r3, #4]
 80020f8:	68a5      	ldr	r5, [r4, #8]
 80020fa:	f042 0201 	orr.w	r2, r2, #1
 80020fe:	60e9      	str	r1, [r5, #12]
 8002100:	4630      	mov	r0, r6
 8002102:	608d      	str	r5, [r1, #8]
 8002104:	605a      	str	r2, [r3, #4]
 8002106:	f000 f92d 	bl	8002364 <__malloc_unlock>
 800210a:	3408      	adds	r4, #8
 800210c:	e73d      	b.n	8001f8a <_malloc_r+0x18e>
 800210e:	0a5a      	lsrs	r2, r3, #9
 8002110:	2a04      	cmp	r2, #4
 8002112:	d969      	bls.n	80021e8 <_malloc_r+0x3ec>
 8002114:	2a14      	cmp	r2, #20
 8002116:	f200 80be 	bhi.w	8002296 <_malloc_r+0x49a>
 800211a:	f102 015c 	add.w	r1, r2, #92	; 0x5c
 800211e:	00c9      	lsls	r1, r1, #3
 8002120:	325b      	adds	r2, #91	; 0x5b
 8002122:	eb07 0e01 	add.w	lr, r7, r1
 8002126:	5879      	ldr	r1, [r7, r1]
 8002128:	f1ae 0e08 	sub.w	lr, lr, #8
 800212c:	458e      	cmp	lr, r1
 800212e:	f000 8097 	beq.w	8002260 <_malloc_r+0x464>
 8002132:	684a      	ldr	r2, [r1, #4]
 8002134:	f022 0203 	bic.w	r2, r2, #3
 8002138:	429a      	cmp	r2, r3
 800213a:	d902      	bls.n	8002142 <_malloc_r+0x346>
 800213c:	6889      	ldr	r1, [r1, #8]
 800213e:	458e      	cmp	lr, r1
 8002140:	d1f7      	bne.n	8002132 <_malloc_r+0x336>
 8002142:	f8d1 e00c 	ldr.w	lr, [r1, #12]
 8002146:	687b      	ldr	r3, [r7, #4]
 8002148:	e9c4 1e02 	strd	r1, lr, [r4, #8]
 800214c:	f8ce 4008 	str.w	r4, [lr, #8]
 8002150:	60cc      	str	r4, [r1, #12]
 8002152:	e6d9      	b.n	8001f08 <_malloc_r+0x10c>
 8002154:	20000c30 	.word	0x20000c30
 8002158:	20000c38 	.word	0x20000c38
 800215c:	200010f0 	.word	0x200010f0
 8002160:	2b14      	cmp	r3, #20
 8002162:	d959      	bls.n	8002218 <_malloc_r+0x41c>
 8002164:	2b54      	cmp	r3, #84	; 0x54
 8002166:	f200 809e 	bhi.w	80022a6 <_malloc_r+0x4aa>
 800216a:	0b2b      	lsrs	r3, r5, #12
 800216c:	f103 006f 	add.w	r0, r3, #111	; 0x6f
 8002170:	f103 0c6e 	add.w	ip, r3, #110	; 0x6e
 8002174:	00c3      	lsls	r3, r0, #3
 8002176:	e686      	b.n	8001e86 <_malloc_r+0x8a>
 8002178:	f108 0801 	add.w	r8, r8, #1
 800217c:	f018 0f03 	tst.w	r8, #3
 8002180:	f10e 0e08 	add.w	lr, lr, #8
 8002184:	f47f aed2 	bne.w	8001f2c <_malloc_r+0x130>
 8002188:	e051      	b.n	800222e <_malloc_r+0x432>
 800218a:	4419      	add	r1, r3
 800218c:	461c      	mov	r4, r3
 800218e:	684a      	ldr	r2, [r1, #4]
 8002190:	68db      	ldr	r3, [r3, #12]
 8002192:	f854 5f08 	ldr.w	r5, [r4, #8]!
 8002196:	f042 0201 	orr.w	r2, r2, #1
 800219a:	604a      	str	r2, [r1, #4]
 800219c:	4630      	mov	r0, r6
 800219e:	60eb      	str	r3, [r5, #12]
 80021a0:	609d      	str	r5, [r3, #8]
 80021a2:	f000 f8df 	bl	8002364 <__malloc_unlock>
 80021a6:	e6f0      	b.n	8001f8a <_malloc_r+0x18e>
 80021a8:	08e8      	lsrs	r0, r5, #3
 80021aa:	f105 0308 	add.w	r3, r5, #8
 80021ae:	e635      	b.n	8001e1c <_malloc_r+0x20>
 80021b0:	4423      	add	r3, r4
 80021b2:	4630      	mov	r0, r6
 80021b4:	685a      	ldr	r2, [r3, #4]
 80021b6:	f042 0201 	orr.w	r2, r2, #1
 80021ba:	605a      	str	r2, [r3, #4]
 80021bc:	3408      	adds	r4, #8
 80021be:	f000 f8d1 	bl	8002364 <__malloc_unlock>
 80021c2:	e6e2      	b.n	8001f8a <_malloc_r+0x18e>
 80021c4:	1961      	adds	r1, r4, r5
 80021c6:	f045 0e01 	orr.w	lr, r5, #1
 80021ca:	f042 0501 	orr.w	r5, r2, #1
 80021ce:	f8c4 e004 	str.w	lr, [r4, #4]
 80021d2:	4630      	mov	r0, r6
 80021d4:	e9c7 1104 	strd	r1, r1, [r7, #16]
 80021d8:	e9c1 cc02 	strd	ip, ip, [r1, #8]
 80021dc:	604d      	str	r5, [r1, #4]
 80021de:	50e2      	str	r2, [r4, r3]
 80021e0:	f000 f8c0 	bl	8002364 <__malloc_unlock>
 80021e4:	3408      	adds	r4, #8
 80021e6:	e6d0      	b.n	8001f8a <_malloc_r+0x18e>
 80021e8:	099a      	lsrs	r2, r3, #6
 80021ea:	f102 0139 	add.w	r1, r2, #57	; 0x39
 80021ee:	00c9      	lsls	r1, r1, #3
 80021f0:	3238      	adds	r2, #56	; 0x38
 80021f2:	e796      	b.n	8002122 <_malloc_r+0x326>
 80021f4:	42bc      	cmp	r4, r7
 80021f6:	d060      	beq.n	80022ba <_malloc_r+0x4be>
 80021f8:	68bc      	ldr	r4, [r7, #8]
 80021fa:	6863      	ldr	r3, [r4, #4]
 80021fc:	f023 0b03 	bic.w	fp, r3, #3
 8002200:	45ab      	cmp	fp, r5
 8002202:	ebab 0305 	sub.w	r3, fp, r5
 8002206:	d302      	bcc.n	800220e <_malloc_r+0x412>
 8002208:	2b0f      	cmp	r3, #15
 800220a:	f73f af62 	bgt.w	80020d2 <_malloc_r+0x2d6>
 800220e:	4630      	mov	r0, r6
 8002210:	f000 f8a8 	bl	8002364 <__malloc_unlock>
 8002214:	2400      	movs	r4, #0
 8002216:	e6b8      	b.n	8001f8a <_malloc_r+0x18e>
 8002218:	f103 005c 	add.w	r0, r3, #92	; 0x5c
 800221c:	f103 0c5b 	add.w	ip, r3, #91	; 0x5b
 8002220:	00c3      	lsls	r3, r0, #3
 8002222:	e630      	b.n	8001e86 <_malloc_r+0x8a>
 8002224:	f859 3908 	ldr.w	r3, [r9], #-8
 8002228:	454b      	cmp	r3, r9
 800222a:	f040 8096 	bne.w	800235a <_malloc_r+0x55e>
 800222e:	f010 0f03 	tst.w	r0, #3
 8002232:	f100 30ff 	add.w	r0, r0, #4294967295	; 0xffffffff
 8002236:	d1f5      	bne.n	8002224 <_malloc_r+0x428>
 8002238:	687b      	ldr	r3, [r7, #4]
 800223a:	ea23 0304 	bic.w	r3, r3, r4
 800223e:	607b      	str	r3, [r7, #4]
 8002240:	0064      	lsls	r4, r4, #1
 8002242:	429c      	cmp	r4, r3
 8002244:	f63f aebc 	bhi.w	8001fc0 <_malloc_r+0x1c4>
 8002248:	b91c      	cbnz	r4, 8002252 <_malloc_r+0x456>
 800224a:	e6b9      	b.n	8001fc0 <_malloc_r+0x1c4>
 800224c:	0064      	lsls	r4, r4, #1
 800224e:	f108 0804 	add.w	r8, r8, #4
 8002252:	421c      	tst	r4, r3
 8002254:	d0fa      	beq.n	800224c <_malloc_r+0x450>
 8002256:	4640      	mov	r0, r8
 8002258:	e664      	b.n	8001f24 <_malloc_r+0x128>
 800225a:	f103 0b10 	add.w	fp, r3, #16
 800225e:	e6cc      	b.n	8001ffa <_malloc_r+0x1fe>
 8002260:	687b      	ldr	r3, [r7, #4]
 8002262:	1092      	asrs	r2, r2, #2
 8002264:	f04f 0801 	mov.w	r8, #1
 8002268:	fa08 f202 	lsl.w	r2, r8, r2
 800226c:	4313      	orrs	r3, r2
 800226e:	607b      	str	r3, [r7, #4]
 8002270:	e76a      	b.n	8002148 <_malloc_r+0x34c>
 8002272:	eb02 010b 	add.w	r1, r2, fp
 8002276:	4249      	negs	r1, r1
 8002278:	f3c1 0a0b 	ubfx	sl, r1, #0, #12
 800227c:	4651      	mov	r1, sl
 800227e:	4630      	mov	r0, r6
 8002280:	9301      	str	r3, [sp, #4]
 8002282:	9200      	str	r2, [sp, #0]
 8002284:	f000 f870 	bl	8002368 <_sbrk_r>
 8002288:	1c43      	adds	r3, r0, #1
 800228a:	e9dd 2300 	ldrd	r2, r3, [sp]
 800228e:	f47f aeec 	bne.w	800206a <_malloc_r+0x26e>
 8002292:	469a      	mov	sl, r3
 8002294:	e6ec      	b.n	8002070 <_malloc_r+0x274>
 8002296:	2a54      	cmp	r2, #84	; 0x54
 8002298:	d826      	bhi.n	80022e8 <_malloc_r+0x4ec>
 800229a:	0b1a      	lsrs	r2, r3, #12
 800229c:	f102 016f 	add.w	r1, r2, #111	; 0x6f
 80022a0:	00c9      	lsls	r1, r1, #3
 80022a2:	326e      	adds	r2, #110	; 0x6e
 80022a4:	e73d      	b.n	8002122 <_malloc_r+0x326>
 80022a6:	f5b3 7faa 	cmp.w	r3, #340	; 0x154
 80022aa:	d826      	bhi.n	80022fa <_malloc_r+0x4fe>
 80022ac:	0beb      	lsrs	r3, r5, #15
 80022ae:	f103 0078 	add.w	r0, r3, #120	; 0x78
 80022b2:	f103 0c77 	add.w	ip, r3, #119	; 0x77
 80022b6:	00c3      	lsls	r3, r0, #3
 80022b8:	e5e5      	b.n	8001e86 <_malloc_r+0x8a>
 80022ba:	f8d9 3004 	ldr.w	r3, [r9, #4]
 80022be:	445b      	add	r3, fp
 80022c0:	f8c9 3004 	str.w	r3, [r9, #4]
 80022c4:	e6ac      	b.n	8002020 <_malloc_r+0x224>
 80022c6:	f3ca 000b 	ubfx	r0, sl, #0, #12
 80022ca:	2800      	cmp	r0, #0
 80022cc:	f47f aea8 	bne.w	8002020 <_malloc_r+0x224>
 80022d0:	eb08 030b 	add.w	r3, r8, fp
 80022d4:	68bc      	ldr	r4, [r7, #8]
 80022d6:	f043 0301 	orr.w	r3, r3, #1
 80022da:	6063      	str	r3, [r4, #4]
 80022dc:	e6ec      	b.n	80020b8 <_malloc_r+0x2bc>
 80022de:	4614      	mov	r4, r2
 80022e0:	e6ea      	b.n	80020b8 <_malloc_r+0x2bc>
 80022e2:	2301      	movs	r3, #1
 80022e4:	6053      	str	r3, [r2, #4]
 80022e6:	e792      	b.n	800220e <_malloc_r+0x412>
 80022e8:	f5b2 7faa 	cmp.w	r2, #340	; 0x154
 80022ec:	d821      	bhi.n	8002332 <_malloc_r+0x536>
 80022ee:	0bda      	lsrs	r2, r3, #15
 80022f0:	f102 0178 	add.w	r1, r2, #120	; 0x78
 80022f4:	00c9      	lsls	r1, r1, #3
 80022f6:	3277      	adds	r2, #119	; 0x77
 80022f8:	e713      	b.n	8002122 <_malloc_r+0x326>
 80022fa:	f240 5254 	movw	r2, #1364	; 0x554
 80022fe:	4293      	cmp	r3, r2
 8002300:	d821      	bhi.n	8002346 <_malloc_r+0x54a>
 8002302:	0cab      	lsrs	r3, r5, #18
 8002304:	f103 007d 	add.w	r0, r3, #125	; 0x7d
 8002308:	f103 0c7c 	add.w	ip, r3, #124	; 0x7c
 800230c:	00c3      	lsls	r3, r0, #3
 800230e:	e5ba      	b.n	8001e86 <_malloc_r+0x8a>
 8002310:	3b08      	subs	r3, #8
 8002312:	449b      	add	fp, r3
 8002314:	ebab 0b02 	sub.w	fp, fp, r2
 8002318:	f04f 0a00 	mov.w	sl, #0
 800231c:	e6a8      	b.n	8002070 <_malloc_r+0x274>
 800231e:	f104 0108 	add.w	r1, r4, #8
 8002322:	4630      	mov	r0, r6
 8002324:	f000 f882 	bl	800242c <_free_r>
 8002328:	68bc      	ldr	r4, [r7, #8]
 800232a:	f8d9 1004 	ldr.w	r1, [r9, #4]
 800232e:	6863      	ldr	r3, [r4, #4]
 8002330:	e6c2      	b.n	80020b8 <_malloc_r+0x2bc>
 8002332:	f240 5154 	movw	r1, #1364	; 0x554
 8002336:	428a      	cmp	r2, r1
 8002338:	d80b      	bhi.n	8002352 <_malloc_r+0x556>
 800233a:	0c9a      	lsrs	r2, r3, #18
 800233c:	f102 017d 	add.w	r1, r2, #125	; 0x7d
 8002340:	00c9      	lsls	r1, r1, #3
 8002342:	327c      	adds	r2, #124	; 0x7c
 8002344:	e6ed      	b.n	8002122 <_malloc_r+0x326>
 8002346:	f44f 737e 	mov.w	r3, #1016	; 0x3f8
 800234a:	207f      	movs	r0, #127	; 0x7f
 800234c:	f04f 0c7e 	mov.w	ip, #126	; 0x7e
 8002350:	e599      	b.n	8001e86 <_malloc_r+0x8a>
 8002352:	f44f 717e 	mov.w	r1, #1016	; 0x3f8
 8002356:	227e      	movs	r2, #126	; 0x7e
 8002358:	e6e3      	b.n	8002122 <_malloc_r+0x326>
 800235a:	687b      	ldr	r3, [r7, #4]
 800235c:	e770      	b.n	8002240 <_malloc_r+0x444>
 800235e:	bf00      	nop

08002360 <__malloc_lock>:
 8002360:	4770      	bx	lr
 8002362:	bf00      	nop

08002364 <__malloc_unlock>:
 8002364:	4770      	bx	lr
 8002366:	bf00      	nop

08002368 <_sbrk_r>:
 8002368:	b538      	push	{r3, r4, r5, lr}
 800236a:	4c07      	ldr	r4, [pc, #28]	; (8002388 <_sbrk_r+0x20>)
 800236c:	2300      	movs	r3, #0
 800236e:	4605      	mov	r5, r0
 8002370:	4608      	mov	r0, r1
 8002372:	6023      	str	r3, [r4, #0]
 8002374:	f000 f964 	bl	8002640 <_sbrk>
 8002378:	1c43      	adds	r3, r0, #1
 800237a:	d000      	beq.n	800237e <_sbrk_r+0x16>
 800237c:	bd38      	pop	{r3, r4, r5, pc}
 800237e:	6823      	ldr	r3, [r4, #0]
 8002380:	2b00      	cmp	r3, #0
 8002382:	d0fb      	beq.n	800237c <_sbrk_r+0x14>
 8002384:	602b      	str	r3, [r5, #0]
 8002386:	bd38      	pop	{r3, r4, r5, pc}
 8002388:	200014d8 	.word	0x200014d8

0800238c <_malloc_trim_r>:
 800238c:	b5f8      	push	{r3, r4, r5, r6, r7, lr}
 800238e:	4f24      	ldr	r7, [pc, #144]	; (8002420 <_malloc_trim_r+0x94>)
 8002390:	460c      	mov	r4, r1
 8002392:	4606      	mov	r6, r0
 8002394:	f7ff ffe4 	bl	8002360 <__malloc_lock>
 8002398:	68bb      	ldr	r3, [r7, #8]
 800239a:	685d      	ldr	r5, [r3, #4]
 800239c:	f5c4 617e 	rsb	r1, r4, #4064	; 0xfe0
 80023a0:	310f      	adds	r1, #15
 80023a2:	f025 0503 	bic.w	r5, r5, #3
 80023a6:	4429      	add	r1, r5
 80023a8:	f421 617f 	bic.w	r1, r1, #4080	; 0xff0
 80023ac:	f021 010f 	bic.w	r1, r1, #15
 80023b0:	f5a1 5480 	sub.w	r4, r1, #4096	; 0x1000
 80023b4:	f5b4 5f80 	cmp.w	r4, #4096	; 0x1000
 80023b8:	db07      	blt.n	80023ca <_malloc_trim_r+0x3e>
 80023ba:	2100      	movs	r1, #0
 80023bc:	4630      	mov	r0, r6
 80023be:	f7ff ffd3 	bl	8002368 <_sbrk_r>
 80023c2:	68bb      	ldr	r3, [r7, #8]
 80023c4:	442b      	add	r3, r5
 80023c6:	4298      	cmp	r0, r3
 80023c8:	d004      	beq.n	80023d4 <_malloc_trim_r+0x48>
 80023ca:	4630      	mov	r0, r6
 80023cc:	f7ff ffca 	bl	8002364 <__malloc_unlock>
 80023d0:	2000      	movs	r0, #0
 80023d2:	bdf8      	pop	{r3, r4, r5, r6, r7, pc}
 80023d4:	4261      	negs	r1, r4
 80023d6:	4630      	mov	r0, r6
 80023d8:	f7ff ffc6 	bl	8002368 <_sbrk_r>
 80023dc:	3001      	adds	r0, #1
 80023de:	d00d      	beq.n	80023fc <_malloc_trim_r+0x70>
 80023e0:	4b10      	ldr	r3, [pc, #64]	; (8002424 <_malloc_trim_r+0x98>)
 80023e2:	68ba      	ldr	r2, [r7, #8]
 80023e4:	6819      	ldr	r1, [r3, #0]
 80023e6:	1b2d      	subs	r5, r5, r4
 80023e8:	f045 0501 	orr.w	r5, r5, #1
 80023ec:	4630      	mov	r0, r6
 80023ee:	1b09      	subs	r1, r1, r4
 80023f0:	6055      	str	r5, [r2, #4]
 80023f2:	6019      	str	r1, [r3, #0]
 80023f4:	f7ff ffb6 	bl	8002364 <__malloc_unlock>
 80023f8:	2001      	movs	r0, #1
 80023fa:	bdf8      	pop	{r3, r4, r5, r6, r7, pc}
 80023fc:	2100      	movs	r1, #0
 80023fe:	4630      	mov	r0, r6
 8002400:	f7ff ffb2 	bl	8002368 <_sbrk_r>
 8002404:	68ba      	ldr	r2, [r7, #8]
 8002406:	1a83      	subs	r3, r0, r2
 8002408:	2b0f      	cmp	r3, #15
 800240a:	ddde      	ble.n	80023ca <_malloc_trim_r+0x3e>
 800240c:	4c06      	ldr	r4, [pc, #24]	; (8002428 <_malloc_trim_r+0x9c>)
 800240e:	4905      	ldr	r1, [pc, #20]	; (8002424 <_malloc_trim_r+0x98>)
 8002410:	6824      	ldr	r4, [r4, #0]
 8002412:	f043 0301 	orr.w	r3, r3, #1
 8002416:	1b00      	subs	r0, r0, r4
 8002418:	6053      	str	r3, [r2, #4]
 800241a:	6008      	str	r0, [r1, #0]
 800241c:	e7d5      	b.n	80023ca <_malloc_trim_r+0x3e>
 800241e:	bf00      	nop
 8002420:	20000c30 	.word	0x20000c30
 8002424:	200010f4 	.word	0x200010f4
 8002428:	20001038 	.word	0x20001038

0800242c <_free_r>:
 800242c:	2900      	cmp	r1, #0
 800242e:	d05e      	beq.n	80024ee <_free_r+0xc2>
 8002430:	b5f8      	push	{r3, r4, r5, r6, r7, lr}
 8002432:	460f      	mov	r7, r1
 8002434:	4606      	mov	r6, r0
 8002436:	f7ff ff93 	bl	8002360 <__malloc_lock>
 800243a:	f857 cc04 	ldr.w	ip, [r7, #-4]
 800243e:	4d75      	ldr	r5, [pc, #468]	; (8002614 <_free_r+0x1e8>)
 8002440:	f02c 0301 	bic.w	r3, ip, #1
 8002444:	f1a7 0008 	sub.w	r0, r7, #8
 8002448:	18c2      	adds	r2, r0, r3
 800244a:	68a9      	ldr	r1, [r5, #8]
 800244c:	6854      	ldr	r4, [r2, #4]
 800244e:	4291      	cmp	r1, r2
 8002450:	f024 0403 	bic.w	r4, r4, #3
 8002454:	f000 8084 	beq.w	8002560 <_free_r+0x134>
 8002458:	f01c 0f01 	tst.w	ip, #1
 800245c:	6054      	str	r4, [r2, #4]
 800245e:	eb02 0104 	add.w	r1, r2, r4
 8002462:	d133      	bne.n	80024cc <_free_r+0xa0>
 8002464:	f857 ec08 	ldr.w	lr, [r7, #-8]
 8002468:	6849      	ldr	r1, [r1, #4]
 800246a:	eba0 000e 	sub.w	r0, r0, lr
 800246e:	f105 0c08 	add.w	ip, r5, #8
 8002472:	6887      	ldr	r7, [r0, #8]
 8002474:	4567      	cmp	r7, ip
 8002476:	4473      	add	r3, lr
 8002478:	f001 0101 	and.w	r1, r1, #1
 800247c:	d060      	beq.n	8002540 <_free_r+0x114>
 800247e:	f8d0 e00c 	ldr.w	lr, [r0, #12]
 8002482:	f8c7 e00c 	str.w	lr, [r7, #12]
 8002486:	f8ce 7008 	str.w	r7, [lr, #8]
 800248a:	2900      	cmp	r1, #0
 800248c:	f000 808d 	beq.w	80025aa <_free_r+0x17e>
 8002490:	f043 0101 	orr.w	r1, r3, #1
 8002494:	6041      	str	r1, [r0, #4]
 8002496:	6013      	str	r3, [r2, #0]
 8002498:	f5b3 7f00 	cmp.w	r3, #512	; 0x200
 800249c:	d230      	bcs.n	8002500 <_free_r+0xd4>
 800249e:	08db      	lsrs	r3, r3, #3
 80024a0:	1c59      	adds	r1, r3, #1
 80024a2:	686c      	ldr	r4, [r5, #4]
 80024a4:	109a      	asrs	r2, r3, #2
 80024a6:	2301      	movs	r3, #1
 80024a8:	4093      	lsls	r3, r2
 80024aa:	4323      	orrs	r3, r4
 80024ac:	eb05 02c1 	add.w	r2, r5, r1, lsl #3
 80024b0:	f855 4031 	ldr.w	r4, [r5, r1, lsl #3]
 80024b4:	606b      	str	r3, [r5, #4]
 80024b6:	3a08      	subs	r2, #8
 80024b8:	e9c0 4202 	strd	r4, r2, [r0, #8]
 80024bc:	f845 0031 	str.w	r0, [r5, r1, lsl #3]
 80024c0:	60e0      	str	r0, [r4, #12]
 80024c2:	4630      	mov	r0, r6
 80024c4:	e8bd 40f8 	ldmia.w	sp!, {r3, r4, r5, r6, r7, lr}
 80024c8:	f7ff bf4c 	b.w	8002364 <__malloc_unlock>
 80024cc:	6849      	ldr	r1, [r1, #4]
 80024ce:	07c9      	lsls	r1, r1, #31
 80024d0:	d40e      	bmi.n	80024f0 <_free_r+0xc4>
 80024d2:	4423      	add	r3, r4
 80024d4:	f105 0c08 	add.w	ip, r5, #8
 80024d8:	6891      	ldr	r1, [r2, #8]
 80024da:	4561      	cmp	r1, ip
 80024dc:	f043 0401 	orr.w	r4, r3, #1
 80024e0:	d06b      	beq.n	80025ba <_free_r+0x18e>
 80024e2:	68d2      	ldr	r2, [r2, #12]
 80024e4:	60ca      	str	r2, [r1, #12]
 80024e6:	6091      	str	r1, [r2, #8]
 80024e8:	6044      	str	r4, [r0, #4]
 80024ea:	50c3      	str	r3, [r0, r3]
 80024ec:	e7d4      	b.n	8002498 <_free_r+0x6c>
 80024ee:	4770      	bx	lr
 80024f0:	f043 0101 	orr.w	r1, r3, #1
 80024f4:	f5b3 7f00 	cmp.w	r3, #512	; 0x200
 80024f8:	f847 1c04 	str.w	r1, [r7, #-4]
 80024fc:	6013      	str	r3, [r2, #0]
 80024fe:	d3ce      	bcc.n	800249e <_free_r+0x72>
 8002500:	0a5a      	lsrs	r2, r3, #9
 8002502:	2a04      	cmp	r2, #4
 8002504:	d846      	bhi.n	8002594 <_free_r+0x168>
 8002506:	099a      	lsrs	r2, r3, #6
 8002508:	f102 0739 	add.w	r7, r2, #57	; 0x39
 800250c:	00ff      	lsls	r7, r7, #3
 800250e:	f102 0138 	add.w	r1, r2, #56	; 0x38
 8002512:	19ec      	adds	r4, r5, r7
 8002514:	59ea      	ldr	r2, [r5, r7]
 8002516:	3c08      	subs	r4, #8
 8002518:	4294      	cmp	r4, r2
 800251a:	d055      	beq.n	80025c8 <_free_r+0x19c>
 800251c:	6851      	ldr	r1, [r2, #4]
 800251e:	f021 0103 	bic.w	r1, r1, #3
 8002522:	4299      	cmp	r1, r3
 8002524:	d902      	bls.n	800252c <_free_r+0x100>
 8002526:	6892      	ldr	r2, [r2, #8]
 8002528:	4294      	cmp	r4, r2
 800252a:	d1f7      	bne.n	800251c <_free_r+0xf0>
 800252c:	68d4      	ldr	r4, [r2, #12]
 800252e:	e9c0 2402 	strd	r2, r4, [r0, #8]
 8002532:	60a0      	str	r0, [r4, #8]
 8002534:	60d0      	str	r0, [r2, #12]
 8002536:	4630      	mov	r0, r6
 8002538:	e8bd 40f8 	ldmia.w	sp!, {r3, r4, r5, r6, r7, lr}
 800253c:	f7ff bf12 	b.w	8002364 <__malloc_unlock>
 8002540:	2900      	cmp	r1, #0
 8002542:	d162      	bne.n	800260a <_free_r+0x1de>
 8002544:	e9d2 2102 	ldrd	r2, r1, [r2, #8]
 8002548:	4423      	add	r3, r4
 800254a:	f043 0401 	orr.w	r4, r3, #1
 800254e:	60d1      	str	r1, [r2, #12]
 8002550:	608a      	str	r2, [r1, #8]
 8002552:	6044      	str	r4, [r0, #4]
 8002554:	50c3      	str	r3, [r0, r3]
 8002556:	4630      	mov	r0, r6
 8002558:	e8bd 40f8 	ldmia.w	sp!, {r3, r4, r5, r6, r7, lr}
 800255c:	f7ff bf02 	b.w	8002364 <__malloc_unlock>
 8002560:	f01c 0f01 	tst.w	ip, #1
 8002564:	4423      	add	r3, r4
 8002566:	d107      	bne.n	8002578 <_free_r+0x14c>
 8002568:	f857 2c08 	ldr.w	r2, [r7, #-8]
 800256c:	1a80      	subs	r0, r0, r2
 800256e:	4413      	add	r3, r2
 8002570:	e9d0 1202 	ldrd	r1, r2, [r0, #8]
 8002574:	60ca      	str	r2, [r1, #12]
 8002576:	6091      	str	r1, [r2, #8]
 8002578:	4a27      	ldr	r2, [pc, #156]	; (8002618 <_free_r+0x1ec>)
 800257a:	6812      	ldr	r2, [r2, #0]
 800257c:	f043 0101 	orr.w	r1, r3, #1
 8002580:	429a      	cmp	r2, r3
 8002582:	6041      	str	r1, [r0, #4]
 8002584:	60a8      	str	r0, [r5, #8]
 8002586:	d89c      	bhi.n	80024c2 <_free_r+0x96>
 8002588:	4b24      	ldr	r3, [pc, #144]	; (800261c <_free_r+0x1f0>)
 800258a:	4630      	mov	r0, r6
 800258c:	6819      	ldr	r1, [r3, #0]
 800258e:	f7ff fefd 	bl	800238c <_malloc_trim_r>
 8002592:	e796      	b.n	80024c2 <_free_r+0x96>
 8002594:	2a14      	cmp	r2, #20
 8002596:	d90a      	bls.n	80025ae <_free_r+0x182>
 8002598:	2a54      	cmp	r2, #84	; 0x54
 800259a:	d81d      	bhi.n	80025d8 <_free_r+0x1ac>
 800259c:	0b1a      	lsrs	r2, r3, #12
 800259e:	f102 076f 	add.w	r7, r2, #111	; 0x6f
 80025a2:	00ff      	lsls	r7, r7, #3
 80025a4:	f102 016e 	add.w	r1, r2, #110	; 0x6e
 80025a8:	e7b3      	b.n	8002512 <_free_r+0xe6>
 80025aa:	4423      	add	r3, r4
 80025ac:	e794      	b.n	80024d8 <_free_r+0xac>
 80025ae:	f102 075c 	add.w	r7, r2, #92	; 0x5c
 80025b2:	00ff      	lsls	r7, r7, #3
 80025b4:	f102 015b 	add.w	r1, r2, #91	; 0x5b
 80025b8:	e7ab      	b.n	8002512 <_free_r+0xe6>
 80025ba:	e9c5 0004 	strd	r0, r0, [r5, #16]
 80025be:	e9c0 cc02 	strd	ip, ip, [r0, #8]
 80025c2:	6044      	str	r4, [r0, #4]
 80025c4:	50c3      	str	r3, [r0, r3]
 80025c6:	e77c      	b.n	80024c2 <_free_r+0x96>
 80025c8:	686b      	ldr	r3, [r5, #4]
 80025ca:	1089      	asrs	r1, r1, #2
 80025cc:	2701      	movs	r7, #1
 80025ce:	fa07 f101 	lsl.w	r1, r7, r1
 80025d2:	4319      	orrs	r1, r3
 80025d4:	6069      	str	r1, [r5, #4]
 80025d6:	e7aa      	b.n	800252e <_free_r+0x102>
 80025d8:	f5b2 7faa 	cmp.w	r2, #340	; 0x154
 80025dc:	d806      	bhi.n	80025ec <_free_r+0x1c0>
 80025de:	0bda      	lsrs	r2, r3, #15
 80025e0:	f102 0778 	add.w	r7, r2, #120	; 0x78
 80025e4:	00ff      	lsls	r7, r7, #3
 80025e6:	f102 0177 	add.w	r1, r2, #119	; 0x77
 80025ea:	e792      	b.n	8002512 <_free_r+0xe6>
 80025ec:	f240 5154 	movw	r1, #1364	; 0x554
 80025f0:	428a      	cmp	r2, r1
 80025f2:	d806      	bhi.n	8002602 <_free_r+0x1d6>
 80025f4:	0c9a      	lsrs	r2, r3, #18
 80025f6:	f102 077d 	add.w	r7, r2, #125	; 0x7d
 80025fa:	00ff      	lsls	r7, r7, #3
 80025fc:	f102 017c 	add.w	r1, r2, #124	; 0x7c
 8002600:	e787      	b.n	8002512 <_free_r+0xe6>
 8002602:	f44f 777e 	mov.w	r7, #1016	; 0x3f8
 8002606:	217e      	movs	r1, #126	; 0x7e
 8002608:	e783      	b.n	8002512 <_free_r+0xe6>
 800260a:	f043 0101 	orr.w	r1, r3, #1
 800260e:	6041      	str	r1, [r0, #4]
 8002610:	6013      	str	r3, [r2, #0]
 8002612:	e756      	b.n	80024c2 <_free_r+0x96>
 8002614:	20000c30 	.word	0x20000c30
 8002618:	2000103c 	.word	0x2000103c
 800261c:	200010f0 	.word	0x200010f0

08002620 <_getpid>:
 8002620:	4b02      	ldr	r3, [pc, #8]	; (800262c <_getpid+0xc>)
 8002622:	2258      	movs	r2, #88	; 0x58
 8002624:	601a      	str	r2, [r3, #0]
 8002626:	f04f 30ff 	mov.w	r0, #4294967295	; 0xffffffff
 800262a:	4770      	bx	lr
 800262c:	200014d8 	.word	0x200014d8

08002630 <_kill>:
 8002630:	4b02      	ldr	r3, [pc, #8]	; (800263c <_kill+0xc>)
 8002632:	2258      	movs	r2, #88	; 0x58
 8002634:	601a      	str	r2, [r3, #0]
 8002636:	f04f 30ff 	mov.w	r0, #4294967295	; 0xffffffff
 800263a:	4770      	bx	lr
 800263c:	200014d8 	.word	0x200014d8

08002640 <_sbrk>:
 8002640:	4a04      	ldr	r2, [pc, #16]	; (8002654 <_sbrk+0x14>)
 8002642:	4905      	ldr	r1, [pc, #20]	; (8002658 <_sbrk+0x18>)
 8002644:	6813      	ldr	r3, [r2, #0]
 8002646:	2b00      	cmp	r3, #0
 8002648:	bf08      	it	eq
 800264a:	460b      	moveq	r3, r1
 800264c:	4418      	add	r0, r3
 800264e:	6010      	str	r0, [r2, #0]
 8002650:	4618      	mov	r0, r3
 8002652:	4770      	bx	lr
 8002654:	20001124 	.word	0x20001124
 8002658:	200014dc 	.word	0x200014dc

0800265c <_exit>:
 800265c:	e7fe      	b.n	800265c <_exit>
 800265e:	bf00      	nop

08002660 <dmaStreamAllocI.part.0.constprop.0>:
 *                      structure.
 * @retval NULL         if a/the stream is not available.
 *
 * @iclass
 */
const stm32_dma_stream_t *dmaStreamAllocI(uint32_t id,
 8002660:	b4f0      	push	{r4, r5, r6, r7}
    return NULL;
  }

  for (i = startid; i <= endid; i++) {
    uint32_t mask = (1U << i);
    if ((dma.allocated_mask & mask) == 0U) {
 8002662:	4c2f      	ldr	r4, [pc, #188]	; (8002720 <dmaStreamAllocI.part.0.constprop.0+0xc0>)
const stm32_dma_stream_t *dmaStreamAllocI(uint32_t id,
 8002664:	4603      	mov	r3, r0
    uint32_t mask = (1U << i);
 8002666:	2201      	movs	r2, #1
    if ((dma.allocated_mask & mask) == 0U) {
 8002668:	6820      	ldr	r0, [r4, #0]
    uint32_t mask = (1U << i);
 800266a:	409a      	lsls	r2, r3
    if ((dma.allocated_mask & mask) == 0U) {
 800266c:	4202      	tst	r2, r0

      return dmastp;
    }
  }

  return NULL;
 800266e:	bf18      	it	ne
 8002670:	2000      	movne	r0, #0
    if ((dma.allocated_mask & mask) == 0U) {
 8002672:	d001      	beq.n	8002678 <dmaStreamAllocI.part.0.constprop.0+0x18>
}
 8002674:	bcf0      	pop	{r4, r5, r6, r7}
 8002676:	4770      	bx	lr
      dma.streams[i].func  = func;
 8002678:	eb04 05c3 	add.w	r5, r4, r3, lsl #3
      dma.allocated_mask  |= mask;
 800267c:	4310      	orrs	r0, r2
      const stm32_dma_stream_t *dmastp = STM32_DMA_STREAM(i);
 800267e:	4e29      	ldr	r6, [pc, #164]	; (8002724 <dmaStreamAllocI.part.0.constprop.0+0xc4>)
      dma.allocated_mask  |= mask;
 8002680:	6020      	str	r0, [r4, #0]
      if ((STM32_DMA1_STREAMS_MASK & mask) != 0U) {
 8002682:	f012 0fff 	tst.w	r2, #255	; 0xff
      dma.streams[i].param = param;
 8002686:	4c28      	ldr	r4, [pc, #160]	; (8002728 <dmaStreamAllocI.part.0.constprop.0+0xc8>)
 8002688:	60ac      	str	r4, [r5, #8]
      const stm32_dma_stream_t *dmastp = STM32_DMA_STREAM(i);
 800268a:	eb03 0043 	add.w	r0, r3, r3, lsl #1
      dma.streams[i].func  = func;
 800268e:	6069      	str	r1, [r5, #4]
      const stm32_dma_stream_t *dmastp = STM32_DMA_STREAM(i);
 8002690:	eb06 0080 	add.w	r0, r6, r0, lsl #2
 8002694:	ea4f 0443 	mov.w	r4, r3, lsl #1
      if ((STM32_DMA1_STREAMS_MASK & mask) != 0U) {
 8002698:	d136      	bne.n	8002708 <dmaStreamAllocI.part.0.constprop.0+0xa8>
        rccEnableDMA2(true);
 800269a:	4a24      	ldr	r2, [pc, #144]	; (800272c <dmaStreamAllocI.part.0.constprop.0+0xcc>)
 800269c:	6b11      	ldr	r1, [r2, #48]	; 0x30
 800269e:	f441 0180 	orr.w	r1, r1, #4194304	; 0x400000
 80026a2:	6311      	str	r1, [r2, #48]	; 0x30
 80026a4:	6d15      	ldr	r5, [r2, #80]	; 0x50
      dmaStreamDisable(dmastp);
 80026a6:	18e1      	adds	r1, r4, r3
        rccEnableDMA2(true);
 80026a8:	f445 0580 	orr.w	r5, r5, #4194304	; 0x400000
      dmaStreamDisable(dmastp);
 80026ac:	f856 1021 	ldr.w	r1, [r6, r1, lsl #2]
        rccEnableDMA2(true);
 80026b0:	6515      	str	r5, [r2, #80]	; 0x50
 80026b2:	6d12      	ldr	r2, [r2, #80]	; 0x50
      dmaStreamDisable(dmastp);
 80026b4:	680a      	ldr	r2, [r1, #0]
 80026b6:	f022 021f 	bic.w	r2, r2, #31
 80026ba:	600a      	str	r2, [r1, #0]
 80026bc:	680a      	ldr	r2, [r1, #0]
 80026be:	f012 0201 	ands.w	r2, r2, #1
 80026c2:	d1fb      	bne.n	80026bc <dmaStreamAllocI.part.0.constprop.0+0x5c>
 80026c4:	4423      	add	r3, r4
 80026c6:	eb06 0383 	add.w	r3, r6, r3, lsl #2
 80026ca:	253d      	movs	r5, #61	; 0x3d
        nvicEnableVector(dmastp->vector, priority);
 80026cc:	7adc      	ldrb	r4, [r3, #11]
      dmaStreamDisable(dmastp);
 80026ce:	7a5e      	ldrb	r6, [r3, #9]
 80026d0:	685f      	ldr	r7, [r3, #4]
  NVIC->IP[_IP_IDX(n)] = (NVIC->IP[_IP_IDX(n)] & ~(0xFFU << _BIT_SHIFT(n))) |
                         (NVIC_PRIORITY_MASK(prio) << _BIT_SHIFT(n));
#else
  NVIC->IP[n] = NVIC_PRIORITY_MASK(prio);
#endif
  NVIC->ICPR[n >> 5U] = 1U << (n & 0x1FU);
 80026d2:	0963      	lsrs	r3, r4, #5
 80026d4:	009b      	lsls	r3, r3, #2
 80026d6:	40b5      	lsls	r5, r6
 80026d8:	f103 4360 	add.w	r3, r3, #3758096384	; 0xe0000000
  NVIC->IP[n] = NVIC_PRIORITY_MASK(prio);
 80026dc:	f104 4660 	add.w	r6, r4, #3758096384	; 0xe0000000
 80026e0:	603d      	str	r5, [r7, #0]
 80026e2:	f503 4361 	add.w	r3, r3, #57600	; 0xe100
  NVIC->ICPR[n >> 5U] = 1U << (n & 0x1FU);
 80026e6:	2501      	movs	r5, #1
  NVIC->IP[n] = NVIC_PRIORITY_MASK(prio);
 80026e8:	f506 4661 	add.w	r6, r6, #57600	; 0xe100
  NVIC->ICPR[n >> 5U] = 1U << (n & 0x1FU);
 80026ec:	f004 041f 	and.w	r4, r4, #31
      dmastp->stream->CR = STM32_DMA_CR_RESET_VALUE;
 80026f0:	600a      	str	r2, [r1, #0]
 80026f2:	fa05 f404 	lsl.w	r4, r5, r4
  NVIC->IP[n] = NVIC_PRIORITY_MASK(prio);
 80026f6:	22a0      	movs	r2, #160	; 0xa0
      dmastp->stream->FCR = STM32_DMA_FCR_RESET_VALUE;
 80026f8:	2521      	movs	r5, #33	; 0x21
 80026fa:	614d      	str	r5, [r1, #20]
 80026fc:	f886 2300 	strb.w	r2, [r6, #768]	; 0x300
  NVIC->ICPR[n >> 5U] = 1U << (n & 0x1FU);
 8002700:	f8c3 4180 	str.w	r4, [r3, #384]	; 0x180
  NVIC->ISER[n >> 5U] = 1U << (n & 0x1FU);
 8002704:	601c      	str	r4, [r3, #0]
 8002706:	e7b5      	b.n	8002674 <dmaStreamAllocI.part.0.constprop.0+0x14>
        rccEnableDMA1(true);
 8002708:	4a08      	ldr	r2, [pc, #32]	; (800272c <dmaStreamAllocI.part.0.constprop.0+0xcc>)
 800270a:	6b11      	ldr	r1, [r2, #48]	; 0x30
 800270c:	f441 1100 	orr.w	r1, r1, #2097152	; 0x200000
 8002710:	6311      	str	r1, [r2, #48]	; 0x30
 8002712:	6d11      	ldr	r1, [r2, #80]	; 0x50
 8002714:	f441 1100 	orr.w	r1, r1, #2097152	; 0x200000
 8002718:	6511      	str	r1, [r2, #80]	; 0x50
 800271a:	6d12      	ldr	r2, [r2, #80]	; 0x50
 800271c:	e7bd      	b.n	800269a <dmaStreamAllocI.part.0.constprop.0+0x3a>
 800271e:	bf00      	nop
 8002720:	2000144c 	.word	0x2000144c
 8002724:	08006700 	.word	0x08006700
 8002728:	200011a4 	.word	0x200011a4
 800272c:	40023800 	.word	0x40023800

08002730 <_pal_lld_setgroupmode.constprop.0>:
 * @param[in] mask      the group mask
 * @param[in] mode      the mode
 *
 * @notapi
 */
void _pal_lld_setgroupmode(ioportid_t port,
 8002730:	e92d 41f0 	stmdb	sp!, {r4, r5, r6, r7, r8, lr}
                           ioportmask_t mask,
                           iomode_t mode) {

  uint32_t moder   = (mode & PAL_STM32_MODE_MASK) >> 0;
 8002734:	2601      	movs	r6, #1
  while (true) {
    if ((mask & 1) != 0) {
      uint32_t altrmask, m1, m2, m4;

      altrmask = altr << ((bit & 7) * 4);
      m1 = 1 << bit;
 8002736:	46b6      	mov	lr, r6
  uint32_t bit     = 0;
 8002738:	2300      	movs	r3, #0
      m2 = 3 << (bit * 2);
      m4 = 15 << ((bit & 7) * 4);
 800273a:	f04f 0c0f 	mov.w	ip, #15
      m2 = 3 << (bit * 2);
 800273e:	2703      	movs	r7, #3
 8002740:	e007      	b.n	8002752 <_pal_lld_setgroupmode.constprop.0+0x22>
      else {
        /* If going into a non-alternate mode then the mode is switched
           before setting the alternate mode in order to avoid glitches.*/
        port->MODER   = (port->MODER & ~m2) | moder;
        if (bit < 8)
          port->AFRL = (port->AFRL & ~m4) | altrmask;
 8002742:	6a04      	ldr	r4, [r0, #32]
 8002744:	ea24 0202 	bic.w	r2, r4, r2
 8002748:	6202      	str	r2, [r0, #32]
        else
          port->AFRH = (port->AFRH & ~m4) | altrmask;
      }
    }
    mask >>= 1;
    if (!mask)
 800274a:	0849      	lsrs	r1, r1, #1
 800274c:	d027      	beq.n	800279e <_pal_lld_setgroupmode.constprop.0+0x6e>
      return;
    otyper <<= 1;
    ospeedr <<= 2;
    pupdr <<= 2;
    moder <<= 2;
 800274e:	00b6      	lsls	r6, r6, #2
    bit++;
 8002750:	3301      	adds	r3, #1
      altrmask = altr << ((bit & 7) * 4);
 8002752:	f003 0207 	and.w	r2, r3, #7
      m2 = 3 << (bit * 2);
 8002756:	005c      	lsls	r4, r3, #1
      altrmask = altr << ((bit & 7) * 4);
 8002758:	0092      	lsls	r2, r2, #2
    if ((mask & 1) != 0) {
 800275a:	f011 0f01 	tst.w	r1, #1
      m1 = 1 << bit;
 800275e:	fa0e f803 	lsl.w	r8, lr, r3
      m2 = 3 << (bit * 2);
 8002762:	fa07 f404 	lsl.w	r4, r7, r4
      m4 = 15 << ((bit & 7) * 4);
 8002766:	fa0c f202 	lsl.w	r2, ip, r2
    if ((mask & 1) != 0) {
 800276a:	d0ee      	beq.n	800274a <_pal_lld_setgroupmode.constprop.0+0x1a>
      port->OTYPER  = (port->OTYPER & ~m1) | otyper;
 800276c:	6845      	ldr	r5, [r0, #4]
 800276e:	ea25 0508 	bic.w	r5, r5, r8
 8002772:	6045      	str	r5, [r0, #4]
      port->OSPEEDR = (port->OSPEEDR & ~m2) | ospeedr;
 8002774:	6885      	ldr	r5, [r0, #8]
 8002776:	ea25 0504 	bic.w	r5, r5, r4
 800277a:	6085      	str	r5, [r0, #8]
      port->PUPDR   = (port->PUPDR & ~m2) | pupdr;
 800277c:	68c5      	ldr	r5, [r0, #12]
 800277e:	ea25 0504 	bic.w	r5, r5, r4
 8002782:	60c5      	str	r5, [r0, #12]
        port->MODER   = (port->MODER & ~m2) | moder;
 8002784:	6805      	ldr	r5, [r0, #0]
 8002786:	ea25 0404 	bic.w	r4, r5, r4
 800278a:	4334      	orrs	r4, r6
        if (bit < 8)
 800278c:	2b07      	cmp	r3, #7
        port->MODER   = (port->MODER & ~m2) | moder;
 800278e:	6004      	str	r4, [r0, #0]
        if (bit < 8)
 8002790:	d9d7      	bls.n	8002742 <_pal_lld_setgroupmode.constprop.0+0x12>
          port->AFRH = (port->AFRH & ~m4) | altrmask;
 8002792:	6a44      	ldr	r4, [r0, #36]	; 0x24
    if (!mask)
 8002794:	0849      	lsrs	r1, r1, #1
          port->AFRH = (port->AFRH & ~m4) | altrmask;
 8002796:	ea24 0202 	bic.w	r2, r4, r2
 800279a:	6242      	str	r2, [r0, #36]	; 0x24
    if (!mask)
 800279c:	d1d7      	bne.n	800274e <_pal_lld_setgroupmode.constprop.0+0x1e>
  }
}
 800279e:	e8bd 81f0 	ldmia.w	sp!, {r4, r5, r6, r7, r8, pc}
 80027a2:	bf00      	nop
	...

080027b0 <_ZN5L647030L6470_PrepareDaisyChainCommandEP18sL6470_AppCmdPkg_tPh.constprop.0>:
  
  /* Reset the structure used to send the command to the L6470 Daisy Chain through the SPI */
  uint8_t i = 0;
  for(spibyte=0;spibyte<L6470MAXSPICMDBYTESIZE;spibyte++)
    for(PkgId=0; PkgId<L6470DAISYCHAINSIZE; PkgId++)
      *(pL6470_DaisyChainSpiTxStruct+(i++)) = 0x00;
 80027b0:	4b50      	ldr	r3, [pc, #320]	; (80028f4 <_ZN5L647030L6470_PrepareDaisyChainCommandEP18sL6470_AppCmdPkg_tPh.constprop.0+0x144>)
 80027b2:	4a51      	ldr	r2, [pc, #324]	; (80028f8 <_ZN5L647030L6470_PrepareDaisyChainCommandEP18sL6470_AppCmdPkg_tPh.constprop.0+0x148>)
void L6470::L6470_PrepareDaisyChainCommand(sL6470_AppCmdPkg_t* pL6470_AppCmdPkg, uint8_t* pL6470_DaisyChainSpiTxStruct)
 80027b4:	e92d 41f0 	stmdb	sp!, {r4, r5, r6, r7, r8, lr}
      *(pL6470_DaisyChainSpiTxStruct+(i++)) = 0x00;
 80027b8:	2500      	movs	r5, #0
 80027ba:	e9c3 5500 	strd	r5, r5, [r3]
 80027be:	461e      	mov	r6, r3
 80027c0:	4619      	mov	r1, r3
      PARAMLengthBytes = L6470_Register[((pL6470_AppCmdPkg+PkgId)->p1)].LengthByte;
      
      /* Build the others bytes to transmit (VALUE) */
      for (spibyte=1; spibyte<(PARAMLengthBytes+1); spibyte++)
      {
        *(pL6470_DaisyChainSpiTxStruct+((spibyte*L6470DAISYCHAINSIZE)+PkgId)) = (uint8_t)(((pL6470_AppCmdPkg+PkgId)->p2) >> (8*(PARAMLengthBytes-spibyte)));
 80027c2:	f04f 0c02 	mov.w	ip, #2
    *(pL6470_DaisyChainSpiTxStruct+((0*L6470DAISYCHAINSIZE)+PkgId)) = (L6470_ApplicationCommand[(pL6470_AppCmdPkg+PkgId)->L6470_AppCmdId].BinaryCode);
 80027c6:	7813      	ldrb	r3, [r2, #0]
 80027c8:	69c4      	ldr	r4, [r0, #28]
 80027ca:	ebc3 07c3 	rsb	r7, r3, r3, lsl #3
 80027ce:	eb04 0447 	add.w	r4, r4, r7, lsl #1
 80027d2:	1e5f      	subs	r7, r3, #1
 80027d4:	7b24      	ldrb	r4, [r4, #12]
 80027d6:	f801 4b01 	strb.w	r4, [r1], #1
 80027da:	2f08      	cmp	r7, #8
 80027dc:	d818      	bhi.n	8002810 <_ZN5L647030L6470_PrepareDaisyChainCommandEP18sL6470_AppCmdPkg_tPh.constprop.0+0x60>
 80027de:	e8df f007 	tbb	[pc, r7]
 80027e2:	616b      	.short	0x616b
 80027e4:	1d054105 	.word	0x1d054105
 80027e8:	2405      	.short	0x2405
 80027ea:	4b          	.byte	0x4b
 80027eb:	00          	.byte	0x00
      *(pL6470_DaisyChainSpiTxStruct+((0*L6470DAISYCHAINSIZE)+PkgId)) |= (L6470_Direction[((pL6470_AppCmdPkg+PkgId)->p1)].BinaryCode);
      
      /* Build the others bytes to transmit (ABS_POS) */
      for (spibyte=1; spibyte<(3+1); spibyte++)
      {
        *(pL6470_DaisyChainSpiTxStruct+((spibyte*L6470DAISYCHAINSIZE)+PkgId)) = (uint8_t)(((pL6470_AppCmdPkg+PkgId)->p2) >> (8*(3-spibyte)));
 80027ec:	e9d2 3701 	ldrd	r3, r7, [r2, #4]
      *(pL6470_DaisyChainSpiTxStruct+((0*L6470DAISYCHAINSIZE)+PkgId)) |= (L6470_Direction[((pL6470_AppCmdPkg+PkgId)->p1)].BinaryCode);
 80027f0:	eb03 0ec3 	add.w	lr, r3, r3, lsl #3
 80027f4:	6a03      	ldr	r3, [r0, #32]
 80027f6:	449e      	add	lr, r3
        *(pL6470_DaisyChainSpiTxStruct+((spibyte*L6470DAISYCHAINSIZE)+PkgId)) = (uint8_t)(((pL6470_AppCmdPkg+PkgId)->p2) >> (8*(3-spibyte)));
 80027f8:	ea4f 4817 	mov.w	r8, r7, lsr #16
      *(pL6470_DaisyChainSpiTxStruct+((0*L6470DAISYCHAINSIZE)+PkgId)) |= (L6470_Direction[((pL6470_AppCmdPkg+PkgId)->p1)].BinaryCode);
 80027fc:	f89e 3008 	ldrb.w	r3, [lr, #8]
        *(pL6470_DaisyChainSpiTxStruct+((spibyte*L6470DAISYCHAINSIZE)+PkgId)) = (uint8_t)(((pL6470_AppCmdPkg+PkgId)->p2) >> (8*(3-spibyte)));
 8002800:	714f      	strb	r7, [r1, #5]
      *(pL6470_DaisyChainSpiTxStruct+((0*L6470DAISYCHAINSIZE)+PkgId)) |= (L6470_Direction[((pL6470_AppCmdPkg+PkgId)->p1)].BinaryCode);
 8002802:	431c      	orrs	r4, r3
        *(pL6470_DaisyChainSpiTxStruct+((spibyte*L6470DAISYCHAINSIZE)+PkgId)) = (uint8_t)(((pL6470_AppCmdPkg+PkgId)->p2) >> (8*(3-spibyte)));
 8002804:	0a3f      	lsrs	r7, r7, #8
      *(pL6470_DaisyChainSpiTxStruct+((0*L6470DAISYCHAINSIZE)+PkgId)) |= (L6470_Direction[((pL6470_AppCmdPkg+PkgId)->p1)].BinaryCode);
 8002806:	f801 4c01 	strb.w	r4, [r1, #-1]
        *(pL6470_DaisyChainSpiTxStruct+((spibyte*L6470DAISYCHAINSIZE)+PkgId)) = (uint8_t)(((pL6470_AppCmdPkg+PkgId)->p2) >> (8*(3-spibyte)));
 800280a:	f881 8001 	strb.w	r8, [r1, #1]
 800280e:	70cf      	strb	r7, [r1, #3]
 8002810:	3210      	adds	r2, #16
  for(PkgId=0; PkgId<L6470DAISYCHAINSIZE; PkgId++)
 8002812:	b10d      	cbz	r5, 8002818 <_ZN5L647030L6470_PrepareDaisyChainCommandEP18sL6470_AppCmdPkg_tPh.constprop.0+0x68>
      break;
    case L6470_GETSTATUS_ID:
      break;
    }
  }
}
 8002814:	e8bd 81f0 	ldmia.w	sp!, {r4, r5, r6, r7, r8, pc}
  for(PkgId=0; PkgId<L6470DAISYCHAINSIZE; PkgId++)
 8002818:	2501      	movs	r5, #1
 800281a:	e7d4      	b.n	80027c6 <_ZN5L647030L6470_PrepareDaisyChainCommandEP18sL6470_AppCmdPkg_tPh.constprop.0+0x16>
        *(pL6470_DaisyChainSpiTxStruct+((spibyte*L6470DAISYCHAINSIZE)+PkgId)) = (uint8_t)(((pL6470_AppCmdPkg+PkgId)->p1) >> (8*(3-spibyte)));
 800281c:	6853      	ldr	r3, [r2, #4]
 800281e:	714b      	strb	r3, [r1, #5]
 8002820:	0c1c      	lsrs	r4, r3, #16
 8002822:	0a1b      	lsrs	r3, r3, #8
 8002824:	704c      	strb	r4, [r1, #1]
 8002826:	70cb      	strb	r3, [r1, #3]
 8002828:	e7f2      	b.n	8002810 <_ZN5L647030L6470_PrepareDaisyChainCommandEP18sL6470_AppCmdPkg_tPh.constprop.0+0x60>
      *(pL6470_DaisyChainSpiTxStruct+((0*L6470DAISYCHAINSIZE)+PkgId)) |= (L6470_Direction[((pL6470_AppCmdPkg+PkgId)->p2)].BinaryCode);
 800282a:	e9d2 3701 	ldrd	r3, r7, [r2, #4]
      *(pL6470_DaisyChainSpiTxStruct+((0*L6470DAISYCHAINSIZE)+PkgId)) |= ((L6470_ACT[((pL6470_AppCmdPkg+PkgId)->p1)].BinaryCode)<<3);
 800282e:	eb03 0e83 	add.w	lr, r3, r3, lsl #2
 8002832:	6a43      	ldr	r3, [r0, #36]	; 0x24
 8002834:	4473      	add	r3, lr
      *(pL6470_DaisyChainSpiTxStruct+((0*L6470DAISYCHAINSIZE)+PkgId)) |= (L6470_Direction[((pL6470_AppCmdPkg+PkgId)->p2)].BinaryCode);
 8002836:	eb07 0ec7 	add.w	lr, r7, r7, lsl #3
      *(pL6470_DaisyChainSpiTxStruct+((0*L6470DAISYCHAINSIZE)+PkgId)) |= ((L6470_ACT[((pL6470_AppCmdPkg+PkgId)->p1)].BinaryCode)<<3);
 800283a:	791b      	ldrb	r3, [r3, #4]
        *(pL6470_DaisyChainSpiTxStruct+((spibyte*L6470DAISYCHAINSIZE)+PkgId)) = (uint8_t)(((pL6470_AppCmdPkg+PkgId)->p3) >> (8*(3-spibyte)));
 800283c:	68d7      	ldr	r7, [r2, #12]
      *(pL6470_DaisyChainSpiTxStruct+((0*L6470DAISYCHAINSIZE)+PkgId)) |= ((L6470_ACT[((pL6470_AppCmdPkg+PkgId)->p1)].BinaryCode)<<3);
 800283e:	ea44 04c3 	orr.w	r4, r4, r3, lsl #3
 8002842:	b2e4      	uxtb	r4, r4
 8002844:	f801 4c01 	strb.w	r4, [r1, #-1]
      *(pL6470_DaisyChainSpiTxStruct+((0*L6470DAISYCHAINSIZE)+PkgId)) |= (L6470_Direction[((pL6470_AppCmdPkg+PkgId)->p2)].BinaryCode);
 8002848:	6a03      	ldr	r3, [r0, #32]
 800284a:	4473      	add	r3, lr
        *(pL6470_DaisyChainSpiTxStruct+((spibyte*L6470DAISYCHAINSIZE)+PkgId)) = (uint8_t)(((pL6470_AppCmdPkg+PkgId)->p3) >> (8*(3-spibyte)));
 800284c:	ea4f 4e17 	mov.w	lr, r7, lsr #16
      *(pL6470_DaisyChainSpiTxStruct+((0*L6470DAISYCHAINSIZE)+PkgId)) |= (L6470_Direction[((pL6470_AppCmdPkg+PkgId)->p2)].BinaryCode);
 8002850:	7a1b      	ldrb	r3, [r3, #8]
        *(pL6470_DaisyChainSpiTxStruct+((spibyte*L6470DAISYCHAINSIZE)+PkgId)) = (uint8_t)(((pL6470_AppCmdPkg+PkgId)->p3) >> (8*(3-spibyte)));
 8002852:	714f      	strb	r7, [r1, #5]
      *(pL6470_DaisyChainSpiTxStruct+((0*L6470DAISYCHAINSIZE)+PkgId)) |= (L6470_Direction[((pL6470_AppCmdPkg+PkgId)->p2)].BinaryCode);
 8002854:	431c      	orrs	r4, r3
        *(pL6470_DaisyChainSpiTxStruct+((spibyte*L6470DAISYCHAINSIZE)+PkgId)) = (uint8_t)(((pL6470_AppCmdPkg+PkgId)->p3) >> (8*(3-spibyte)));
 8002856:	0a3f      	lsrs	r7, r7, #8
      *(pL6470_DaisyChainSpiTxStruct+((0*L6470DAISYCHAINSIZE)+PkgId)) |= (L6470_Direction[((pL6470_AppCmdPkg+PkgId)->p2)].BinaryCode);
 8002858:	f801 4c01 	strb.w	r4, [r1, #-1]
        *(pL6470_DaisyChainSpiTxStruct+((spibyte*L6470DAISYCHAINSIZE)+PkgId)) = (uint8_t)(((pL6470_AppCmdPkg+PkgId)->p3) >> (8*(3-spibyte)));
 800285c:	f881 e001 	strb.w	lr, [r1, #1]
 8002860:	70cf      	strb	r7, [r1, #3]
 8002862:	e7d5      	b.n	8002810 <_ZN5L647030L6470_PrepareDaisyChainCommandEP18sL6470_AppCmdPkg_tPh.constprop.0+0x60>
      *(pL6470_DaisyChainSpiTxStruct+((0*L6470DAISYCHAINSIZE)+PkgId)) |= (L6470_Direction[((pL6470_AppCmdPkg+PkgId)->p1)].BinaryCode);
 8002864:	6857      	ldr	r7, [r2, #4]
 8002866:	6a03      	ldr	r3, [r0, #32]
 8002868:	eb07 07c7 	add.w	r7, r7, r7, lsl #3
 800286c:	441f      	add	r7, r3
 800286e:	7a3b      	ldrb	r3, [r7, #8]
 8002870:	431c      	orrs	r4, r3
 8002872:	f801 4c01 	strb.w	r4, [r1, #-1]
 8002876:	e7cb      	b.n	8002810 <_ZN5L647030L6470_PrepareDaisyChainCommandEP18sL6470_AppCmdPkg_tPh.constprop.0+0x60>
      *(pL6470_DaisyChainSpiTxStruct+((0*L6470DAISYCHAINSIZE)+PkgId)) |= (L6470_Direction[((pL6470_AppCmdPkg+PkgId)->p2)].BinaryCode);
 8002878:	e9d2 3701 	ldrd	r3, r7, [r2, #4]
      *(pL6470_DaisyChainSpiTxStruct+((0*L6470DAISYCHAINSIZE)+PkgId)) |= ((L6470_ACT[((pL6470_AppCmdPkg+PkgId)->p1)].BinaryCode)<<3);
 800287c:	eb03 0e83 	add.w	lr, r3, r3, lsl #2
 8002880:	6a43      	ldr	r3, [r0, #36]	; 0x24
 8002882:	449e      	add	lr, r3
      *(pL6470_DaisyChainSpiTxStruct+((0*L6470DAISYCHAINSIZE)+PkgId)) |= (L6470_Direction[((pL6470_AppCmdPkg+PkgId)->p2)].BinaryCode);
 8002884:	eb07 07c7 	add.w	r7, r7, r7, lsl #3
      *(pL6470_DaisyChainSpiTxStruct+((0*L6470DAISYCHAINSIZE)+PkgId)) |= ((L6470_ACT[((pL6470_AppCmdPkg+PkgId)->p1)].BinaryCode)<<3);
 8002888:	f89e 3004 	ldrb.w	r3, [lr, #4]
 800288c:	ea44 04c3 	orr.w	r4, r4, r3, lsl #3
 8002890:	b2e4      	uxtb	r4, r4
 8002892:	f801 4c01 	strb.w	r4, [r1, #-1]
      *(pL6470_DaisyChainSpiTxStruct+((0*L6470DAISYCHAINSIZE)+PkgId)) |= (L6470_Direction[((pL6470_AppCmdPkg+PkgId)->p2)].BinaryCode);
 8002896:	6a03      	ldr	r3, [r0, #32]
 8002898:	441f      	add	r7, r3
 800289a:	7a3b      	ldrb	r3, [r7, #8]
 800289c:	431c      	orrs	r4, r3
 800289e:	f801 4c01 	strb.w	r4, [r1, #-1]
 80028a2:	e7b5      	b.n	8002810 <_ZN5L647030L6470_PrepareDaisyChainCommandEP18sL6470_AppCmdPkg_tPh.constprop.0+0x60>
      *(pL6470_DaisyChainSpiTxStruct+((0*L6470DAISYCHAINSIZE)+PkgId)) |= (L6470_Register[((pL6470_AppCmdPkg+PkgId)->p1)].Address);
 80028a4:	6857      	ldr	r7, [r2, #4]
 80028a6:	6983      	ldr	r3, [r0, #24]
 80028a8:	eb07 0787 	add.w	r7, r7, r7, lsl #2
 80028ac:	f813 3027 	ldrb.w	r3, [r3, r7, lsl #2]
 80028b0:	431c      	orrs	r4, r3
 80028b2:	f801 4c01 	strb.w	r4, [r1, #-1]
 80028b6:	e7ab      	b.n	8002810 <_ZN5L647030L6470_PrepareDaisyChainCommandEP18sL6470_AppCmdPkg_tPh.constprop.0+0x60>
      *(pL6470_DaisyChainSpiTxStruct+((0*L6470DAISYCHAINSIZE)+PkgId)) |= (L6470_Register[((pL6470_AppCmdPkg+PkgId)->p1)].Address);
 80028b8:	6857      	ldr	r7, [r2, #4]
 80028ba:	eb07 0e87 	add.w	lr, r7, r7, lsl #2
 80028be:	6987      	ldr	r7, [r0, #24]
 80028c0:	f817 702e 	ldrb.w	r7, [r7, lr, lsl #2]
 80028c4:	433c      	orrs	r4, r7
 80028c6:	f801 4c01 	strb.w	r4, [r1, #-1]
      PARAMLengthBytes = L6470_Register[((pL6470_AppCmdPkg+PkgId)->p1)].LengthByte;
 80028ca:	6984      	ldr	r4, [r0, #24]
 80028cc:	eb04 048e 	add.w	r4, r4, lr, lsl #2
 80028d0:	7ba7      	ldrb	r7, [r4, #14]
      for (spibyte=1; spibyte<(PARAMLengthBytes+1); spibyte++)
 80028d2:	2f00      	cmp	r7, #0
 80028d4:	d09c      	beq.n	8002810 <_ZN5L647030L6470_PrepareDaisyChainCommandEP18sL6470_AppCmdPkg_tPh.constprop.0+0x60>
        *(pL6470_DaisyChainSpiTxStruct+((spibyte*L6470DAISYCHAINSIZE)+PkgId)) = (uint8_t)(((pL6470_AppCmdPkg+PkgId)->p2) >> (8*(PARAMLengthBytes-spibyte)));
 80028d6:	f8d2 8008 	ldr.w	r8, [r2, #8]
 80028da:	1afc      	subs	r4, r7, r3
 80028dc:	fb1c 5e03 	smlabb	lr, ip, r3, r5
      for (spibyte=1; spibyte<(PARAMLengthBytes+1); spibyte++)
 80028e0:	3301      	adds	r3, #1
        *(pL6470_DaisyChainSpiTxStruct+((spibyte*L6470DAISYCHAINSIZE)+PkgId)) = (uint8_t)(((pL6470_AppCmdPkg+PkgId)->p2) >> (8*(PARAMLengthBytes-spibyte)));
 80028e2:	00e4      	lsls	r4, r4, #3
      for (spibyte=1; spibyte<(PARAMLengthBytes+1); spibyte++)
 80028e4:	b2db      	uxtb	r3, r3
        *(pL6470_DaisyChainSpiTxStruct+((spibyte*L6470DAISYCHAINSIZE)+PkgId)) = (uint8_t)(((pL6470_AppCmdPkg+PkgId)->p2) >> (8*(PARAMLengthBytes-spibyte)));
 80028e6:	fa28 f404 	lsr.w	r4, r8, r4
      for (spibyte=1; spibyte<(PARAMLengthBytes+1); spibyte++)
 80028ea:	429f      	cmp	r7, r3
        *(pL6470_DaisyChainSpiTxStruct+((spibyte*L6470DAISYCHAINSIZE)+PkgId)) = (uint8_t)(((pL6470_AppCmdPkg+PkgId)->p2) >> (8*(PARAMLengthBytes-spibyte)));
 80028ec:	f806 400e 	strb.w	r4, [r6, lr]
      for (spibyte=1; spibyte<(PARAMLengthBytes+1); spibyte++)
 80028f0:	d2f3      	bcs.n	80028da <_ZN5L647030L6470_PrepareDaisyChainCommandEP18sL6470_AppCmdPkg_tPh.constprop.0+0x12a>
 80028f2:	e78d      	b.n	8002810 <_ZN5L647030L6470_PrepareDaisyChainCommandEP18sL6470_AppCmdPkg_tPh.constprop.0+0x60>
 80028f4:	20001200 	.word	0x20001200
 80028f8:	200011d4 	.word	0x200011d4
 80028fc:	00000000 	.word	0x00000000

08002900 <_ZN5L647023L6470_Position_2_AbsPosEl.constprop.0>:
  * @param  Position    The position as signed number.
  * @retval AbsPos      The absolute position in the range from [-(2^21)] to [+(2^21)-1].
  */
uint32_t L6470::L6470_Position_2_AbsPos(int32_t Position)
{
  if ((Position >= 0) && (Position <= L6470_MAX_POSITION))
 8002900:	f5b0 1f00 	cmp.w	r0, #2097152	; 0x200000
 8002904:	d307      	bcc.n	8002916 <_ZN5L647023L6470_Position_2_AbsPosEl.constprop.0+0x16>
    return Position;
  else
  {
    if ((Position >= L6470_MIN_POSITION) && (Position < 0))
 8002906:	f510 1f00 	cmn.w	r0, #2097152	; 0x200000
 800290a:	d302      	bcc.n	8002912 <_ZN5L647023L6470_Position_2_AbsPosEl.constprop.0+0x12>
      return (Position + (L6470_POSITION_RANGE + 1));
 800290c:	f500 0080 	add.w	r0, r0, #4194304	; 0x400000
 8002910:	4770      	bx	lr
    else
      return (L6470_POSITION_RANGE + 1);        // OVF
 8002912:	f44f 0080 	mov.w	r0, #4194304	; 0x400000
  }
}
 8002916:	4770      	bx	lr
	...

08002920 <chCoreAllocFromTop>:
 * @return              A pointer to the allocated memory block.
 * @retval NULL         allocation failed, core memory exhausted.
 *
 * @api
 */
void *chCoreAllocFromTop(size_t size, unsigned align, size_t offset) {
 8002920:	b430      	push	{r4, r5}
  \details Assigns the given value to the Base Priority register.
  \param [in]    basePri  Base Priority value to set
 */
__STATIC_FORCEINLINE void __set_BASEPRI(uint32_t basePri)
{
  __ASM volatile ("MSR basepri, %0" : : "r" (basePri) : "memory");
 8002922:	2320      	movs	r3, #32
 8002924:	f383 8811 	msr	BASEPRI, r3
  p = (uint8_t *)MEM_ALIGN_PREV(ch_memcore.topmem - size, align);
 8002928:	4c0b      	ldr	r4, [pc, #44]	; (8002958 <chCoreAllocFromTop+0x38>)
  if ((prev < ch_memcore.basemem) || (prev > ch_memcore.topmem)) {
 800292a:	e9d4 3500 	ldrd	r3, r5, [r4]
  p = (uint8_t *)MEM_ALIGN_PREV(ch_memcore.topmem - size, align);
 800292e:	4249      	negs	r1, r1
 8002930:	1a28      	subs	r0, r5, r0
 8002932:	4008      	ands	r0, r1
  prev = p - offset;
 8002934:	1a82      	subs	r2, r0, r2
  if ((prev < ch_memcore.basemem) || (prev > ch_memcore.topmem)) {
 8002936:	429a      	cmp	r2, r3
 8002938:	d307      	bcc.n	800294a <chCoreAllocFromTop+0x2a>
 800293a:	4295      	cmp	r5, r2
 800293c:	d305      	bcc.n	800294a <chCoreAllocFromTop+0x2a>
  ch_memcore.topmem = prev;
 800293e:	6062      	str	r2, [r4, #4]
 8002940:	2300      	movs	r3, #0
 8002942:	f383 8811 	msr	BASEPRI, r3
  chSysLock();
  p = chCoreAllocFromTopI(size, align, offset);
  chSysUnlock();

  return p;
}
 8002946:	bc30      	pop	{r4, r5}
 8002948:	4770      	bx	lr
    return NULL;
 800294a:	2000      	movs	r0, #0
 800294c:	2300      	movs	r3, #0
 800294e:	f383 8811 	msr	BASEPRI, r3
}
 8002952:	bc30      	pop	{r4, r5}
 8002954:	4770      	bx	lr
 8002956:	bf00      	nop
 8002958:	20001428 	.word	0x20001428
 800295c:	00000000 	.word	0x00000000

08002960 <notify2>:

#if STM32_SERIAL_USE_USART2 || defined(__DOXYGEN__)
static void notify2(io_queue_t *qp) {

  (void)qp;
  USART2->CR1 |= USART_CR1_TXEIE | USART_CR1_TCIE;
 8002960:	4a02      	ldr	r2, [pc, #8]	; (800296c <notify2+0xc>)
 8002962:	68d3      	ldr	r3, [r2, #12]
 8002964:	f043 03c0 	orr.w	r3, r3, #192	; 0xc0
 8002968:	60d3      	str	r3, [r2, #12]
}
 800296a:	4770      	bx	lr
 800296c:	40004400 	.word	0x40004400

08002970 <_ZN5L647020prepare_reset_deviceEv>:
      * @brief  Preparing the command to reset the device to power-up conditions.
      * @param  None.
      * @retval None.
      * @note   The command will be sent by issuing "perform_action()".
      */
    virtual void prepare_reset_device(void)
 8002970:	b430      	push	{r4, r5}
  if(!L6470_DaisyChain_HalfPrepared)
 8002972:	490e      	ldr	r1, [pc, #56]	; (80029ac <_ZN5L647020prepare_reset_deviceEv+0x3c>)
    (pL6470_AppCmdPkg+id)->L6470_AppCmdId=(eL6470_AppCmdId_t)0;
 8002974:	4a0e      	ldr	r2, [pc, #56]	; (80029b0 <_ZN5L647020prepare_reset_deviceEv+0x40>)
  if(!L6470_DaisyChain_HalfPrepared)
 8002976:	780b      	ldrb	r3, [r1, #0]
 8002978:	b94b      	cbnz	r3, 800298e <_ZN5L647020prepare_reset_deviceEv+0x1e>
    (pL6470_AppCmdPkg+id)->p2=0;
 800297a:	e9c2 3301 	strd	r3, r3, [r2, #4]
 800297e:	e9c2 3305 	strd	r3, r3, [r2, #20]
    L6470_DaisyChain_HalfPrepared = ONE_F; /* To avoid to delete the previous entered command */
 8002982:	2401      	movs	r4, #1
    (pL6470_AppCmdPkg+id)->L6470_AppCmdId=(eL6470_AppCmdId_t)0;
 8002984:	7013      	strb	r3, [r2, #0]
    (pL6470_AppCmdPkg+id)->p3=0;
 8002986:	60d3      	str	r3, [r2, #12]
    (pL6470_AppCmdPkg+id)->L6470_AppCmdId=(eL6470_AppCmdId_t)0;
 8002988:	7413      	strb	r3, [r2, #16]
    (pL6470_AppCmdPkg+id)->p3=0;
 800298a:	61d3      	str	r3, [r2, #28]
    L6470_DaisyChain_HalfPrepared = ONE_F; /* To avoid to delete the previous entered command */
 800298c:	700c      	strb	r4, [r1, #0]
  (pL6470_AppCmdPkg+L6470_Id)->L6470_AppCmdId = L6470_AppCmdId;
 800298e:	7d43      	ldrb	r3, [r0, #21]
 8002990:	011c      	lsls	r4, r3, #4
 8002992:	250d      	movs	r5, #13
 8002994:	5515      	strb	r5, [r2, r4]
 8002996:	eb02 1303 	add.w	r3, r2, r3, lsl #4
  (pL6470_AppCmdPkg+L6470_Id)->p1 = p1;
 800299a:	2100      	movs	r1, #0
  (pL6470_AppCmdPkg+L6470_Id)->p2 = p2;
 800299c:	e9c3 1101 	strd	r1, r1, [r3, #4]
  (pL6470_AppCmdPkg+L6470_Id)->p3 = p3;
 80029a0:	60d9      	str	r1, [r3, #12]
    {
        L6470_PrepareResetDevice();
        prepared_action = PREPARED_NO_ACTION;
    }
 80029a2:	bc30      	pop	{r4, r5}
        prepared_action = PREPARED_NO_ACTION;
 80029a4:	f880 1060 	strb.w	r1, [r0, #96]	; 0x60
    }
 80029a8:	4770      	bx	lr
 80029aa:	bf00      	nop
 80029ac:	20001208 	.word	0x20001208
 80029b0:	200011d4 	.word	0x200011d4
	...

080029c0 <_ZN5L647018prepare_release_swE14eL6470_ActId_tN12StepperMotor11direction_tE>:
    virtual void prepare_release_sw(eL6470_ActId_t action, direction_t direction)
 80029c0:	b4f0      	push	{r4, r5, r6, r7}
  if(!L6470_DaisyChain_HalfPrepared)
 80029c2:	4d10      	ldr	r5, [pc, #64]	; (8002a04 <_ZN5L647018prepare_release_swE14eL6470_ActId_tN12StepperMotor11direction_tE+0x44>)
    (pL6470_AppCmdPkg+id)->L6470_AppCmdId=(eL6470_AppCmdId_t)0;
 80029c4:	4c10      	ldr	r4, [pc, #64]	; (8002a08 <_ZN5L647018prepare_release_swE14eL6470_ActId_tN12StepperMotor11direction_tE+0x48>)
  if(!L6470_DaisyChain_HalfPrepared)
 80029c6:	782b      	ldrb	r3, [r5, #0]
        L6470_PrepareReleaseSW((eL6470_ActId_t) action, (eL6470_DirId_t) (direction == StepperMotor::FWD ? L6470_DIR_FWD_ID : L6470_DIR_REV_ID));
 80029c8:	f1a2 0201 	sub.w	r2, r2, #1
 80029cc:	fab2 f282 	clz	r2, r2
 80029d0:	0952      	lsrs	r2, r2, #5
 80029d2:	b94b      	cbnz	r3, 80029e8 <_ZN5L647018prepare_release_swE14eL6470_ActId_tN12StepperMotor11direction_tE+0x28>
    (pL6470_AppCmdPkg+id)->p2=0;
 80029d4:	e9c4 3301 	strd	r3, r3, [r4, #4]
 80029d8:	e9c4 3305 	strd	r3, r3, [r4, #20]
    L6470_DaisyChain_HalfPrepared = ONE_F; /* To avoid to delete the previous entered command */
 80029dc:	2601      	movs	r6, #1
    (pL6470_AppCmdPkg+id)->L6470_AppCmdId=(eL6470_AppCmdId_t)0;
 80029de:	7023      	strb	r3, [r4, #0]
    (pL6470_AppCmdPkg+id)->p3=0;
 80029e0:	60e3      	str	r3, [r4, #12]
    (pL6470_AppCmdPkg+id)->L6470_AppCmdId=(eL6470_AppCmdId_t)0;
 80029e2:	7423      	strb	r3, [r4, #16]
    (pL6470_AppCmdPkg+id)->p3=0;
 80029e4:	61e3      	str	r3, [r4, #28]
    L6470_DaisyChain_HalfPrepared = ONE_F; /* To avoid to delete the previous entered command */
 80029e6:	702e      	strb	r6, [r5, #0]
  (pL6470_AppCmdPkg+L6470_Id)->L6470_AppCmdId = L6470_AppCmdId;
 80029e8:	7d43      	ldrb	r3, [r0, #21]
 80029ea:	011e      	lsls	r6, r3, #4
 80029ec:	eb04 1303 	add.w	r3, r4, r3, lsl #4
  (pL6470_AppCmdPkg+L6470_Id)->p3 = p3;
 80029f0:	2500      	movs	r5, #0
  (pL6470_AppCmdPkg+L6470_Id)->L6470_AppCmdId = L6470_AppCmdId;
 80029f2:	2709      	movs	r7, #9
 80029f4:	55a7      	strb	r7, [r4, r6]
  (pL6470_AppCmdPkg+L6470_Id)->p3 = p3;
 80029f6:	60dd      	str	r5, [r3, #12]
  (pL6470_AppCmdPkg+L6470_Id)->p2 = p2;
 80029f8:	e9c3 1201 	strd	r1, r2, [r3, #4]
        prepared_action = PREPARED_NO_ACTION;
 80029fc:	f880 5060 	strb.w	r5, [r0, #96]	; 0x60
    }
 8002a00:	bcf0      	pop	{r4, r5, r6, r7}
 8002a02:	4770      	bx	lr
 8002a04:	20001208 	.word	0x20001208
 8002a08:	200011d4 	.word	0x200011d4
 8002a0c:	00000000 	.word	0x00000000

08002a10 <_ZN5L647018prepare_step_clockEN12StepperMotor11direction_tE>:
    virtual void prepare_step_clock(direction_t direction)
 8002a10:	b470      	push	{r4, r5, r6}
  if(!L6470_DaisyChain_HalfPrepared)
 8002a12:	4c10      	ldr	r4, [pc, #64]	; (8002a54 <_ZN5L647018prepare_step_clockEN12StepperMotor11direction_tE+0x44>)
    (pL6470_AppCmdPkg+id)->L6470_AppCmdId=(eL6470_AppCmdId_t)0;
 8002a14:	4a10      	ldr	r2, [pc, #64]	; (8002a58 <_ZN5L647018prepare_step_clockEN12StepperMotor11direction_tE+0x48>)
  if(!L6470_DaisyChain_HalfPrepared)
 8002a16:	7823      	ldrb	r3, [r4, #0]
        L6470_PrepareStepClock((eL6470_DirId_t) (direction == StepperMotor::FWD ? L6470_DIR_FWD_ID : L6470_DIR_REV_ID));
 8002a18:	f1a1 0101 	sub.w	r1, r1, #1
 8002a1c:	fab1 f181 	clz	r1, r1
 8002a20:	0949      	lsrs	r1, r1, #5
 8002a22:	b94b      	cbnz	r3, 8002a38 <_ZN5L647018prepare_step_clockEN12StepperMotor11direction_tE+0x28>
    (pL6470_AppCmdPkg+id)->p2=0;
 8002a24:	e9c2 3301 	strd	r3, r3, [r2, #4]
 8002a28:	e9c2 3305 	strd	r3, r3, [r2, #20]
    L6470_DaisyChain_HalfPrepared = ONE_F; /* To avoid to delete the previous entered command */
 8002a2c:	2501      	movs	r5, #1
    (pL6470_AppCmdPkg+id)->L6470_AppCmdId=(eL6470_AppCmdId_t)0;
 8002a2e:	7013      	strb	r3, [r2, #0]
    (pL6470_AppCmdPkg+id)->p3=0;
 8002a30:	60d3      	str	r3, [r2, #12]
    (pL6470_AppCmdPkg+id)->L6470_AppCmdId=(eL6470_AppCmdId_t)0;
 8002a32:	7413      	strb	r3, [r2, #16]
    (pL6470_AppCmdPkg+id)->p3=0;
 8002a34:	61d3      	str	r3, [r2, #28]
    L6470_DaisyChain_HalfPrepared = ONE_F; /* To avoid to delete the previous entered command */
 8002a36:	7025      	strb	r5, [r4, #0]
  (pL6470_AppCmdPkg+L6470_Id)->L6470_AppCmdId = L6470_AppCmdId;
 8002a38:	7d43      	ldrb	r3, [r0, #21]
 8002a3a:	011d      	lsls	r5, r3, #4
 8002a3c:	2604      	movs	r6, #4
 8002a3e:	5556      	strb	r6, [r2, r5]
 8002a40:	eb02 1303 	add.w	r3, r2, r3, lsl #4
  (pL6470_AppCmdPkg+L6470_Id)->p2 = p2;
 8002a44:	2400      	movs	r4, #0
 8002a46:	e9c3 1401 	strd	r1, r4, [r3, #4]
  (pL6470_AppCmdPkg+L6470_Id)->p3 = p3;
 8002a4a:	60dc      	str	r4, [r3, #12]
        prepared_action = PREPARED_NO_ACTION;
 8002a4c:	f880 4060 	strb.w	r4, [r0, #96]	; 0x60
    }
 8002a50:	bc70      	pop	{r4, r5, r6}
 8002a52:	4770      	bx	lr
 8002a54:	20001208 	.word	0x20001208
 8002a58:	200011d4 	.word	0x200011d4
 8002a5c:	00000000 	.word	0x00000000

08002a60 <_ZN5L647016prepare_hard_hizEv>:
    virtual void prepare_hard_hiz(void)
 8002a60:	b430      	push	{r4, r5}
  if(!L6470_DaisyChain_HalfPrepared)
 8002a62:	490e      	ldr	r1, [pc, #56]	; (8002a9c <_ZN5L647016prepare_hard_hizEv+0x3c>)
    (pL6470_AppCmdPkg+id)->L6470_AppCmdId=(eL6470_AppCmdId_t)0;
 8002a64:	4a0e      	ldr	r2, [pc, #56]	; (8002aa0 <_ZN5L647016prepare_hard_hizEv+0x40>)
  if(!L6470_DaisyChain_HalfPrepared)
 8002a66:	780b      	ldrb	r3, [r1, #0]
 8002a68:	b94b      	cbnz	r3, 8002a7e <_ZN5L647016prepare_hard_hizEv+0x1e>
    (pL6470_AppCmdPkg+id)->p2=0;
 8002a6a:	e9c2 3301 	strd	r3, r3, [r2, #4]
 8002a6e:	e9c2 3305 	strd	r3, r3, [r2, #20]
    L6470_DaisyChain_HalfPrepared = ONE_F; /* To avoid to delete the previous entered command */
 8002a72:	2401      	movs	r4, #1
    (pL6470_AppCmdPkg+id)->L6470_AppCmdId=(eL6470_AppCmdId_t)0;
 8002a74:	7013      	strb	r3, [r2, #0]
    (pL6470_AppCmdPkg+id)->p3=0;
 8002a76:	60d3      	str	r3, [r2, #12]
    (pL6470_AppCmdPkg+id)->L6470_AppCmdId=(eL6470_AppCmdId_t)0;
 8002a78:	7413      	strb	r3, [r2, #16]
    (pL6470_AppCmdPkg+id)->p3=0;
 8002a7a:	61d3      	str	r3, [r2, #28]
    L6470_DaisyChain_HalfPrepared = ONE_F; /* To avoid to delete the previous entered command */
 8002a7c:	700c      	strb	r4, [r1, #0]
  (pL6470_AppCmdPkg+L6470_Id)->L6470_AppCmdId = L6470_AppCmdId;
 8002a7e:	7d43      	ldrb	r3, [r0, #21]
 8002a80:	011c      	lsls	r4, r3, #4
 8002a82:	2511      	movs	r5, #17
 8002a84:	5515      	strb	r5, [r2, r4]
 8002a86:	eb02 1303 	add.w	r3, r2, r3, lsl #4
  (pL6470_AppCmdPkg+L6470_Id)->p1 = p1;
 8002a8a:	2100      	movs	r1, #0
  (pL6470_AppCmdPkg+L6470_Id)->p2 = p2;
 8002a8c:	e9c3 1101 	strd	r1, r1, [r3, #4]
  (pL6470_AppCmdPkg+L6470_Id)->p3 = p3;
 8002a90:	60d9      	str	r1, [r3, #12]
    }
 8002a92:	bc30      	pop	{r4, r5}
        prepared_action = PREPARED_NO_ACTION;
 8002a94:	f880 1060 	strb.w	r1, [r0, #96]	; 0x60
    }
 8002a98:	4770      	bx	lr
 8002a9a:	bf00      	nop
 8002a9c:	20001208 	.word	0x20001208
 8002aa0:	200011d4 	.word	0x200011d4
	...

08002ab0 <_ZN5L647016prepare_soft_hizEv>:
    virtual void prepare_soft_hiz(void)
 8002ab0:	b430      	push	{r4, r5}
  if(!L6470_DaisyChain_HalfPrepared)
 8002ab2:	490e      	ldr	r1, [pc, #56]	; (8002aec <_ZN5L647016prepare_soft_hizEv+0x3c>)
    (pL6470_AppCmdPkg+id)->L6470_AppCmdId=(eL6470_AppCmdId_t)0;
 8002ab4:	4a0e      	ldr	r2, [pc, #56]	; (8002af0 <_ZN5L647016prepare_soft_hizEv+0x40>)
  if(!L6470_DaisyChain_HalfPrepared)
 8002ab6:	780b      	ldrb	r3, [r1, #0]
 8002ab8:	b94b      	cbnz	r3, 8002ace <_ZN5L647016prepare_soft_hizEv+0x1e>
    (pL6470_AppCmdPkg+id)->p2=0;
 8002aba:	e9c2 3301 	strd	r3, r3, [r2, #4]
 8002abe:	e9c2 3305 	strd	r3, r3, [r2, #20]
    L6470_DaisyChain_HalfPrepared = ONE_F; /* To avoid to delete the previous entered command */
 8002ac2:	2401      	movs	r4, #1
    (pL6470_AppCmdPkg+id)->L6470_AppCmdId=(eL6470_AppCmdId_t)0;
 8002ac4:	7013      	strb	r3, [r2, #0]
    (pL6470_AppCmdPkg+id)->p3=0;
 8002ac6:	60d3      	str	r3, [r2, #12]
    (pL6470_AppCmdPkg+id)->L6470_AppCmdId=(eL6470_AppCmdId_t)0;
 8002ac8:	7413      	strb	r3, [r2, #16]
    (pL6470_AppCmdPkg+id)->p3=0;
 8002aca:	61d3      	str	r3, [r2, #28]
    L6470_DaisyChain_HalfPrepared = ONE_F; /* To avoid to delete the previous entered command */
 8002acc:	700c      	strb	r4, [r1, #0]
  (pL6470_AppCmdPkg+L6470_Id)->L6470_AppCmdId = L6470_AppCmdId;
 8002ace:	7d43      	ldrb	r3, [r0, #21]
 8002ad0:	011c      	lsls	r4, r3, #4
 8002ad2:	2510      	movs	r5, #16
 8002ad4:	5515      	strb	r5, [r2, r4]
 8002ad6:	eb02 1303 	add.w	r3, r2, r3, lsl #4
  (pL6470_AppCmdPkg+L6470_Id)->p1 = p1;
 8002ada:	2100      	movs	r1, #0
  (pL6470_AppCmdPkg+L6470_Id)->p2 = p2;
 8002adc:	e9c3 1101 	strd	r1, r1, [r3, #4]
  (pL6470_AppCmdPkg+L6470_Id)->p3 = p3;
 8002ae0:	60d9      	str	r1, [r3, #12]
    }
 8002ae2:	bc30      	pop	{r4, r5}
        prepared_action = PREPARED_NO_ACTION;
 8002ae4:	f880 1060 	strb.w	r1, [r0, #96]	; 0x60
    }
 8002ae8:	4770      	bx	lr
 8002aea:	bf00      	nop
 8002aec:	20001208 	.word	0x20001208
 8002af0:	200011d4 	.word	0x200011d4
	...

08002b00 <_ZN5L647017prepare_hard_stopEv>:
    virtual void prepare_hard_stop(void)
 8002b00:	b430      	push	{r4, r5}
  if(!L6470_DaisyChain_HalfPrepared)
 8002b02:	490e      	ldr	r1, [pc, #56]	; (8002b3c <_ZN5L647017prepare_hard_stopEv+0x3c>)
    (pL6470_AppCmdPkg+id)->L6470_AppCmdId=(eL6470_AppCmdId_t)0;
 8002b04:	4a0e      	ldr	r2, [pc, #56]	; (8002b40 <_ZN5L647017prepare_hard_stopEv+0x40>)
  if(!L6470_DaisyChain_HalfPrepared)
 8002b06:	780b      	ldrb	r3, [r1, #0]
 8002b08:	b94b      	cbnz	r3, 8002b1e <_ZN5L647017prepare_hard_stopEv+0x1e>
    (pL6470_AppCmdPkg+id)->p2=0;
 8002b0a:	e9c2 3301 	strd	r3, r3, [r2, #4]
 8002b0e:	e9c2 3305 	strd	r3, r3, [r2, #20]
    L6470_DaisyChain_HalfPrepared = ONE_F; /* To avoid to delete the previous entered command */
 8002b12:	2401      	movs	r4, #1
    (pL6470_AppCmdPkg+id)->L6470_AppCmdId=(eL6470_AppCmdId_t)0;
 8002b14:	7013      	strb	r3, [r2, #0]
    (pL6470_AppCmdPkg+id)->p3=0;
 8002b16:	60d3      	str	r3, [r2, #12]
    (pL6470_AppCmdPkg+id)->L6470_AppCmdId=(eL6470_AppCmdId_t)0;
 8002b18:	7413      	strb	r3, [r2, #16]
    (pL6470_AppCmdPkg+id)->p3=0;
 8002b1a:	61d3      	str	r3, [r2, #28]
    L6470_DaisyChain_HalfPrepared = ONE_F; /* To avoid to delete the previous entered command */
 8002b1c:	700c      	strb	r4, [r1, #0]
  (pL6470_AppCmdPkg+L6470_Id)->L6470_AppCmdId = L6470_AppCmdId;
 8002b1e:	7d43      	ldrb	r3, [r0, #21]
 8002b20:	011c      	lsls	r4, r3, #4
 8002b22:	250f      	movs	r5, #15
 8002b24:	5515      	strb	r5, [r2, r4]
 8002b26:	eb02 1303 	add.w	r3, r2, r3, lsl #4
  (pL6470_AppCmdPkg+L6470_Id)->p1 = p1;
 8002b2a:	2100      	movs	r1, #0
  (pL6470_AppCmdPkg+L6470_Id)->p2 = p2;
 8002b2c:	e9c3 1101 	strd	r1, r1, [r3, #4]
  (pL6470_AppCmdPkg+L6470_Id)->p3 = p3;
 8002b30:	60d9      	str	r1, [r3, #12]
    }
 8002b32:	bc30      	pop	{r4, r5}
        prepared_action = PREPARED_NO_ACTION;
 8002b34:	f880 1060 	strb.w	r1, [r0, #96]	; 0x60
    }
 8002b38:	4770      	bx	lr
 8002b3a:	bf00      	nop
 8002b3c:	20001208 	.word	0x20001208
 8002b40:	200011d4 	.word	0x200011d4
	...

08002b50 <_ZN5L647017prepare_soft_stopEv>:
    virtual void prepare_soft_stop(void)
 8002b50:	b430      	push	{r4, r5}
  if(!L6470_DaisyChain_HalfPrepared)
 8002b52:	490e      	ldr	r1, [pc, #56]	; (8002b8c <_ZN5L647017prepare_soft_stopEv+0x3c>)
    (pL6470_AppCmdPkg+id)->L6470_AppCmdId=(eL6470_AppCmdId_t)0;
 8002b54:	4a0e      	ldr	r2, [pc, #56]	; (8002b90 <_ZN5L647017prepare_soft_stopEv+0x40>)
  if(!L6470_DaisyChain_HalfPrepared)
 8002b56:	780b      	ldrb	r3, [r1, #0]
 8002b58:	b94b      	cbnz	r3, 8002b6e <_ZN5L647017prepare_soft_stopEv+0x1e>
    (pL6470_AppCmdPkg+id)->p2=0;
 8002b5a:	e9c2 3301 	strd	r3, r3, [r2, #4]
 8002b5e:	e9c2 3305 	strd	r3, r3, [r2, #20]
    L6470_DaisyChain_HalfPrepared = ONE_F; /* To avoid to delete the previous entered command */
 8002b62:	2401      	movs	r4, #1
    (pL6470_AppCmdPkg+id)->L6470_AppCmdId=(eL6470_AppCmdId_t)0;
 8002b64:	7013      	strb	r3, [r2, #0]
    (pL6470_AppCmdPkg+id)->p3=0;
 8002b66:	60d3      	str	r3, [r2, #12]
    (pL6470_AppCmdPkg+id)->L6470_AppCmdId=(eL6470_AppCmdId_t)0;
 8002b68:	7413      	strb	r3, [r2, #16]
    (pL6470_AppCmdPkg+id)->p3=0;
 8002b6a:	61d3      	str	r3, [r2, #28]
    L6470_DaisyChain_HalfPrepared = ONE_F; /* To avoid to delete the previous entered command */
 8002b6c:	700c      	strb	r4, [r1, #0]
  (pL6470_AppCmdPkg+L6470_Id)->L6470_AppCmdId = L6470_AppCmdId;
 8002b6e:	7d43      	ldrb	r3, [r0, #21]
 8002b70:	011c      	lsls	r4, r3, #4
 8002b72:	250e      	movs	r5, #14
 8002b74:	5515      	strb	r5, [r2, r4]
 8002b76:	eb02 1303 	add.w	r3, r2, r3, lsl #4
  (pL6470_AppCmdPkg+L6470_Id)->p1 = p1;
 8002b7a:	2100      	movs	r1, #0
  (pL6470_AppCmdPkg+L6470_Id)->p2 = p2;
 8002b7c:	e9c3 1101 	strd	r1, r1, [r3, #4]
  (pL6470_AppCmdPkg+L6470_Id)->p3 = p3;
 8002b80:	60d9      	str	r1, [r3, #12]
    }
 8002b82:	bc30      	pop	{r4, r5}
        prepared_action = PREPARED_NO_ACTION;
 8002b84:	f880 1060 	strb.w	r1, [r0, #96]	; 0x60
    }
 8002b88:	4770      	bx	lr
 8002b8a:	bf00      	nop
 8002b8c:	20001208 	.word	0x20001208
 8002b90:	200011d4 	.word	0x200011d4
	...

08002ba0 <_ZN5L647012prepare_moveEN12StepperMotor11direction_tEj>:
    virtual void prepare_move(direction_t direction, unsigned int steps)
 8002ba0:	b4f0      	push	{r4, r5, r6, r7}
  if(!L6470_DaisyChain_HalfPrepared)
 8002ba2:	4d10      	ldr	r5, [pc, #64]	; (8002be4 <_ZN5L647012prepare_moveEN12StepperMotor11direction_tEj+0x44>)
    (pL6470_AppCmdPkg+id)->L6470_AppCmdId=(eL6470_AppCmdId_t)0;
 8002ba4:	4c10      	ldr	r4, [pc, #64]	; (8002be8 <_ZN5L647012prepare_moveEN12StepperMotor11direction_tEj+0x48>)
  if(!L6470_DaisyChain_HalfPrepared)
 8002ba6:	782b      	ldrb	r3, [r5, #0]
        L6470_PrepareMove((eL6470_DirId_t) (direction == StepperMotor::FWD ? L6470_DIR_FWD_ID : L6470_DIR_REV_ID), (unsigned int) steps);
 8002ba8:	f1a1 0101 	sub.w	r1, r1, #1
 8002bac:	fab1 f181 	clz	r1, r1
 8002bb0:	0949      	lsrs	r1, r1, #5
 8002bb2:	b94b      	cbnz	r3, 8002bc8 <_ZN5L647012prepare_moveEN12StepperMotor11direction_tEj+0x28>
    (pL6470_AppCmdPkg+id)->p2=0;
 8002bb4:	e9c4 3301 	strd	r3, r3, [r4, #4]
 8002bb8:	e9c4 3305 	strd	r3, r3, [r4, #20]
    L6470_DaisyChain_HalfPrepared = ONE_F; /* To avoid to delete the previous entered command */
 8002bbc:	2601      	movs	r6, #1
    (pL6470_AppCmdPkg+id)->L6470_AppCmdId=(eL6470_AppCmdId_t)0;
 8002bbe:	7023      	strb	r3, [r4, #0]
    (pL6470_AppCmdPkg+id)->p3=0;
 8002bc0:	60e3      	str	r3, [r4, #12]
    (pL6470_AppCmdPkg+id)->L6470_AppCmdId=(eL6470_AppCmdId_t)0;
 8002bc2:	7423      	strb	r3, [r4, #16]
    (pL6470_AppCmdPkg+id)->p3=0;
 8002bc4:	61e3      	str	r3, [r4, #28]
    L6470_DaisyChain_HalfPrepared = ONE_F; /* To avoid to delete the previous entered command */
 8002bc6:	702e      	strb	r6, [r5, #0]
  (pL6470_AppCmdPkg+L6470_Id)->L6470_AppCmdId = L6470_AppCmdId;
 8002bc8:	7d43      	ldrb	r3, [r0, #21]
 8002bca:	011e      	lsls	r6, r3, #4
 8002bcc:	eb04 1303 	add.w	r3, r4, r3, lsl #4
  (pL6470_AppCmdPkg+L6470_Id)->p3 = p3;
 8002bd0:	2500      	movs	r5, #0
  (pL6470_AppCmdPkg+L6470_Id)->L6470_AppCmdId = L6470_AppCmdId;
 8002bd2:	2705      	movs	r7, #5
 8002bd4:	55a7      	strb	r7, [r4, r6]
  (pL6470_AppCmdPkg+L6470_Id)->p3 = p3;
 8002bd6:	60dd      	str	r5, [r3, #12]
  (pL6470_AppCmdPkg+L6470_Id)->p2 = p2;
 8002bd8:	e9c3 1201 	strd	r1, r2, [r3, #4]
        prepared_action = PREPARED_NO_ACTION;
 8002bdc:	f880 5060 	strb.w	r5, [r0, #96]	; 0x60
    }
 8002be0:	bcf0      	pop	{r4, r5, r6, r7}
 8002be2:	4770      	bx	lr
 8002be4:	20001208 	.word	0x20001208
 8002be8:	200011d4 	.word	0x200011d4
 8002bec:	00000000 	.word	0x00000000

08002bf0 <_ZN5L647016prepare_go_untilE14eL6470_ActId_tN12StepperMotor11direction_tEj>:
    virtual void prepare_go_until(eL6470_ActId_t L6470_ActId, direction_t direction, unsigned int speed)
 8002bf0:	b5f8      	push	{r3, r4, r5, r6, r7, lr}
 8002bf2:	4606      	mov	r6, r0
        L6470_PrepareGoUntil((eL6470_ActId_t) L6470_ActId, (eL6470_DirId_t) (direction == StepperMotor::FWD ? L6470_DIR_FWD_ID : L6470_DIR_REV_ID), (unsigned int) L6470_Step_s_2_Speed((float) speed));
 8002bf4:	4618      	mov	r0, r3
    virtual void prepare_go_until(eL6470_ActId_t L6470_ActId, direction_t direction, unsigned int speed)
 8002bf6:	460d      	mov	r5, r1
        L6470_PrepareGoUntil((eL6470_ActId_t) L6470_ActId, (eL6470_DirId_t) (direction == StepperMotor::FWD ? L6470_DIR_FWD_ID : L6470_DIR_REV_ID), (unsigned int) L6470_Step_s_2_Speed((float) speed));
 8002bf8:	f1a2 0401 	sub.w	r4, r2, #1
 8002bfc:	f7fd fc2c 	bl	8000458 <__aeabi_ui2f>
 8002c00:	fab4 f484 	clz	r4, r4
  * @param  step/s      The speed as step/s.
  * @retval Speed       The SPEED register value.
  */
uint32_t L6470::L6470_Step_s_2_Speed(float Step_s)
{
  if (Step_s <= (L6470_MAX_SPEED * ((float)14.9012e-3)))
 8002c04:	4914      	ldr	r1, [pc, #80]	; (8002c58 <_ZN5L647016prepare_go_untilE14eL6470_ActId_tN12StepperMotor11direction_tEj+0x68>)
 8002c06:	0964      	lsrs	r4, r4, #5
 8002c08:	4607      	mov	r7, r0
 8002c0a:	f7fd fe25 	bl	8000858 <__aeabi_fcmple>
 8002c0e:	b128      	cbz	r0, 8002c1c <_ZN5L647016prepare_go_untilE14eL6470_ActId_tN12StepperMotor11direction_tEj+0x2c>
    return (uint32_t)(Step_s / ((float)14.9012e-3));
 8002c10:	4912      	ldr	r1, [pc, #72]	; (8002c5c <_ZN5L647016prepare_go_untilE14eL6470_ActId_tN12StepperMotor11direction_tEj+0x6c>)
 8002c12:	4638      	mov	r0, r7
 8002c14:	f7fd fd2c 	bl	8000670 <__aeabi_fdiv>
 8002c18:	f7fd fe62 	bl	80008e0 <__aeabi_f2uiz>
  if(!L6470_DaisyChain_HalfPrepared)
 8002c1c:	4910      	ldr	r1, [pc, #64]	; (8002c60 <_ZN5L647016prepare_go_untilE14eL6470_ActId_tN12StepperMotor11direction_tEj+0x70>)
    (pL6470_AppCmdPkg+id)->L6470_AppCmdId=(eL6470_AppCmdId_t)0;
 8002c1e:	4a11      	ldr	r2, [pc, #68]	; (8002c64 <_ZN5L647016prepare_go_untilE14eL6470_ActId_tN12StepperMotor11direction_tEj+0x74>)
  if(!L6470_DaisyChain_HalfPrepared)
 8002c20:	780b      	ldrb	r3, [r1, #0]
 8002c22:	b94b      	cbnz	r3, 8002c38 <_ZN5L647016prepare_go_untilE14eL6470_ActId_tN12StepperMotor11direction_tEj+0x48>
    (pL6470_AppCmdPkg+id)->p2=0;
 8002c24:	e9c2 3301 	strd	r3, r3, [r2, #4]
 8002c28:	e9c2 3305 	strd	r3, r3, [r2, #20]
    L6470_DaisyChain_HalfPrepared = ONE_F; /* To avoid to delete the previous entered command */
 8002c2c:	2701      	movs	r7, #1
    (pL6470_AppCmdPkg+id)->L6470_AppCmdId=(eL6470_AppCmdId_t)0;
 8002c2e:	7013      	strb	r3, [r2, #0]
    (pL6470_AppCmdPkg+id)->p3=0;
 8002c30:	60d3      	str	r3, [r2, #12]
    (pL6470_AppCmdPkg+id)->L6470_AppCmdId=(eL6470_AppCmdId_t)0;
 8002c32:	7413      	strb	r3, [r2, #16]
    (pL6470_AppCmdPkg+id)->p3=0;
 8002c34:	61d3      	str	r3, [r2, #28]
    L6470_DaisyChain_HalfPrepared = ONE_F; /* To avoid to delete the previous entered command */
 8002c36:	700f      	strb	r7, [r1, #0]
  (pL6470_AppCmdPkg+L6470_Id)->L6470_AppCmdId = L6470_AppCmdId;
 8002c38:	7d73      	ldrb	r3, [r6, #21]
 8002c3a:	011f      	lsls	r7, r3, #4
 8002c3c:	f04f 0c08 	mov.w	ip, #8
 8002c40:	eb02 1303 	add.w	r3, r2, r3, lsl #4
 8002c44:	f802 c007 	strb.w	ip, [r2, r7]
        prepared_action = PREPARED_NO_ACTION;
 8002c48:	2100      	movs	r1, #0
  (pL6470_AppCmdPkg+L6470_Id)->p2 = p2;
 8002c4a:	e9c3 5401 	strd	r5, r4, [r3, #4]
  (pL6470_AppCmdPkg+L6470_Id)->p3 = p3;
 8002c4e:	60d8      	str	r0, [r3, #12]
 8002c50:	f886 1060 	strb.w	r1, [r6, #96]	; 0x60
    }
 8002c54:	bdf8      	pop	{r3, r4, r5, r6, r7, pc}
 8002c56:	bf00      	nop
 8002c58:	4674241b 	.word	0x4674241b
 8002c5c:	3c74242a 	.word	0x3c74242a
 8002c60:	20001208 	.word	0x20001208
 8002c64:	200011d4 	.word	0x200011d4
	...

08002c70 <_ZN5L647015prepare_go_markEv>:
    virtual void prepare_go_mark(void)
 8002c70:	b430      	push	{r4, r5}
  if(!L6470_DaisyChain_HalfPrepared)
 8002c72:	490e      	ldr	r1, [pc, #56]	; (8002cac <_ZN5L647015prepare_go_markEv+0x3c>)
    (pL6470_AppCmdPkg+id)->L6470_AppCmdId=(eL6470_AppCmdId_t)0;
 8002c74:	4a0e      	ldr	r2, [pc, #56]	; (8002cb0 <_ZN5L647015prepare_go_markEv+0x40>)
  if(!L6470_DaisyChain_HalfPrepared)
 8002c76:	780b      	ldrb	r3, [r1, #0]
 8002c78:	b94b      	cbnz	r3, 8002c8e <_ZN5L647015prepare_go_markEv+0x1e>
    (pL6470_AppCmdPkg+id)->p2=0;
 8002c7a:	e9c2 3301 	strd	r3, r3, [r2, #4]
 8002c7e:	e9c2 3305 	strd	r3, r3, [r2, #20]
    L6470_DaisyChain_HalfPrepared = ONE_F; /* To avoid to delete the previous entered command */
 8002c82:	2401      	movs	r4, #1
    (pL6470_AppCmdPkg+id)->L6470_AppCmdId=(eL6470_AppCmdId_t)0;
 8002c84:	7013      	strb	r3, [r2, #0]
    (pL6470_AppCmdPkg+id)->p3=0;
 8002c86:	60d3      	str	r3, [r2, #12]
    (pL6470_AppCmdPkg+id)->L6470_AppCmdId=(eL6470_AppCmdId_t)0;
 8002c88:	7413      	strb	r3, [r2, #16]
    (pL6470_AppCmdPkg+id)->p3=0;
 8002c8a:	61d3      	str	r3, [r2, #28]
    L6470_DaisyChain_HalfPrepared = ONE_F; /* To avoid to delete the previous entered command */
 8002c8c:	700c      	strb	r4, [r1, #0]
  (pL6470_AppCmdPkg+L6470_Id)->L6470_AppCmdId = L6470_AppCmdId;
 8002c8e:	7d43      	ldrb	r3, [r0, #21]
 8002c90:	011c      	lsls	r4, r3, #4
 8002c92:	250b      	movs	r5, #11
 8002c94:	5515      	strb	r5, [r2, r4]
 8002c96:	eb02 1303 	add.w	r3, r2, r3, lsl #4
  (pL6470_AppCmdPkg+L6470_Id)->p1 = p1;
 8002c9a:	2100      	movs	r1, #0
  (pL6470_AppCmdPkg+L6470_Id)->p2 = p2;
 8002c9c:	e9c3 1101 	strd	r1, r1, [r3, #4]
  (pL6470_AppCmdPkg+L6470_Id)->p3 = p3;
 8002ca0:	60d9      	str	r1, [r3, #12]
    }
 8002ca2:	bc30      	pop	{r4, r5}
        prepared_action = PREPARED_NO_ACTION;
 8002ca4:	f880 1060 	strb.w	r1, [r0, #96]	; 0x60
    }
 8002ca8:	4770      	bx	lr
 8002caa:	bf00      	nop
 8002cac:	20001208 	.word	0x20001208
 8002cb0:	200011d4 	.word	0x200011d4
	...

08002cc0 <_ZN5L647015prepare_go_homeEv>:
    virtual void prepare_go_home(void)
 8002cc0:	b430      	push	{r4, r5}
  if(!L6470_DaisyChain_HalfPrepared)
 8002cc2:	490e      	ldr	r1, [pc, #56]	; (8002cfc <_ZN5L647015prepare_go_homeEv+0x3c>)
    (pL6470_AppCmdPkg+id)->L6470_AppCmdId=(eL6470_AppCmdId_t)0;
 8002cc4:	4a0e      	ldr	r2, [pc, #56]	; (8002d00 <_ZN5L647015prepare_go_homeEv+0x40>)
  if(!L6470_DaisyChain_HalfPrepared)
 8002cc6:	780b      	ldrb	r3, [r1, #0]
 8002cc8:	b94b      	cbnz	r3, 8002cde <_ZN5L647015prepare_go_homeEv+0x1e>
    (pL6470_AppCmdPkg+id)->p2=0;
 8002cca:	e9c2 3301 	strd	r3, r3, [r2, #4]
 8002cce:	e9c2 3305 	strd	r3, r3, [r2, #20]
    L6470_DaisyChain_HalfPrepared = ONE_F; /* To avoid to delete the previous entered command */
 8002cd2:	2401      	movs	r4, #1
    (pL6470_AppCmdPkg+id)->L6470_AppCmdId=(eL6470_AppCmdId_t)0;
 8002cd4:	7013      	strb	r3, [r2, #0]
    (pL6470_AppCmdPkg+id)->p3=0;
 8002cd6:	60d3      	str	r3, [r2, #12]
    (pL6470_AppCmdPkg+id)->L6470_AppCmdId=(eL6470_AppCmdId_t)0;
 8002cd8:	7413      	strb	r3, [r2, #16]
    (pL6470_AppCmdPkg+id)->p3=0;
 8002cda:	61d3      	str	r3, [r2, #28]
    L6470_DaisyChain_HalfPrepared = ONE_F; /* To avoid to delete the previous entered command */
 8002cdc:	700c      	strb	r4, [r1, #0]
  (pL6470_AppCmdPkg+L6470_Id)->L6470_AppCmdId = L6470_AppCmdId;
 8002cde:	7d43      	ldrb	r3, [r0, #21]
 8002ce0:	011c      	lsls	r4, r3, #4
 8002ce2:	250a      	movs	r5, #10
 8002ce4:	5515      	strb	r5, [r2, r4]
 8002ce6:	eb02 1303 	add.w	r3, r2, r3, lsl #4
  (pL6470_AppCmdPkg+L6470_Id)->p1 = p1;
 8002cea:	2100      	movs	r1, #0
  (pL6470_AppCmdPkg+L6470_Id)->p2 = p2;
 8002cec:	e9c3 1101 	strd	r1, r1, [r3, #4]
  (pL6470_AppCmdPkg+L6470_Id)->p3 = p3;
 8002cf0:	60d9      	str	r1, [r3, #12]
    }
 8002cf2:	bc30      	pop	{r4, r5}
        prepared_action = PREPARED_NO_ACTION;
 8002cf4:	f880 1060 	strb.w	r1, [r0, #96]	; 0x60
    }
 8002cf8:	4770      	bx	lr
 8002cfa:	bf00      	nop
 8002cfc:	20001208 	.word	0x20001208
 8002d00:	200011d4 	.word	0x200011d4
	...

08002d10 <_ZN5L647013prepare_go_toEiN12StepperMotor11direction_tE>:
    virtual void prepare_go_to(signed int position, direction_t direction)
 8002d10:	b5f8      	push	{r3, r4, r5, r6, r7, lr}
 8002d12:	4604      	mov	r4, r0
        L6470_PrepareGoToDir((eL6470_DirId_t) (direction == StepperMotor::FWD ? L6470_DIR_FWD_ID : L6470_DIR_REV_ID), (uint32_t) L6470_Position_2_AbsPos((int32_t) position));
 8002d14:	4608      	mov	r0, r1
 8002d16:	f7ff fdf3 	bl	8002900 <_ZN5L647023L6470_Position_2_AbsPosEl.constprop.0>
  if(!L6470_DaisyChain_HalfPrepared)
 8002d1a:	4d10      	ldr	r5, [pc, #64]	; (8002d5c <_ZN5L647013prepare_go_toEiN12StepperMotor11direction_tE+0x4c>)
    (pL6470_AppCmdPkg+id)->L6470_AppCmdId=(eL6470_AppCmdId_t)0;
 8002d1c:	4910      	ldr	r1, [pc, #64]	; (8002d60 <_ZN5L647013prepare_go_toEiN12StepperMotor11direction_tE+0x50>)
  if(!L6470_DaisyChain_HalfPrepared)
 8002d1e:	782b      	ldrb	r3, [r5, #0]
 8002d20:	f1a2 0201 	sub.w	r2, r2, #1
 8002d24:	fab2 f282 	clz	r2, r2
 8002d28:	0952      	lsrs	r2, r2, #5
 8002d2a:	b94b      	cbnz	r3, 8002d40 <_ZN5L647013prepare_go_toEiN12StepperMotor11direction_tE+0x30>
    (pL6470_AppCmdPkg+id)->p2=0;
 8002d2c:	e9c1 3301 	strd	r3, r3, [r1, #4]
 8002d30:	e9c1 3305 	strd	r3, r3, [r1, #20]
    L6470_DaisyChain_HalfPrepared = ONE_F; /* To avoid to delete the previous entered command */
 8002d34:	2601      	movs	r6, #1
    (pL6470_AppCmdPkg+id)->L6470_AppCmdId=(eL6470_AppCmdId_t)0;
 8002d36:	700b      	strb	r3, [r1, #0]
    (pL6470_AppCmdPkg+id)->p3=0;
 8002d38:	60cb      	str	r3, [r1, #12]
    (pL6470_AppCmdPkg+id)->L6470_AppCmdId=(eL6470_AppCmdId_t)0;
 8002d3a:	740b      	strb	r3, [r1, #16]
    (pL6470_AppCmdPkg+id)->p3=0;
 8002d3c:	61cb      	str	r3, [r1, #28]
    L6470_DaisyChain_HalfPrepared = ONE_F; /* To avoid to delete the previous entered command */
 8002d3e:	702e      	strb	r6, [r5, #0]
  (pL6470_AppCmdPkg+L6470_Id)->L6470_AppCmdId = L6470_AppCmdId;
 8002d40:	7d63      	ldrb	r3, [r4, #21]
 8002d42:	011e      	lsls	r6, r3, #4
 8002d44:	2707      	movs	r7, #7
 8002d46:	eb01 1303 	add.w	r3, r1, r3, lsl #4
 8002d4a:	558f      	strb	r7, [r1, r6]
  (pL6470_AppCmdPkg+L6470_Id)->p3 = p3;
 8002d4c:	2500      	movs	r5, #0
  (pL6470_AppCmdPkg+L6470_Id)->p2 = p2;
 8002d4e:	e9c3 2001 	strd	r2, r0, [r3, #4]
  (pL6470_AppCmdPkg+L6470_Id)->p3 = p3;
 8002d52:	60dd      	str	r5, [r3, #12]
        prepared_action = PREPARED_NO_ACTION;
 8002d54:	f884 5060 	strb.w	r5, [r4, #96]	; 0x60
    }
 8002d58:	bdf8      	pop	{r3, r4, r5, r6, r7, pc}
 8002d5a:	bf00      	nop
 8002d5c:	20001208 	.word	0x20001208
 8002d60:	200011d4 	.word	0x200011d4
	...

08002d70 <_ZN5L647013prepare_go_toEi>:
    virtual void prepare_go_to(signed int position)
 8002d70:	b570      	push	{r4, r5, r6, lr}
  if(!L6470_DaisyChain_HalfPrepared)
 8002d72:	4c10      	ldr	r4, [pc, #64]	; (8002db4 <_ZN5L647013prepare_go_toEi+0x44>)
 8002d74:	4603      	mov	r3, r0
        L6470_PrepareGoTo((uint32_t) L6470_Position_2_AbsPos((int32_t) position));
 8002d76:	4608      	mov	r0, r1
    virtual void prepare_go_to(signed int position)
 8002d78:	4619      	mov	r1, r3
        L6470_PrepareGoTo((uint32_t) L6470_Position_2_AbsPos((int32_t) position));
 8002d7a:	f7ff fdc1 	bl	8002900 <_ZN5L647023L6470_Position_2_AbsPosEl.constprop.0>
 8002d7e:	7823      	ldrb	r3, [r4, #0]
    (pL6470_AppCmdPkg+id)->L6470_AppCmdId=(eL6470_AppCmdId_t)0;
 8002d80:	4a0d      	ldr	r2, [pc, #52]	; (8002db8 <_ZN5L647013prepare_go_toEi+0x48>)
  if(!L6470_DaisyChain_HalfPrepared)
 8002d82:	b94b      	cbnz	r3, 8002d98 <_ZN5L647013prepare_go_toEi+0x28>
    (pL6470_AppCmdPkg+id)->p2=0;
 8002d84:	e9c2 3301 	strd	r3, r3, [r2, #4]
 8002d88:	e9c2 3305 	strd	r3, r3, [r2, #20]
    L6470_DaisyChain_HalfPrepared = ONE_F; /* To avoid to delete the previous entered command */
 8002d8c:	2501      	movs	r5, #1
    (pL6470_AppCmdPkg+id)->L6470_AppCmdId=(eL6470_AppCmdId_t)0;
 8002d8e:	7013      	strb	r3, [r2, #0]
    (pL6470_AppCmdPkg+id)->p3=0;
 8002d90:	60d3      	str	r3, [r2, #12]
    (pL6470_AppCmdPkg+id)->L6470_AppCmdId=(eL6470_AppCmdId_t)0;
 8002d92:	7413      	strb	r3, [r2, #16]
    (pL6470_AppCmdPkg+id)->p3=0;
 8002d94:	61d3      	str	r3, [r2, #28]
    L6470_DaisyChain_HalfPrepared = ONE_F; /* To avoid to delete the previous entered command */
 8002d96:	7025      	strb	r5, [r4, #0]
  (pL6470_AppCmdPkg+L6470_Id)->L6470_AppCmdId = L6470_AppCmdId;
 8002d98:	7d4b      	ldrb	r3, [r1, #21]
 8002d9a:	011d      	lsls	r5, r3, #4
 8002d9c:	2606      	movs	r6, #6
 8002d9e:	eb02 1303 	add.w	r3, r2, r3, lsl #4
 8002da2:	5556      	strb	r6, [r2, r5]
  (pL6470_AppCmdPkg+L6470_Id)->p2 = p2;
 8002da4:	2400      	movs	r4, #0
 8002da6:	e9c3 0401 	strd	r0, r4, [r3, #4]
  (pL6470_AppCmdPkg+L6470_Id)->p3 = p3;
 8002daa:	60dc      	str	r4, [r3, #12]
        prepared_action = PREPARED_NO_ACTION;
 8002dac:	f881 4060 	strb.w	r4, [r1, #96]	; 0x60
    }
 8002db0:	bd70      	pop	{r4, r5, r6, pc}
 8002db2:	bf00      	nop
 8002db4:	20001208 	.word	0x20001208
 8002db8:	200011d4 	.word	0x200011d4
 8002dbc:	00000000 	.word	0x00000000

08002dc0 <_ZN5L647016prepare_set_homeEv>:
    virtual void prepare_set_home(void)
 8002dc0:	b430      	push	{r4, r5}
  if(!L6470_DaisyChain_HalfPrepared)
 8002dc2:	490e      	ldr	r1, [pc, #56]	; (8002dfc <_ZN5L647016prepare_set_homeEv+0x3c>)
    (pL6470_AppCmdPkg+id)->L6470_AppCmdId=(eL6470_AppCmdId_t)0;
 8002dc4:	4a0e      	ldr	r2, [pc, #56]	; (8002e00 <_ZN5L647016prepare_set_homeEv+0x40>)
  if(!L6470_DaisyChain_HalfPrepared)
 8002dc6:	780b      	ldrb	r3, [r1, #0]
 8002dc8:	b94b      	cbnz	r3, 8002dde <_ZN5L647016prepare_set_homeEv+0x1e>
    (pL6470_AppCmdPkg+id)->p2=0;
 8002dca:	e9c2 3301 	strd	r3, r3, [r2, #4]
 8002dce:	e9c2 3305 	strd	r3, r3, [r2, #20]
    L6470_DaisyChain_HalfPrepared = ONE_F; /* To avoid to delete the previous entered command */
 8002dd2:	2401      	movs	r4, #1
    (pL6470_AppCmdPkg+id)->L6470_AppCmdId=(eL6470_AppCmdId_t)0;
 8002dd4:	7013      	strb	r3, [r2, #0]
    (pL6470_AppCmdPkg+id)->p3=0;
 8002dd6:	60d3      	str	r3, [r2, #12]
    (pL6470_AppCmdPkg+id)->L6470_AppCmdId=(eL6470_AppCmdId_t)0;
 8002dd8:	7413      	strb	r3, [r2, #16]
    (pL6470_AppCmdPkg+id)->p3=0;
 8002dda:	61d3      	str	r3, [r2, #28]
    L6470_DaisyChain_HalfPrepared = ONE_F; /* To avoid to delete the previous entered command */
 8002ddc:	700c      	strb	r4, [r1, #0]
  (pL6470_AppCmdPkg+L6470_Id)->L6470_AppCmdId = L6470_AppCmdId;
 8002dde:	7d43      	ldrb	r3, [r0, #21]
 8002de0:	011c      	lsls	r4, r3, #4
 8002de2:	250c      	movs	r5, #12
 8002de4:	5515      	strb	r5, [r2, r4]
 8002de6:	eb02 1303 	add.w	r3, r2, r3, lsl #4
  (pL6470_AppCmdPkg+L6470_Id)->p1 = p1;
 8002dea:	2100      	movs	r1, #0
  (pL6470_AppCmdPkg+L6470_Id)->p2 = p2;
 8002dec:	e9c3 1101 	strd	r1, r1, [r3, #4]
  (pL6470_AppCmdPkg+L6470_Id)->p3 = p3;
 8002df0:	60d9      	str	r1, [r3, #12]
    }
 8002df2:	bc30      	pop	{r4, r5}
        prepared_action = PREPARED_NO_ACTION;
 8002df4:	f880 1060 	strb.w	r1, [r0, #96]	; 0x60
    }
 8002df8:	4770      	bx	lr
 8002dfa:	bf00      	nop
 8002dfc:	20001208 	.word	0x20001208
 8002e00:	200011d4 	.word	0x200011d4
	...

08002e10 <_ZN5L647021prepare_get_directionEv>:
        if (!L6470_DaisyChain_HalfPrepared) {
 8002e10:	490b      	ldr	r1, [pc, #44]	; (8002e40 <_ZN5L647021prepare_get_directionEv+0x30>)
 8002e12:	780b      	ldrb	r3, [r1, #0]
 8002e14:	b11b      	cbz	r3, 8002e1e <_ZN5L647021prepare_get_directionEv+0xe>
        prepared_action = PREPARED_GET_DIRECTION;
 8002e16:	2308      	movs	r3, #8
 8002e18:	f880 3060 	strb.w	r3, [r0, #96]	; 0x60
 8002e1c:	4770      	bx	lr
    (pL6470_AppCmdPkg+id)->L6470_AppCmdId=(eL6470_AppCmdId_t)0;
 8002e1e:	4a09      	ldr	r2, [pc, #36]	; (8002e44 <_ZN5L647021prepare_get_directionEv+0x34>)
    virtual void prepare_get_direction(void)
 8002e20:	b410      	push	{r4}
            L6470_DaisyChain_HalfPrepared = ONE_F;
 8002e22:	2401      	movs	r4, #1
 8002e24:	7013      	strb	r3, [r2, #0]
 8002e26:	7413      	strb	r3, [r2, #16]
    (pL6470_AppCmdPkg+id)->p2=0;
 8002e28:	e9c2 3301 	strd	r3, r3, [r2, #4]
 8002e2c:	e9c2 3305 	strd	r3, r3, [r2, #20]
    (pL6470_AppCmdPkg+id)->p3=0;
 8002e30:	60d3      	str	r3, [r2, #12]
 8002e32:	61d3      	str	r3, [r2, #28]
 8002e34:	700c      	strb	r4, [r1, #0]
        prepared_action = PREPARED_GET_DIRECTION;
 8002e36:	2308      	movs	r3, #8
    }
 8002e38:	bc10      	pop	{r4}
        prepared_action = PREPARED_GET_DIRECTION;
 8002e3a:	f880 3060 	strb.w	r3, [r0, #96]	; 0x60
    }
 8002e3e:	4770      	bx	lr
 8002e40:	20001208 	.word	0x20001208
 8002e44:	200011d4 	.word	0x200011d4
	...

08002e50 <_ZN5L647018prepare_get_statusEv>:
    virtual void prepare_get_status(void)
 8002e50:	b430      	push	{r4, r5}
  if(!L6470_DaisyChain_HalfPrepared)
 8002e52:	490e      	ldr	r1, [pc, #56]	; (8002e8c <_ZN5L647018prepare_get_statusEv+0x3c>)
    (pL6470_AppCmdPkg+id)->L6470_AppCmdId=(eL6470_AppCmdId_t)0;
 8002e54:	4a0e      	ldr	r2, [pc, #56]	; (8002e90 <_ZN5L647018prepare_get_statusEv+0x40>)
  if(!L6470_DaisyChain_HalfPrepared)
 8002e56:	780b      	ldrb	r3, [r1, #0]
 8002e58:	b94b      	cbnz	r3, 8002e6e <_ZN5L647018prepare_get_statusEv+0x1e>
    (pL6470_AppCmdPkg+id)->p2=0;
 8002e5a:	e9c2 3301 	strd	r3, r3, [r2, #4]
 8002e5e:	e9c2 3305 	strd	r3, r3, [r2, #20]
    L6470_DaisyChain_HalfPrepared = ONE_F; /* To avoid to delete the previous entered command */
 8002e62:	2401      	movs	r4, #1
    (pL6470_AppCmdPkg+id)->L6470_AppCmdId=(eL6470_AppCmdId_t)0;
 8002e64:	7013      	strb	r3, [r2, #0]
    (pL6470_AppCmdPkg+id)->p3=0;
 8002e66:	60d3      	str	r3, [r2, #12]
    (pL6470_AppCmdPkg+id)->L6470_AppCmdId=(eL6470_AppCmdId_t)0;
 8002e68:	7413      	strb	r3, [r2, #16]
    (pL6470_AppCmdPkg+id)->p3=0;
 8002e6a:	61d3      	str	r3, [r2, #28]
    L6470_DaisyChain_HalfPrepared = ONE_F; /* To avoid to delete the previous entered command */
 8002e6c:	700c      	strb	r4, [r1, #0]
  (pL6470_AppCmdPkg+L6470_Id)->L6470_AppCmdId = L6470_AppCmdId;
 8002e6e:	7d43      	ldrb	r3, [r0, #21]
 8002e70:	011c      	lsls	r4, r3, #4
 8002e72:	2512      	movs	r5, #18
 8002e74:	5515      	strb	r5, [r2, r4]
 8002e76:	eb02 1303 	add.w	r3, r2, r3, lsl #4
  (pL6470_AppCmdPkg+L6470_Id)->p1 = p1;
 8002e7a:	2100      	movs	r1, #0
  (pL6470_AppCmdPkg+L6470_Id)->p2 = p2;
 8002e7c:	e9c3 1101 	strd	r1, r1, [r3, #4]
  (pL6470_AppCmdPkg+L6470_Id)->p3 = p3;
 8002e80:	60d9      	str	r1, [r3, #12]
    }
 8002e82:	bc30      	pop	{r4, r5}
        prepared_action = PREPARED_NO_ACTION;
 8002e84:	f880 1060 	strb.w	r1, [r0, #96]	; 0x60
    }
 8002e88:	4770      	bx	lr
 8002e8a:	bf00      	nop
 8002e8c:	20001208 	.word	0x20001208
 8002e90:	200011d4 	.word	0x200011d4
	...

08002ea0 <_ZN5L64707read_idEPh>:
    }
 8002ea0:	2000      	movs	r0, #0
 8002ea2:	4770      	bx	lr
	...

08002eb0 <_ZN5L647025L6470_ExtractReturnedDataEPhh>:
  * @param    pL6470_DaisyChainSpiRxStruct  uint8_t-pointer to the matrix that
  *           contains the received data by SPI from the L6470 daisy chain.
  * @param    LengthByte  The number of bytes about the received value.
  */
uint32_t L6470::L6470_ExtractReturnedData(uint8_t* pL6470_DaisyChainSpiRxStruct, uint8_t LengthByte)
{
 8002eb0:	b430      	push	{r4, r5}
  uint8_t i;

  value = 0x000000;
  for (i=1; i<=(L6470MAXSPICMDBYTESIZE-1); i++)
  {
    value |= (*(pL6470_DaisyChainSpiRxStruct+(i*L6470DAISYCHAINSIZE)+L6470_Id))<<((LengthByte-i)*8);
 8002eb2:	7d43      	ldrb	r3, [r0, #21]
 8002eb4:	00d2      	lsls	r2, r2, #3
 8002eb6:	4419      	add	r1, r3
  value = 0x000000;
 8002eb8:	2000      	movs	r0, #0
    value |= (*(pL6470_DaisyChainSpiRxStruct+(i*L6470DAISYCHAINSIZE)+L6470_Id))<<((LengthByte-i)*8);
 8002eba:	2301      	movs	r3, #1
 8002ebc:	f811 4013 	ldrb.w	r4, [r1, r3, lsl #1]
 8002ec0:	ebc3 7543 	rsb	r5, r3, r3, lsl #29
 8002ec4:	eb02 05c5 	add.w	r5, r2, r5, lsl #3
 8002ec8:	3301      	adds	r3, #1
 8002eca:	40ac      	lsls	r4, r5
  for (i=1; i<=(L6470MAXSPICMDBYTESIZE-1); i++)
 8002ecc:	2b04      	cmp	r3, #4
    value |= (*(pL6470_DaisyChainSpiRxStruct+(i*L6470DAISYCHAINSIZE)+L6470_Id))<<((LengthByte-i)*8);
 8002ece:	ea40 0004 	orr.w	r0, r0, r4
  for (i=1; i<=(L6470MAXSPICMDBYTESIZE-1); i++)
 8002ed2:	d1f3      	bne.n	8002ebc <_ZN5L647025L6470_ExtractReturnedDataEPhh+0xc>
  }

  return value;
}
 8002ed4:	bc30      	pop	{r4, r5}
 8002ed6:	4770      	bx	lr
	...

08002ee0 <_ZN5L647016L6470_PrepareRunE14eL6470_DirId_tm>:
{
 8002ee0:	b470      	push	{r4, r5, r6}
  if(!L6470_DaisyChain_HalfPrepared)
 8002ee2:	4d0d      	ldr	r5, [pc, #52]	; (8002f18 <_ZN5L647016L6470_PrepareRunE14eL6470_DirId_tm+0x38>)
    (pL6470_AppCmdPkg+id)->L6470_AppCmdId=(eL6470_AppCmdId_t)0;
 8002ee4:	4c0d      	ldr	r4, [pc, #52]	; (8002f1c <_ZN5L647016L6470_PrepareRunE14eL6470_DirId_tm+0x3c>)
  if(!L6470_DaisyChain_HalfPrepared)
 8002ee6:	782b      	ldrb	r3, [r5, #0]
 8002ee8:	b94b      	cbnz	r3, 8002efe <_ZN5L647016L6470_PrepareRunE14eL6470_DirId_tm+0x1e>
    (pL6470_AppCmdPkg+id)->p2=0;
 8002eea:	e9c4 3301 	strd	r3, r3, [r4, #4]
 8002eee:	e9c4 3305 	strd	r3, r3, [r4, #20]
    L6470_DaisyChain_HalfPrepared = ONE_F; /* To avoid to delete the previous entered command */
 8002ef2:	2601      	movs	r6, #1
    (pL6470_AppCmdPkg+id)->L6470_AppCmdId=(eL6470_AppCmdId_t)0;
 8002ef4:	7023      	strb	r3, [r4, #0]
    (pL6470_AppCmdPkg+id)->p3=0;
 8002ef6:	60e3      	str	r3, [r4, #12]
    (pL6470_AppCmdPkg+id)->L6470_AppCmdId=(eL6470_AppCmdId_t)0;
 8002ef8:	7423      	strb	r3, [r4, #16]
    (pL6470_AppCmdPkg+id)->p3=0;
 8002efa:	61e3      	str	r3, [r4, #28]
    L6470_DaisyChain_HalfPrepared = ONE_F; /* To avoid to delete the previous entered command */
 8002efc:	702e      	strb	r6, [r5, #0]
  (pL6470_AppCmdPkg+L6470_Id)->L6470_AppCmdId = L6470_AppCmdId;
 8002efe:	7d43      	ldrb	r3, [r0, #21]
 8002f00:	011d      	lsls	r5, r3, #4
 8002f02:	eb04 1303 	add.w	r3, r4, r3, lsl #4
 8002f06:	2603      	movs	r6, #3
  (pL6470_AppCmdPkg+L6470_Id)->p3 = p3;
 8002f08:	2000      	movs	r0, #0
  (pL6470_AppCmdPkg+L6470_Id)->L6470_AppCmdId = L6470_AppCmdId;
 8002f0a:	5566      	strb	r6, [r4, r5]
}
 8002f0c:	bc70      	pop	{r4, r5, r6}
  (pL6470_AppCmdPkg+L6470_Id)->p2 = p2;
 8002f0e:	e9c3 1201 	strd	r1, r2, [r3, #4]
  (pL6470_AppCmdPkg+L6470_Id)->p3 = p3;
 8002f12:	60d8      	str	r0, [r3, #12]
}
 8002f14:	4770      	bx	lr
 8002f16:	bf00      	nop
 8002f18:	20001208 	.word	0x20001208
 8002f1c:	200011d4 	.word	0x200011d4

08002f20 <_ZN5L647011prepare_runEN12StepperMotor11direction_tEj>:
    virtual void prepare_run(direction_t direction, unsigned int speed)
 8002f20:	b570      	push	{r4, r5, r6, lr}
 8002f22:	4604      	mov	r4, r0
        L6470_PrepareRun((eL6470_DirId_t) (direction == StepperMotor::FWD ? L6470_DIR_FWD_ID : L6470_DIR_REV_ID), (unsigned int) L6470_Step_s_2_Speed((float) speed));
 8002f24:	4610      	mov	r0, r2
 8002f26:	f1a1 0501 	sub.w	r5, r1, #1
 8002f2a:	f7fd fa95 	bl	8000458 <__aeabi_ui2f>
 8002f2e:	fab5 f585 	clz	r5, r5
  if (Step_s <= (L6470_MAX_SPEED * ((float)14.9012e-3)))
 8002f32:	490b      	ldr	r1, [pc, #44]	; (8002f60 <_ZN5L647011prepare_runEN12StepperMotor11direction_tEj+0x40>)
 8002f34:	096d      	lsrs	r5, r5, #5
 8002f36:	4606      	mov	r6, r0
 8002f38:	f7fd fc8e 	bl	8000858 <__aeabi_fcmple>
 8002f3c:	b170      	cbz	r0, 8002f5c <_ZN5L647011prepare_runEN12StepperMotor11direction_tEj+0x3c>
    return (uint32_t)(Step_s / ((float)14.9012e-3));
 8002f3e:	4909      	ldr	r1, [pc, #36]	; (8002f64 <_ZN5L647011prepare_runEN12StepperMotor11direction_tEj+0x44>)
 8002f40:	4630      	mov	r0, r6
 8002f42:	f7fd fb95 	bl	8000670 <__aeabi_fdiv>
 8002f46:	f7fd fccb 	bl	80008e0 <__aeabi_f2uiz>
 8002f4a:	4602      	mov	r2, r0
 8002f4c:	4629      	mov	r1, r5
 8002f4e:	4620      	mov	r0, r4
 8002f50:	f7ff ffc6 	bl	8002ee0 <_ZN5L647016L6470_PrepareRunE14eL6470_DirId_tm>
        prepared_action = PREPARED_NO_ACTION;
 8002f54:	2300      	movs	r3, #0
 8002f56:	f884 3060 	strb.w	r3, [r4, #96]	; 0x60
    }
 8002f5a:	bd70      	pop	{r4, r5, r6, pc}
 8002f5c:	4602      	mov	r2, r0
 8002f5e:	e7f5      	b.n	8002f4c <_ZN5L647011prepare_runEN12StepperMotor11direction_tEj+0x2c>
 8002f60:	4674241b 	.word	0x4674241b
 8002f64:	3c74242a 	.word	0x3c74242a
	...

08002f70 <_ZN5L647021L6470_PrepareGetParamE14eL6470_RegId_t>:
{
 8002f70:	b430      	push	{r4, r5}
  if(!L6470_DaisyChain_HalfPrepared)
 8002f72:	4c0d      	ldr	r4, [pc, #52]	; (8002fa8 <_ZN5L647021L6470_PrepareGetParamE14eL6470_RegId_t+0x38>)
    (pL6470_AppCmdPkg+id)->L6470_AppCmdId=(eL6470_AppCmdId_t)0;
 8002f74:	4a0d      	ldr	r2, [pc, #52]	; (8002fac <_ZN5L647021L6470_PrepareGetParamE14eL6470_RegId_t+0x3c>)
  if(!L6470_DaisyChain_HalfPrepared)
 8002f76:	7823      	ldrb	r3, [r4, #0]
 8002f78:	b94b      	cbnz	r3, 8002f8e <_ZN5L647021L6470_PrepareGetParamE14eL6470_RegId_t+0x1e>
    (pL6470_AppCmdPkg+id)->p2=0;
 8002f7a:	e9c2 3301 	strd	r3, r3, [r2, #4]
 8002f7e:	e9c2 3305 	strd	r3, r3, [r2, #20]
    L6470_DaisyChain_HalfPrepared = ONE_F; /* To avoid to delete the previous entered command */
 8002f82:	2501      	movs	r5, #1
    (pL6470_AppCmdPkg+id)->L6470_AppCmdId=(eL6470_AppCmdId_t)0;
 8002f84:	7013      	strb	r3, [r2, #0]
    (pL6470_AppCmdPkg+id)->p3=0;
 8002f86:	60d3      	str	r3, [r2, #12]
    (pL6470_AppCmdPkg+id)->L6470_AppCmdId=(eL6470_AppCmdId_t)0;
 8002f88:	7413      	strb	r3, [r2, #16]
    (pL6470_AppCmdPkg+id)->p3=0;
 8002f8a:	61d3      	str	r3, [r2, #28]
    L6470_DaisyChain_HalfPrepared = ONE_F; /* To avoid to delete the previous entered command */
 8002f8c:	7025      	strb	r5, [r4, #0]
  (pL6470_AppCmdPkg+L6470_Id)->L6470_AppCmdId = L6470_AppCmdId;
 8002f8e:	7d43      	ldrb	r3, [r0, #21]
 8002f90:	011c      	lsls	r4, r3, #4
 8002f92:	2502      	movs	r5, #2
 8002f94:	5515      	strb	r5, [r2, r4]
 8002f96:	eb02 1303 	add.w	r3, r2, r3, lsl #4
  (pL6470_AppCmdPkg+L6470_Id)->p2 = p2;
 8002f9a:	2000      	movs	r0, #0
}
 8002f9c:	bc30      	pop	{r4, r5}
  (pL6470_AppCmdPkg+L6470_Id)->p2 = p2;
 8002f9e:	e9c3 1001 	strd	r1, r0, [r3, #4]
  (pL6470_AppCmdPkg+L6470_Id)->p3 = p3;
 8002fa2:	60d8      	str	r0, [r3, #12]
}
 8002fa4:	4770      	bx	lr
 8002fa6:	bf00      	nop
 8002fa8:	20001208 	.word	0x20001208
 8002fac:	200011d4 	.word	0x200011d4

08002fb0 <_ZN5L647024prepare_get_decelerationEv>:
    virtual void prepare_get_deceleration(void)
 8002fb0:	b510      	push	{r4, lr}
        L6470_PrepareGetParam((eL6470_RegId_t) L6470_DEC_ID);
 8002fb2:	2105      	movs	r1, #5
    virtual void prepare_get_deceleration(void)
 8002fb4:	4604      	mov	r4, r0
        L6470_PrepareGetParam((eL6470_RegId_t) L6470_DEC_ID);
 8002fb6:	f7ff ffdb 	bl	8002f70 <_ZN5L647021L6470_PrepareGetParamE14eL6470_RegId_t>
        prepared_action = PREPARED_GET_DECELERATION;
 8002fba:	2307      	movs	r3, #7
 8002fbc:	f884 3060 	strb.w	r3, [r4, #96]	; 0x60
    }
 8002fc0:	bd10      	pop	{r4, pc}
 8002fc2:	bf00      	nop
	...

08002fd0 <_ZN5L647024prepare_get_accelerationEv>:
    virtual void prepare_get_acceleration(void)
 8002fd0:	b510      	push	{r4, lr}
        L6470_PrepareGetParam((eL6470_RegId_t) L6470_ACC_ID);
 8002fd2:	2104      	movs	r1, #4
    virtual void prepare_get_acceleration(void)
 8002fd4:	4604      	mov	r4, r0
        L6470_PrepareGetParam((eL6470_RegId_t) L6470_ACC_ID);
 8002fd6:	f7ff ffcb 	bl	8002f70 <_ZN5L647021L6470_PrepareGetParamE14eL6470_RegId_t>
        prepared_action = PREPARED_GET_ACCELERATION;
 8002fda:	2306      	movs	r3, #6
 8002fdc:	f884 3060 	strb.w	r3, [r4, #96]	; 0x60
    }
 8002fe0:	bd10      	pop	{r4, pc}
 8002fe2:	bf00      	nop
	...

08002ff0 <_ZN5L647021prepare_get_min_speedEv>:
    virtual void prepare_get_min_speed(void)
 8002ff0:	b510      	push	{r4, lr}
        L6470_PrepareGetParam((eL6470_RegId_t) L6470_MIN_SPEED_ID);
 8002ff2:	2107      	movs	r1, #7
    virtual void prepare_get_min_speed(void)
 8002ff4:	4604      	mov	r4, r0
        L6470_PrepareGetParam((eL6470_RegId_t) L6470_MIN_SPEED_ID);
 8002ff6:	f7ff ffbb 	bl	8002f70 <_ZN5L647021L6470_PrepareGetParamE14eL6470_RegId_t>
        prepared_action = PREPARED_GET_MIN_SPEED;
 8002ffa:	2305      	movs	r3, #5
 8002ffc:	f884 3060 	strb.w	r3, [r4, #96]	; 0x60
    }
 8003000:	bd10      	pop	{r4, pc}
 8003002:	bf00      	nop
	...

08003010 <_ZN5L647021prepare_get_max_speedEv>:
    virtual void prepare_get_max_speed(void)
 8003010:	b510      	push	{r4, lr}
        L6470_PrepareGetParam((eL6470_RegId_t) L6470_MAX_SPEED_ID);
 8003012:	2106      	movs	r1, #6
    virtual void prepare_get_max_speed(void)
 8003014:	4604      	mov	r4, r0
        L6470_PrepareGetParam((eL6470_RegId_t) L6470_MAX_SPEED_ID);
 8003016:	f7ff ffab 	bl	8002f70 <_ZN5L647021L6470_PrepareGetParamE14eL6470_RegId_t>
        prepared_action = PREPARED_GET_MAX_SPEED;
 800301a:	2304      	movs	r3, #4
 800301c:	f884 3060 	strb.w	r3, [r4, #96]	; 0x60
    }
 8003020:	bd10      	pop	{r4, pc}
 8003022:	bf00      	nop
	...

08003030 <_ZN5L647017prepare_get_speedEv>:
    virtual void prepare_get_speed(void)
 8003030:	b510      	push	{r4, lr}
        L6470_PrepareGetParam((eL6470_RegId_t) L6470_SPEED_ID);
 8003032:	2103      	movs	r1, #3
    virtual void prepare_get_speed(void)
 8003034:	4604      	mov	r4, r0
        L6470_PrepareGetParam((eL6470_RegId_t) L6470_SPEED_ID);
 8003036:	f7ff ff9b 	bl	8002f70 <_ZN5L647021L6470_PrepareGetParamE14eL6470_RegId_t>
        prepared_action = PREPARED_GET_SPEED;
 800303a:	2303      	movs	r3, #3
 800303c:	f884 3060 	strb.w	r3, [r4, #96]	; 0x60
    }
 8003040:	bd10      	pop	{r4, pc}
 8003042:	bf00      	nop
	...

08003050 <_ZN5L647016prepare_get_markEv>:
    virtual void prepare_get_mark(void)
 8003050:	b510      	push	{r4, lr}
        L6470_PrepareGetParam((eL6470_RegId_t) L6470_MARK_ID);
 8003052:	2102      	movs	r1, #2
    virtual void prepare_get_mark(void)
 8003054:	4604      	mov	r4, r0
        L6470_PrepareGetParam((eL6470_RegId_t) L6470_MARK_ID);
 8003056:	f7ff ff8b 	bl	8002f70 <_ZN5L647021L6470_PrepareGetParamE14eL6470_RegId_t>
        prepared_action = PREPARED_GET_MARK;
 800305a:	2302      	movs	r3, #2
 800305c:	f884 3060 	strb.w	r3, [r4, #96]	; 0x60
    }
 8003060:	bd10      	pop	{r4, pc}
 8003062:	bf00      	nop
	...

08003070 <_ZN5L647020prepare_get_positionEv>:
    virtual void prepare_get_position(void)
 8003070:	b510      	push	{r4, lr}
        L6470_PrepareGetParam((eL6470_RegId_t) L6470_ABS_POS_ID);
 8003072:	2100      	movs	r1, #0
    virtual void prepare_get_position(void)
 8003074:	4604      	mov	r4, r0
        L6470_PrepareGetParam((eL6470_RegId_t) L6470_ABS_POS_ID);
 8003076:	f7ff ff7b 	bl	8002f70 <_ZN5L647021L6470_PrepareGetParamE14eL6470_RegId_t>
        prepared_action = PREPARED_GET_POSITION;
 800307a:	2301      	movs	r3, #1
 800307c:	f884 3060 	strb.w	r3, [r4, #96]	; 0x60
    }
 8003080:	bd10      	pop	{r4, pc}
 8003082:	bf00      	nop
	...

08003090 <_ZN5L647021prepare_get_parameterEj>:
    virtual void prepare_get_parameter(unsigned int parameter)
 8003090:	b510      	push	{r4, lr}
        L6470_PrepareGetParam((eL6470_RegId_t) parameter);
 8003092:	b2c9      	uxtb	r1, r1
    virtual void prepare_get_parameter(unsigned int parameter)
 8003094:	4604      	mov	r4, r0
        L6470_PrepareGetParam((eL6470_RegId_t) parameter);
 8003096:	f7ff ff6b 	bl	8002f70 <_ZN5L647021L6470_PrepareGetParamE14eL6470_RegId_t>
        prepared_action = PREPARED_NO_ACTION;
 800309a:	2300      	movs	r3, #0
 800309c:	f884 3060 	strb.w	r3, [r4, #96]	; 0x60
    }
 80030a0:	bd10      	pop	{r4, pc}
 80030a2:	bf00      	nop
	...

080030b0 <_ZN5L647021L6470_PrepareSetParamE14eL6470_RegId_tm>:
{
 80030b0:	b470      	push	{r4, r5, r6}
  if(!L6470_DaisyChain_HalfPrepared)
 80030b2:	4d0d      	ldr	r5, [pc, #52]	; (80030e8 <_ZN5L647021L6470_PrepareSetParamE14eL6470_RegId_tm+0x38>)
    (pL6470_AppCmdPkg+id)->L6470_AppCmdId=(eL6470_AppCmdId_t)0;
 80030b4:	4c0d      	ldr	r4, [pc, #52]	; (80030ec <_ZN5L647021L6470_PrepareSetParamE14eL6470_RegId_tm+0x3c>)
  if(!L6470_DaisyChain_HalfPrepared)
 80030b6:	782b      	ldrb	r3, [r5, #0]
 80030b8:	b94b      	cbnz	r3, 80030ce <_ZN5L647021L6470_PrepareSetParamE14eL6470_RegId_tm+0x1e>
    (pL6470_AppCmdPkg+id)->p2=0;
 80030ba:	e9c4 3301 	strd	r3, r3, [r4, #4]
 80030be:	e9c4 3305 	strd	r3, r3, [r4, #20]
    L6470_DaisyChain_HalfPrepared = ONE_F; /* To avoid to delete the previous entered command */
 80030c2:	2601      	movs	r6, #1
    (pL6470_AppCmdPkg+id)->L6470_AppCmdId=(eL6470_AppCmdId_t)0;
 80030c4:	7023      	strb	r3, [r4, #0]
    (pL6470_AppCmdPkg+id)->p3=0;
 80030c6:	60e3      	str	r3, [r4, #12]
    (pL6470_AppCmdPkg+id)->L6470_AppCmdId=(eL6470_AppCmdId_t)0;
 80030c8:	7423      	strb	r3, [r4, #16]
    (pL6470_AppCmdPkg+id)->p3=0;
 80030ca:	61e3      	str	r3, [r4, #28]
    L6470_DaisyChain_HalfPrepared = ONE_F; /* To avoid to delete the previous entered command */
 80030cc:	702e      	strb	r6, [r5, #0]
  (pL6470_AppCmdPkg+L6470_Id)->L6470_AppCmdId = L6470_AppCmdId;
 80030ce:	7d43      	ldrb	r3, [r0, #21]
 80030d0:	011d      	lsls	r5, r3, #4
 80030d2:	eb04 1303 	add.w	r3, r4, r3, lsl #4
 80030d6:	2601      	movs	r6, #1
  (pL6470_AppCmdPkg+L6470_Id)->p3 = p3;
 80030d8:	2000      	movs	r0, #0
  (pL6470_AppCmdPkg+L6470_Id)->L6470_AppCmdId = L6470_AppCmdId;
 80030da:	5566      	strb	r6, [r4, r5]
}
 80030dc:	bc70      	pop	{r4, r5, r6}
  (pL6470_AppCmdPkg+L6470_Id)->p2 = p2;
 80030de:	e9c3 1201 	strd	r1, r2, [r3, #4]
  (pL6470_AppCmdPkg+L6470_Id)->p3 = p3;
 80030e2:	60d8      	str	r0, [r3, #12]
}
 80030e4:	4770      	bx	lr
 80030e6:	bf00      	nop
 80030e8:	20001208 	.word	0x20001208
 80030ec:	200011d4 	.word	0x200011d4

080030f0 <_ZN5L647016prepare_set_markEi>:
    virtual void prepare_set_mark(signed int position)
 80030f0:	b510      	push	{r4, lr}
 80030f2:	4604      	mov	r4, r0
        L6470_PrepareSetParam((eL6470_RegId_t) L6470_MARK_ID, (uint32_t) L6470_Position_2_AbsPos((int32_t) position));
 80030f4:	4608      	mov	r0, r1
 80030f6:	f7ff fc03 	bl	8002900 <_ZN5L647023L6470_Position_2_AbsPosEl.constprop.0>
 80030fa:	2102      	movs	r1, #2
 80030fc:	4602      	mov	r2, r0
 80030fe:	4620      	mov	r0, r4
 8003100:	f7ff ffd6 	bl	80030b0 <_ZN5L647021L6470_PrepareSetParamE14eL6470_RegId_tm>
        prepared_action = PREPARED_NO_ACTION;
 8003104:	2300      	movs	r3, #0
 8003106:	f884 3060 	strb.w	r3, [r4, #96]	; 0x60
    }
 800310a:	bd10      	pop	{r4, pc}
 800310c:	0000      	movs	r0, r0
	...

08003110 <_ZN5L647024prepare_set_decelerationEj>:
    virtual void prepare_set_deceleration(unsigned int deceleration)
 8003110:	b538      	push	{r3, r4, r5, lr}
 8003112:	4604      	mov	r4, r0
        L6470_PrepareSetParam((eL6470_RegId_t) L6470_DEC_ID, (uint32_t) L6470_Step_s2_2_Dec((float) deceleration));
 8003114:	4608      	mov	r0, r1
 8003116:	f7fd f99f 	bl	8000458 <__aeabi_ui2f>
  if (Step_s2 <= (L6470_MAX_ACC * ((float)1.4552e1)))
 800311a:	490b      	ldr	r1, [pc, #44]	; (8003148 <_ZN5L647024prepare_set_decelerationEj+0x38>)
 800311c:	4605      	mov	r5, r0
 800311e:	f7fd fb9b 	bl	8000858 <__aeabi_fcmple>
 8003122:	b170      	cbz	r0, 8003142 <_ZN5L647024prepare_set_decelerationEj+0x32>
    return (uint16_t)(Step_s2 / ((float)1.4552e1));
 8003124:	4909      	ldr	r1, [pc, #36]	; (800314c <_ZN5L647024prepare_set_decelerationEj+0x3c>)
 8003126:	4628      	mov	r0, r5
 8003128:	f7fd faa2 	bl	8000670 <__aeabi_fdiv>
 800312c:	f7fd fbd8 	bl	80008e0 <__aeabi_f2uiz>
 8003130:	b282      	uxth	r2, r0
 8003132:	2105      	movs	r1, #5
 8003134:	4620      	mov	r0, r4
 8003136:	f7ff ffbb 	bl	80030b0 <_ZN5L647021L6470_PrepareSetParamE14eL6470_RegId_tm>
        prepared_action = PREPARED_NO_ACTION;
 800313a:	2300      	movs	r3, #0
 800313c:	f884 3060 	strb.w	r3, [r4, #96]	; 0x60
    }
 8003140:	bd38      	pop	{r3, r4, r5, pc}
 8003142:	4602      	mov	r2, r0
 8003144:	e7f5      	b.n	8003132 <_ZN5L647024prepare_set_decelerationEj+0x22>
 8003146:	bf00      	nop
 8003148:	4768c671 	.word	0x4768c671
 800314c:	4168d4fe 	.word	0x4168d4fe

08003150 <_ZN5L647024prepare_set_accelerationEj>:
    virtual void prepare_set_acceleration(unsigned int acceleration)
 8003150:	b538      	push	{r3, r4, r5, lr}
 8003152:	4604      	mov	r4, r0
        L6470_PrepareSetParam((eL6470_RegId_t) L6470_ACC_ID, (uint32_t) L6470_Step_s2_2_Acc((float) acceleration));
 8003154:	4608      	mov	r0, r1
 8003156:	f7fd f97f 	bl	8000458 <__aeabi_ui2f>
  if (Step_s2 <= (L6470_MAX_ACC * ((float)1.4552e1)))
 800315a:	490b      	ldr	r1, [pc, #44]	; (8003188 <_ZN5L647024prepare_set_accelerationEj+0x38>)
 800315c:	4605      	mov	r5, r0
 800315e:	f7fd fb7b 	bl	8000858 <__aeabi_fcmple>
 8003162:	b170      	cbz	r0, 8003182 <_ZN5L647024prepare_set_accelerationEj+0x32>
    return (uint16_t)(Step_s2 / ((float)1.4552e1));
 8003164:	4909      	ldr	r1, [pc, #36]	; (800318c <_ZN5L647024prepare_set_accelerationEj+0x3c>)
 8003166:	4628      	mov	r0, r5
 8003168:	f7fd fa82 	bl	8000670 <__aeabi_fdiv>
 800316c:	f7fd fbb8 	bl	80008e0 <__aeabi_f2uiz>
 8003170:	b282      	uxth	r2, r0
 8003172:	2104      	movs	r1, #4
 8003174:	4620      	mov	r0, r4
 8003176:	f7ff ff9b 	bl	80030b0 <_ZN5L647021L6470_PrepareSetParamE14eL6470_RegId_tm>
        prepared_action = PREPARED_NO_ACTION;
 800317a:	2300      	movs	r3, #0
 800317c:	f884 3060 	strb.w	r3, [r4, #96]	; 0x60
    }
 8003180:	bd38      	pop	{r3, r4, r5, pc}
 8003182:	4602      	mov	r2, r0
 8003184:	e7f5      	b.n	8003172 <_ZN5L647024prepare_set_accelerationEj+0x22>
 8003186:	bf00      	nop
 8003188:	4768c671 	.word	0x4768c671
 800318c:	4168d4fe 	.word	0x4168d4fe

08003190 <_ZN5L647021prepare_set_min_speedEj>:
    virtual void prepare_set_min_speed(unsigned int speed)
 8003190:	b538      	push	{r3, r4, r5, lr}
 8003192:	4604      	mov	r4, r0
        L6470_PrepareSetParam((eL6470_RegId_t) L6470_MIN_SPEED_ID, (uint32_t) L6470_Step_s_2_MinSpeed((float) speed));
 8003194:	4608      	mov	r0, r1
 8003196:	f7fd f95f 	bl	8000458 <__aeabi_ui2f>
  if (Step_s <= (L6470_MAX_MIN_SPEED * ((float)238.4186e-3)))
 800319a:	490b      	ldr	r1, [pc, #44]	; (80031c8 <_ZN5L647021prepare_set_min_speedEj+0x38>)
 800319c:	4605      	mov	r5, r0
 800319e:	f7fd fb5b 	bl	8000858 <__aeabi_fcmple>
 80031a2:	b170      	cbz	r0, 80031c2 <_ZN5L647021prepare_set_min_speedEj+0x32>
    return (uint16_t)(Step_s / ((float)238.4186e-3));
 80031a4:	4909      	ldr	r1, [pc, #36]	; (80031cc <_ZN5L647021prepare_set_min_speedEj+0x3c>)
 80031a6:	4628      	mov	r0, r5
 80031a8:	f7fd fa62 	bl	8000670 <__aeabi_fdiv>
 80031ac:	f7fd fb98 	bl	80008e0 <__aeabi_f2uiz>
 80031b0:	b282      	uxth	r2, r0
 80031b2:	2107      	movs	r1, #7
 80031b4:	4620      	mov	r0, r4
 80031b6:	f7ff ff7b 	bl	80030b0 <_ZN5L647021L6470_PrepareSetParamE14eL6470_RegId_tm>
        prepared_action = PREPARED_NO_ACTION;
 80031ba:	2300      	movs	r3, #0
 80031bc:	f884 3060 	strb.w	r3, [r4, #96]	; 0x60
    }
 80031c0:	bd38      	pop	{r3, r4, r5, pc}
 80031c2:	4602      	mov	r2, r0
 80031c4:	e7f5      	b.n	80031b2 <_ZN5L647021prepare_set_min_speedEj+0x22>
 80031c6:	bf00      	nop
 80031c8:	447414bf 	.word	0x447414bf
 80031cc:	3e742401 	.word	0x3e742401

080031d0 <_ZN5L647021prepare_set_max_speedEj>:
    virtual void prepare_set_max_speed(unsigned int speed)
 80031d0:	b538      	push	{r3, r4, r5, lr}
 80031d2:	4604      	mov	r4, r0
        L6470_PrepareSetParam((eL6470_RegId_t) L6470_MAX_SPEED_ID, (uint32_t) L6470_Step_s_2_MaxSpeed((float) speed));
 80031d4:	4608      	mov	r0, r1
 80031d6:	f7fd f93f 	bl	8000458 <__aeabi_ui2f>
  if (Step_s <= (L6470_MAX_MAX_SPEED * ((float)15.2588)))
 80031da:	490b      	ldr	r1, [pc, #44]	; (8003208 <_ZN5L647021prepare_set_max_speedEj+0x38>)
 80031dc:	4605      	mov	r5, r0
 80031de:	f7fd fb3b 	bl	8000858 <__aeabi_fcmple>
 80031e2:	b170      	cbz	r0, 8003202 <_ZN5L647021prepare_set_max_speedEj+0x32>
    return (uint16_t)(Step_s / ((float)15.2588));
 80031e4:	4909      	ldr	r1, [pc, #36]	; (800320c <_ZN5L647021prepare_set_max_speedEj+0x3c>)
 80031e6:	4628      	mov	r0, r5
 80031e8:	f7fd fa42 	bl	8000670 <__aeabi_fdiv>
 80031ec:	f7fd fb78 	bl	80008e0 <__aeabi_f2uiz>
 80031f0:	b282      	uxth	r2, r0
 80031f2:	2106      	movs	r1, #6
 80031f4:	4620      	mov	r0, r4
 80031f6:	f7ff ff5b 	bl	80030b0 <_ZN5L647021L6470_PrepareSetParamE14eL6470_RegId_tm>
        prepared_action = PREPARED_NO_ACTION;
 80031fa:	2300      	movs	r3, #0
 80031fc:	f884 3060 	strb.w	r3, [r4, #96]	; 0x60
    }
 8003200:	bd38      	pop	{r3, r4, r5, pc}
 8003202:	4602      	mov	r2, r0
 8003204:	e7f5      	b.n	80031f2 <_ZN5L647021prepare_set_max_speedEj+0x22>
 8003206:	bf00      	nop
 8003208:	4673e702 	.word	0x4673e702
 800320c:	4174240b 	.word	0x4174240b

08003210 <_ZN5L647017prepare_set_speedEj>:
    virtual void prepare_set_speed(unsigned int speed)
 8003210:	b538      	push	{r3, r4, r5, lr}
 8003212:	4604      	mov	r4, r0
        L6470_PrepareSetParam((eL6470_RegId_t) L6470_SPEED_ID, (uint32_t) L6470_Step_s_2_Speed((float) speed));
 8003214:	4608      	mov	r0, r1
 8003216:	f7fd f91f 	bl	8000458 <__aeabi_ui2f>
  if (Step_s <= (L6470_MAX_SPEED * ((float)14.9012e-3)))
 800321a:	490b      	ldr	r1, [pc, #44]	; (8003248 <_ZN5L647017prepare_set_speedEj+0x38>)
 800321c:	4605      	mov	r5, r0
 800321e:	f7fd fb1b 	bl	8000858 <__aeabi_fcmple>
 8003222:	b170      	cbz	r0, 8003242 <_ZN5L647017prepare_set_speedEj+0x32>
    return (uint32_t)(Step_s / ((float)14.9012e-3));
 8003224:	4909      	ldr	r1, [pc, #36]	; (800324c <_ZN5L647017prepare_set_speedEj+0x3c>)
 8003226:	4628      	mov	r0, r5
 8003228:	f7fd fa22 	bl	8000670 <__aeabi_fdiv>
 800322c:	f7fd fb58 	bl	80008e0 <__aeabi_f2uiz>
 8003230:	4602      	mov	r2, r0
 8003232:	2103      	movs	r1, #3
 8003234:	4620      	mov	r0, r4
 8003236:	f7ff ff3b 	bl	80030b0 <_ZN5L647021L6470_PrepareSetParamE14eL6470_RegId_tm>
        prepared_action = PREPARED_NO_ACTION;
 800323a:	2300      	movs	r3, #0
 800323c:	f884 3060 	strb.w	r3, [r4, #96]	; 0x60
    }
 8003240:	bd38      	pop	{r3, r4, r5, pc}
 8003242:	4602      	mov	r2, r0
 8003244:	e7f5      	b.n	8003232 <_ZN5L647017prepare_set_speedEj+0x22>
 8003246:	bf00      	nop
 8003248:	4674241b 	.word	0x4674241b
 800324c:	3c74242a 	.word	0x3c74242a

08003250 <_ZN5L647016prepare_set_markEv>:
    virtual void prepare_set_mark(void)
 8003250:	b510      	push	{r4, lr}
        L6470_PrepareSetParam((eL6470_RegId_t) L6470_MARK_ID, 0);
 8003252:	2200      	movs	r2, #0
    virtual void prepare_set_mark(void)
 8003254:	4604      	mov	r4, r0
        L6470_PrepareSetParam((eL6470_RegId_t) L6470_MARK_ID, 0);
 8003256:	2102      	movs	r1, #2
 8003258:	f7ff ff2a 	bl	80030b0 <_ZN5L647021L6470_PrepareSetParamE14eL6470_RegId_tm>
        prepared_action = PREPARED_SET_MARK;
 800325c:	2309      	movs	r3, #9
 800325e:	f884 3060 	strb.w	r3, [r4, #96]	; 0x60
    }
 8003262:	bd10      	pop	{r4, pc}
	...

08003270 <_ZN5L647021prepare_set_parameterEjj>:
    virtual void prepare_set_parameter(unsigned int parameter, unsigned int value)
 8003270:	b510      	push	{r4, lr}
        L6470_PrepareSetParam((eL6470_RegId_t) parameter, (uint32_t) value);
 8003272:	b2c9      	uxtb	r1, r1
    virtual void prepare_set_parameter(unsigned int parameter, unsigned int value)
 8003274:	4604      	mov	r4, r0
        L6470_PrepareSetParam((eL6470_RegId_t) parameter, (uint32_t) value);
 8003276:	f7ff ff1b 	bl	80030b0 <_ZN5L647021L6470_PrepareSetParamE14eL6470_RegId_tm>
        prepared_action = PREPARED_NO_ACTION;
 800327a:	2300      	movs	r3, #0
 800327c:	f884 3060 	strb.w	r3, [r4, #96]	; 0x60
    }
 8003280:	bd10      	pop	{r4, pc}
 8003282:	bf00      	nop
	...

08003290 <_port_irq_epilogue>:
 8003290:	2320      	movs	r3, #32
 8003292:	f383 8811 	msr	BASEPRI, r3
 * @brief   Exception exit redirection to _port_switch_from_isr().
 */
void _port_irq_epilogue(void) {

  port_lock_from_isr();
  if ((SCB->ICSR & SCB_ICSR_RETTOBASE_Msk) != 0U) {
 8003296:	4b0d      	ldr	r3, [pc, #52]	; (80032cc <_port_irq_epilogue+0x3c>)
 8003298:	685b      	ldr	r3, [r3, #4]
 800329a:	f413 6300 	ands.w	r3, r3, #2048	; 0x800
 800329e:	d102      	bne.n	80032a6 <_port_irq_epilogue+0x16>
 80032a0:	f383 8811 	msr	BASEPRI, r3
    /* Note, returning without unlocking is intentional, this is done in
       order to keep the rest of the context switch atomic.*/
    return;
  }
  port_unlock_from_isr();
}
 80032a4:	4770      	bx	lr
  __ASM volatile ("MRS %0, psp"  : "=r" (result) );
 80032a6:	f3ef 8309 	mrs	r3, PSP
    s_psp -= sizeof (struct port_extctx);
 80032aa:	3b20      	subs	r3, #32
    ectxp->xpsr = 0x01000000U;
 80032ac:	f04f 7280 	mov.w	r2, #16777216	; 0x1000000
 80032b0:	61da      	str	r2, [r3, #28]
  __ASM volatile ("MSR psp, %0" : : "r" (topOfProcStack) : );
 80032b2:	f383 8809 	msr	PSP, r3
 * @retval false        if preemption is not required.
 *
 * @special
 */
bool chSchIsPreemptionRequired(void) {
  tprio_t p1 = firstprio(&ch.rlist.queue);
 80032b6:	4a06      	ldr	r2, [pc, #24]	; (80032d0 <_port_irq_epilogue+0x40>)
 80032b8:	6811      	ldr	r1, [r2, #0]
  tprio_t p2 = currp->prio;
 80032ba:	6992      	ldr	r2, [r2, #24]
    if (chSchIsPreemptionRequired()) {
 80032bc:	6889      	ldr	r1, [r1, #8]
 80032be:	6892      	ldr	r2, [r2, #8]
 80032c0:	4291      	cmp	r1, r2
      ectxp->pc = (uint32_t)_port_switch_from_isr;
 80032c2:	bf8c      	ite	hi
 80032c4:	4a03      	ldrhi	r2, [pc, #12]	; (80032d4 <_port_irq_epilogue+0x44>)
      ectxp->pc = (uint32_t)_port_exit_from_isr;
 80032c6:	4a04      	ldrls	r2, [pc, #16]	; (80032d8 <_port_irq_epilogue+0x48>)
 80032c8:	619a      	str	r2, [r3, #24]
 80032ca:	4770      	bx	lr
 80032cc:	e000ed00 	.word	0xe000ed00
 80032d0:	2000128c 	.word	0x2000128c
 80032d4:	080002e3 	.word	0x080002e3
 80032d8:	080002e6 	.word	0x080002e6
 80032dc:	00000000 	.word	0x00000000

080032e0 <chCoreAllocAlignedI>:
  p = (uint8_t *)MEM_ALIGN_PREV(ch_memcore.topmem - size, align);
 80032e0:	4a08      	ldr	r2, [pc, #32]	; (8003304 <chCoreAllocAlignedI+0x24>)
 * @return              A pointer to the allocated memory block.
 * @retval NULL         allocation failed, core memory exhausted.
 *
 * @iclass
 */
static inline void *chCoreAllocAlignedI(size_t size, unsigned align) {
 80032e2:	b410      	push	{r4}
  if ((prev < ch_memcore.basemem) || (prev > ch_memcore.topmem)) {
 80032e4:	e9d2 3400 	ldrd	r3, r4, [r2]
  p = (uint8_t *)MEM_ALIGN_PREV(ch_memcore.topmem - size, align);
 80032e8:	4249      	negs	r1, r1
 80032ea:	1a20      	subs	r0, r4, r0
 80032ec:	4008      	ands	r0, r1
  if ((prev < ch_memcore.basemem) || (prev > ch_memcore.topmem)) {
 80032ee:	4298      	cmp	r0, r3
 80032f0:	d304      	bcc.n	80032fc <chCoreAllocAlignedI+0x1c>
 80032f2:	4284      	cmp	r4, r0
 80032f4:	d302      	bcc.n	80032fc <chCoreAllocAlignedI+0x1c>

  return chCoreAllocAlignedWithOffsetI(size, align, 0U);
}
 80032f6:	bc10      	pop	{r4}
  ch_memcore.topmem = prev;
 80032f8:	6050      	str	r0, [r2, #4]
 80032fa:	4770      	bx	lr
    return NULL;
 80032fc:	2000      	movs	r0, #0
 80032fe:	bc10      	pop	{r4}
 8003300:	4770      	bx	lr
 8003302:	bf00      	nop
 8003304:	20001428 	.word	0x20001428
	...

08003310 <chTMStopMeasurementX>:
 *
 * @return              The realtime counter value.
 */
__STATIC_FORCEINLINE rtcnt_t port_rt_get_counter_value(void) {

  return DWT->CYCCNT;
 8003310:	4a0e      	ldr	r2, [pc, #56]	; (800334c <chTMStopMeasurementX+0x3c>)
 *
 * @xclass
 */
NOINLINE void chTMStopMeasurementX(time_measurement_t *tmp) {

  tm_stop(tmp, chSysGetRealtimeCounterX(), ch.tm.offset);
 8003312:	4b0f      	ldr	r3, [pc, #60]	; (8003350 <chTMStopMeasurementX+0x40>)
 8003314:	6852      	ldr	r2, [r2, #4]
 8003316:	6f5b      	ldr	r3, [r3, #116]	; 0x74
  tmp->last = (now - tmp->last) - offset;
 8003318:	6881      	ldr	r1, [r0, #8]
NOINLINE void chTMStopMeasurementX(time_measurement_t *tmp) {
 800331a:	b430      	push	{r4, r5}
  tmp->last = (now - tmp->last) - offset;
 800331c:	1ad3      	subs	r3, r2, r3
  tmp->cumulative += (rttime_t)tmp->last;
 800331e:	e9d0 4504 	ldrd	r4, r5, [r0, #16]
  tmp->n++;
 8003322:	68c2      	ldr	r2, [r0, #12]
  tmp->last = (now - tmp->last) - offset;
 8003324:	1a5b      	subs	r3, r3, r1
  tmp->n++;
 8003326:	3201      	adds	r2, #1
  if (tmp->last > tmp->worst) {
 8003328:	6841      	ldr	r1, [r0, #4]
  tmp->n++;
 800332a:	60c2      	str	r2, [r0, #12]
  tmp->cumulative += (rttime_t)tmp->last;
 800332c:	18e4      	adds	r4, r4, r3
  if (tmp->last < tmp->best) {
 800332e:	6802      	ldr	r2, [r0, #0]
  tmp->last = (now - tmp->last) - offset;
 8003330:	6083      	str	r3, [r0, #8]
  tmp->cumulative += (rttime_t)tmp->last;
 8003332:	f145 0500 	adc.w	r5, r5, #0
  if (tmp->last > tmp->worst) {
 8003336:	428b      	cmp	r3, r1
    tmp->worst = tmp->last;
 8003338:	bf88      	it	hi
 800333a:	6043      	strhi	r3, [r0, #4]
  if (tmp->last < tmp->best) {
 800333c:	4293      	cmp	r3, r2
  tmp->cumulative += (rttime_t)tmp->last;
 800333e:	e9c0 4504 	strd	r4, r5, [r0, #16]
    tmp->best = tmp->last;
 8003342:	bf38      	it	cc
 8003344:	6003      	strcc	r3, [r0, #0]
}
 8003346:	bc30      	pop	{r4, r5}
 8003348:	4770      	bx	lr
 800334a:	bf00      	nop
 800334c:	e0001000 	.word	0xe0001000
 8003350:	2000128c 	.word	0x2000128c
	...

08003360 <chTMStartMeasurementX>:
 8003360:	4b01      	ldr	r3, [pc, #4]	; (8003368 <chTMStartMeasurementX+0x8>)
 8003362:	685b      	ldr	r3, [r3, #4]
  tmp->last = chSysGetRealtimeCounterX();
 8003364:	6083      	str	r3, [r0, #8]
}
 8003366:	4770      	bx	lr
 8003368:	e0001000 	.word	0xe0001000
 800336c:	00000000 	.word	0x00000000

08003370 <wakeup>:
  __ASM volatile ("MSR basepri, %0" : : "r" (basePri) : "memory");
 8003370:	2320      	movs	r3, #32
 8003372:	f383 8811 	msr	BASEPRI, r3
  switch (tp->state) {
 8003376:	f890 3020 	ldrb.w	r3, [r0, #32]
 800337a:	2b07      	cmp	r3, #7
 800337c:	d80d      	bhi.n	800339a <wakeup+0x2a>
 800337e:	e8df f003 	tbb	[pc, r3]
 8003382:	0c27      	.short	0x0c27
 8003384:	0408230c 	.word	0x0408230c
 8003388:	080c      	.short	0x080c
    chSemFastSignalI(tp->u.wtsemp);
 800338a:	6a42      	ldr	r2, [r0, #36]	; 0x24
 */
static inline void chSemFastSignalI(semaphore_t *sp) {

  chDbgCheckClassI();

  sp->cnt++;
 800338c:	6893      	ldr	r3, [r2, #8]
 800338e:	3301      	adds	r3, #1
 8003390:	6093      	str	r3, [r2, #8]
  return tp;
}

static inline thread_t *queue_dequeue(thread_t *tp) {

  tp->queue.prev->queue.next = tp->queue.next;
 8003392:	e9d0 3200 	ldrd	r3, r2, [r0]
 8003396:	6013      	str	r3, [r2, #0]
  tp->queue.next->queue.prev = tp->queue.prev;
 8003398:	605a      	str	r2, [r3, #4]
static void wakeup(void *p) {
 800339a:	b410      	push	{r4}
  tp->state = CH_STATE_READY;
 800339c:	2200      	movs	r2, #0
  tp->u.rdymsg = MSG_TIMEOUT;
 800339e:	f04f 34ff 	mov.w	r4, #4294967295	; 0xffffffff
  } while (cp->prio >= tp->prio);
 80033a2:	6881      	ldr	r1, [r0, #8]
  cp = (thread_t *)&ch.rlist.queue;
 80033a4:	4b0c      	ldr	r3, [pc, #48]	; (80033d8 <wakeup+0x68>)
  tp->u.rdymsg = MSG_TIMEOUT;
 80033a6:	6244      	str	r4, [r0, #36]	; 0x24
  tp->state = CH_STATE_READY;
 80033a8:	f880 2020 	strb.w	r2, [r0, #32]
    cp = cp->queue.next;
 80033ac:	681b      	ldr	r3, [r3, #0]
  } while (cp->prio >= tp->prio);
 80033ae:	689a      	ldr	r2, [r3, #8]
 80033b0:	428a      	cmp	r2, r1
 80033b2:	d2fb      	bcs.n	80033ac <wakeup+0x3c>
  tp->queue.prev             = cp->queue.prev;
 80033b4:	685a      	ldr	r2, [r3, #4]
 80033b6:	2100      	movs	r1, #0
 80033b8:	e9c0 3200 	strd	r3, r2, [r0]
  tp->queue.prev->queue.next = tp;
 80033bc:	6010      	str	r0, [r2, #0]
  cp->queue.prev             = tp;
 80033be:	6058      	str	r0, [r3, #4]
 80033c0:	f381 8811 	msr	BASEPRI, r1
}
 80033c4:	bc10      	pop	{r4}
 80033c6:	4770      	bx	lr
    *tp->u.wttrp = NULL;
 80033c8:	6a43      	ldr	r3, [r0, #36]	; 0x24
 80033ca:	2200      	movs	r2, #0
 80033cc:	601a      	str	r2, [r3, #0]
    break;
 80033ce:	e7e4      	b.n	800339a <wakeup+0x2a>
 80033d0:	2300      	movs	r3, #0
 80033d2:	f383 8811 	msr	BASEPRI, r3
 80033d6:	4770      	bx	lr
 80033d8:	2000128c 	.word	0x2000128c
 80033dc:	00000000 	.word	0x00000000

080033e0 <chSchReadyI>:
  tp->state = CH_STATE_READY;
 80033e0:	2200      	movs	r2, #0
  } while (cp->prio >= tp->prio);
 80033e2:	6881      	ldr	r1, [r0, #8]
  cp = (thread_t *)&ch.rlist.queue;
 80033e4:	4b06      	ldr	r3, [pc, #24]	; (8003400 <chSchReadyI+0x20>)
  tp->state = CH_STATE_READY;
 80033e6:	f880 2020 	strb.w	r2, [r0, #32]
    cp = cp->queue.next;
 80033ea:	681b      	ldr	r3, [r3, #0]
  } while (cp->prio >= tp->prio);
 80033ec:	689a      	ldr	r2, [r3, #8]
 80033ee:	428a      	cmp	r2, r1
 80033f0:	d2fb      	bcs.n	80033ea <chSchReadyI+0xa>
  tp->queue.prev             = cp->queue.prev;
 80033f2:	685a      	ldr	r2, [r3, #4]
 80033f4:	e9c0 3200 	strd	r3, r2, [r0]
  tp->queue.prev->queue.next = tp;
 80033f8:	6010      	str	r0, [r2, #0]
  cp->queue.prev             = tp;
 80033fa:	6058      	str	r0, [r3, #4]
}
 80033fc:	4770      	bx	lr
 80033fe:	bf00      	nop
 8003400:	2000128c 	.word	0x2000128c
	...

08003410 <chEvtBroadcastFlagsI.constprop.0>:
 * @param[in] esp       pointer to the @p event_source_t structure
 * @param[in] flags     the flags set to be added to the listener flags mask
 *
 * @iclass
 */
void chEvtBroadcastFlagsI(event_source_t *esp, eventflags_t flags) {
 8003410:	b5f8      	push	{r3, r4, r5, r6, r7, lr}
  event_listener_t *elp;

  chDbgCheckClassI();
  chDbgCheck(esp != NULL);

  elp = esp->next;
 8003412:	4f16      	ldr	r7, [pc, #88]	; (800346c <chEvtBroadcastFlagsI.constprop.0+0x5c>)
 8003414:	f857 4f04 	ldr.w	r4, [r7, #4]!
  /*lint -save -e9087 -e740 [11.3, 1.3] Cast required by list handling.*/
  while (elp != (event_listener_t *)esp) {
 8003418:	42bc      	cmp	r4, r7
 800341a:	d020      	beq.n	800345e <chEvtBroadcastFlagsI.constprop.0+0x4e>
 800341c:	4605      	mov	r5, r0
  /* Test on the AND/OR conditions wait states.*/
  if (((tp->state == CH_STATE_WTOREVT) &&
       ((tp->epending & tp->u.ewmask) != (eventmask_t)0)) ||
      ((tp->state == CH_STATE_WTANDEVT) &&
       ((tp->epending & tp->u.ewmask) == tp->u.ewmask))) {
    tp->u.rdymsg = MSG_OK;
 800341e:	2600      	movs	r6, #0
 8003420:	e004      	b.n	800342c <chEvtBroadcastFlagsI.constprop.0+0x1c>
       ((tp->epending & tp->u.ewmask) != (eventmask_t)0)) ||
 8003422:	2a0b      	cmp	r2, #11
 8003424:	d01c      	beq.n	8003460 <chEvtBroadcastFlagsI.constprop.0+0x50>
    elp = elp->next;
 8003426:	6824      	ldr	r4, [r4, #0]
  while (elp != (event_listener_t *)esp) {
 8003428:	42bc      	cmp	r4, r7
 800342a:	d018      	beq.n	800345e <chEvtBroadcastFlagsI.constprop.0+0x4e>
    elp->flags |= flags;
 800342c:	68e3      	ldr	r3, [r4, #12]
 800342e:	432b      	orrs	r3, r5
 8003430:	60e3      	str	r3, [r4, #12]
    if ((flags == (eventflags_t)0) ||
 8003432:	b115      	cbz	r5, 800343a <chEvtBroadcastFlagsI.constprop.0+0x2a>
        ((flags & elp->wflags) != (eventflags_t)0)) {
 8003434:	6923      	ldr	r3, [r4, #16]
    if ((flags == (eventflags_t)0) ||
 8003436:	421d      	tst	r5, r3
 8003438:	d0f5      	beq.n	8003426 <chEvtBroadcastFlagsI.constprop.0+0x16>
  tp->epending |= events;
 800343a:	e9d4 0301 	ldrd	r0, r3, [r4, #4]
 800343e:	6b41      	ldr	r1, [r0, #52]	; 0x34
  if (((tp->state == CH_STATE_WTOREVT) &&
 8003440:	f890 2020 	ldrb.w	r2, [r0, #32]
  tp->epending |= events;
 8003444:	430b      	orrs	r3, r1
  if (((tp->state == CH_STATE_WTOREVT) &&
 8003446:	2a0a      	cmp	r2, #10
  tp->epending |= events;
 8003448:	6343      	str	r3, [r0, #52]	; 0x34
  if (((tp->state == CH_STATE_WTOREVT) &&
 800344a:	d1ea      	bne.n	8003422 <chEvtBroadcastFlagsI.constprop.0+0x12>
       ((tp->epending & tp->u.ewmask) != (eventmask_t)0)) ||
 800344c:	6a42      	ldr	r2, [r0, #36]	; 0x24
  if (((tp->state == CH_STATE_WTOREVT) &&
 800344e:	4213      	tst	r3, r2
 8003450:	d0e9      	beq.n	8003426 <chEvtBroadcastFlagsI.constprop.0+0x16>
    tp->u.rdymsg = MSG_OK;
 8003452:	6246      	str	r6, [r0, #36]	; 0x24
    (void) chSchReadyI(tp);
 8003454:	f7ff ffc4 	bl	80033e0 <chSchReadyI>
    elp = elp->next;
 8003458:	6824      	ldr	r4, [r4, #0]
  while (elp != (event_listener_t *)esp) {
 800345a:	42bc      	cmp	r4, r7
 800345c:	d1e6      	bne.n	800342c <chEvtBroadcastFlagsI.constprop.0+0x1c>
}
 800345e:	bdf8      	pop	{r3, r4, r5, r6, r7, pc}
       ((tp->epending & tp->u.ewmask) == tp->u.ewmask))) {
 8003460:	6a42      	ldr	r2, [r0, #36]	; 0x24
      ((tp->state == CH_STATE_WTANDEVT) &&
 8003462:	ea32 0303 	bics.w	r3, r2, r3
 8003466:	d1de      	bne.n	8003426 <chEvtBroadcastFlagsI.constprop.0+0x16>
 8003468:	e7f3      	b.n	8003452 <chEvtBroadcastFlagsI.constprop.0+0x42>
 800346a:	bf00      	nop
 800346c:	20001128 	.word	0x20001128

08003470 <_idle_thread>:
}
 8003470:	e7fe      	b.n	8003470 <_idle_thread>
 8003472:	bf00      	nop
	...

08003480 <spi_lld_serve_tx_interrupt>:
static void spi_lld_serve_tx_interrupt(SPIDriver *spip, uint32_t flags) {

  /* DMA errors handling.*/
#if defined(STM32_SPI_DMA_ERROR_HOOK)
  (void)spip;
  if ((flags & (STM32_DMA_ISR_TEIF | STM32_DMA_ISR_DMEIF)) != 0) {
 8003480:	f011 0f0c 	tst.w	r1, #12
 8003484:	d100      	bne.n	8003488 <spi_lld_serve_tx_interrupt+0x8>
  }
#else
  (void)spip;
  (void)flags;
#endif
}
 8003486:	4770      	bx	lr
  __ASM volatile ("cpsid i" : : : "memory");
 8003488:	b672      	cpsid	i

  /* Logging the event.*/
  _trace_halt(reason);

  /* Pointing to the passed message.*/
  ch.dbg.panic_msg = reason;
 800348a:	4b02      	ldr	r3, [pc, #8]	; (8003494 <spi_lld_serve_tx_interrupt+0x14>)
 800348c:	4a02      	ldr	r2, [pc, #8]	; (8003498 <spi_lld_serve_tx_interrupt+0x18>)
 800348e:	62da      	str	r2, [r3, #44]	; 0x2c
 8003490:	e7fe      	b.n	8003490 <spi_lld_serve_tx_interrupt+0x10>
 8003492:	bf00      	nop
 8003494:	2000128c 	.word	0x2000128c
 8003498:	08006290 	.word	0x08006290
 800349c:	00000000 	.word	0x00000000

080034a0 <spi_lld_serve_rx_interrupt>:
  if ((flags & (STM32_DMA_ISR_TEIF | STM32_DMA_ISR_DMEIF)) != 0) {
 80034a0:	f011 0f0c 	tst.w	r1, #12
static void spi_lld_serve_rx_interrupt(SPIDriver *spip, uint32_t flags) {
 80034a4:	b538      	push	{r3, r4, r5, lr}
  if ((flags & (STM32_DMA_ISR_TEIF | STM32_DMA_ISR_DMEIF)) != 0) {
 80034a6:	d14f      	bne.n	8003548 <spi_lld_serve_rx_interrupt+0xa8>
  if (spip->config->circular) {
 80034a8:	460d      	mov	r5, r1
 80034aa:	6841      	ldr	r1, [r0, #4]
 80034ac:	780b      	ldrb	r3, [r1, #0]
 80034ae:	4604      	mov	r4, r0
 80034b0:	2b00      	cmp	r3, #0
 80034b2:	d133      	bne.n	800351c <spi_lld_serve_rx_interrupt+0x7c>
    dmaStreamDisable(spip->dmatx);
 80034b4:	6a45      	ldr	r5, [r0, #36]	; 0x24
 80034b6:	682a      	ldr	r2, [r5, #0]
 80034b8:	6813      	ldr	r3, [r2, #0]
 80034ba:	f023 031f 	bic.w	r3, r3, #31
 80034be:	6013      	str	r3, [r2, #0]
 80034c0:	6813      	ldr	r3, [r2, #0]
 80034c2:	07d8      	lsls	r0, r3, #31
 80034c4:	d4fc      	bmi.n	80034c0 <spi_lld_serve_rx_interrupt+0x20>
 80034c6:	7a6a      	ldrb	r2, [r5, #9]
    dmaStreamDisable(spip->dmarx);
 80034c8:	6a20      	ldr	r0, [r4, #32]
    dmaStreamDisable(spip->dmatx);
 80034ca:	686d      	ldr	r5, [r5, #4]
 80034cc:	233d      	movs	r3, #61	; 0x3d
 80034ce:	4093      	lsls	r3, r2
    dmaStreamDisable(spip->dmarx);
 80034d0:	6802      	ldr	r2, [r0, #0]
    dmaStreamDisable(spip->dmatx);
 80034d2:	602b      	str	r3, [r5, #0]
    dmaStreamDisable(spip->dmarx);
 80034d4:	6813      	ldr	r3, [r2, #0]
 80034d6:	f023 031f 	bic.w	r3, r3, #31
 80034da:	6013      	str	r3, [r2, #0]
 80034dc:	6813      	ldr	r3, [r2, #0]
 80034de:	07db      	lsls	r3, r3, #31
 80034e0:	d4fc      	bmi.n	80034dc <spi_lld_serve_rx_interrupt+0x3c>
 80034e2:	7a45      	ldrb	r5, [r0, #9]
    _spi_isr_code(spip);
 80034e4:	684a      	ldr	r2, [r1, #4]
    dmaStreamDisable(spip->dmarx);
 80034e6:	6841      	ldr	r1, [r0, #4]
 80034e8:	233d      	movs	r3, #61	; 0x3d
 80034ea:	40ab      	lsls	r3, r5
 80034ec:	600b      	str	r3, [r1, #0]
    _spi_isr_code(spip);
 80034ee:	2a00      	cmp	r2, #0
 80034f0:	d02f      	beq.n	8003552 <spi_lld_serve_rx_interrupt+0xb2>
 80034f2:	2304      	movs	r3, #4
 80034f4:	7023      	strb	r3, [r4, #0]
 80034f6:	4620      	mov	r0, r4
 80034f8:	4790      	blx	r2
 80034fa:	7823      	ldrb	r3, [r4, #0]
 80034fc:	2b04      	cmp	r3, #4
 80034fe:	d028      	beq.n	8003552 <spi_lld_serve_rx_interrupt+0xb2>
  __ASM volatile ("MSR basepri, %0" : : "r" (basePri) : "memory");
 8003500:	2320      	movs	r3, #32
 8003502:	f383 8811 	msr	BASEPRI, r3
 *
 * @iclass
 */
void chThdResumeI(thread_reference_t *trp, msg_t msg) {

  if (*trp != NULL) {
 8003506:	68a0      	ldr	r0, [r4, #8]
 8003508:	b120      	cbz	r0, 8003514 <spi_lld_serve_rx_interrupt+0x74>
    thread_t *tp = *trp;

    chDbgAssert(tp->state == CH_STATE_SUSPENDED, "not CH_STATE_SUSPENDED");

    *trp = NULL;
 800350a:	2300      	movs	r3, #0
 800350c:	60a3      	str	r3, [r4, #8]
    tp->u.rdymsg = msg;
 800350e:	6243      	str	r3, [r0, #36]	; 0x24
    (void) chSchReadyI(tp);
 8003510:	f7ff ff66 	bl	80033e0 <chSchReadyI>
 8003514:	2300      	movs	r3, #0
 8003516:	f383 8811 	msr	BASEPRI, r3
}
 800351a:	bd38      	pop	{r3, r4, r5, pc}
    if ((flags & STM32_DMA_ISR_HTIF) != 0U) {
 800351c:	06eb      	lsls	r3, r5, #27
 800351e:	d503      	bpl.n	8003528 <spi_lld_serve_rx_interrupt+0x88>
      _spi_isr_half_code(spip);
 8003520:	684b      	ldr	r3, [r1, #4]
 8003522:	2b00      	cmp	r3, #0
 8003524:	d0f9      	beq.n	800351a <spi_lld_serve_rx_interrupt+0x7a>
 8003526:	4798      	blx	r3
    if ((flags & STM32_DMA_ISR_TCIF) != 0U) {
 8003528:	06ad      	lsls	r5, r5, #26
 800352a:	d5f6      	bpl.n	800351a <spi_lld_serve_rx_interrupt+0x7a>
      _spi_isr_full_code(spip);
 800352c:	6863      	ldr	r3, [r4, #4]
 800352e:	685b      	ldr	r3, [r3, #4]
 8003530:	2b00      	cmp	r3, #0
 8003532:	d0f2      	beq.n	800351a <spi_lld_serve_rx_interrupt+0x7a>
 8003534:	2204      	movs	r2, #4
 8003536:	7022      	strb	r2, [r4, #0]
 8003538:	4620      	mov	r0, r4
 800353a:	4798      	blx	r3
 800353c:	7823      	ldrb	r3, [r4, #0]
 800353e:	2b04      	cmp	r3, #4
 8003540:	d1eb      	bne.n	800351a <spi_lld_serve_rx_interrupt+0x7a>
 8003542:	2303      	movs	r3, #3
 8003544:	7023      	strb	r3, [r4, #0]
}
 8003546:	bd38      	pop	{r3, r4, r5, pc}
  __ASM volatile ("cpsid i" : : : "memory");
 8003548:	b672      	cpsid	i
 800354a:	4b06      	ldr	r3, [pc, #24]	; (8003564 <spi_lld_serve_rx_interrupt+0xc4>)
 800354c:	4a06      	ldr	r2, [pc, #24]	; (8003568 <spi_lld_serve_rx_interrupt+0xc8>)
 800354e:	62da      	str	r2, [r3, #44]	; 0x2c
 8003550:	e7fe      	b.n	8003550 <spi_lld_serve_rx_interrupt+0xb0>
    _spi_isr_code(spip);
 8003552:	2302      	movs	r3, #2
 8003554:	7023      	strb	r3, [r4, #0]
  __ASM volatile ("MSR basepri, %0" : : "r" (basePri) : "memory");
 8003556:	2320      	movs	r3, #32
 8003558:	f383 8811 	msr	BASEPRI, r3
  if (*trp != NULL) {
 800355c:	68a0      	ldr	r0, [r4, #8]
 800355e:	2800      	cmp	r0, #0
 8003560:	d1d3      	bne.n	800350a <spi_lld_serve_rx_interrupt+0x6a>
 8003562:	e7d7      	b.n	8003514 <spi_lld_serve_rx_interrupt+0x74>
 8003564:	2000128c 	.word	0x2000128c
 8003568:	08006290 	.word	0x08006290
 800356c:	00000000 	.word	0x00000000

08003570 <_ctl>:
#else
    break;
#endif
  }
  return MSG_OK;
}
 8003570:	2000      	movs	r0, #0
 8003572:	4770      	bx	lr
	...

08003580 <_ZN5L6470C2Emmmm.constprop.0>:
    L6470(ioline_t flag_irq, ioline_t  busy_irq, ioline_t standby_reset, ioline_t ssel) : StepperMotor(), flag_irq(flag_irq), busy_irq(busy_irq), standby_reset(standby_reset), ssel(ssel)
 8003580:	b5f8      	push	{r3, r4, r5, r6, r7, lr}
        L6470_Id = number_of_devices++;
 8003582:	4a17      	ldr	r2, [pc, #92]	; (80035e0 <_ZN5L6470C2Emmmm.constprop.0+0x60>)
    L6470(ioline_t flag_irq, ioline_t  busy_irq, ioline_t standby_reset, ioline_t ssel) : StepperMotor(), flag_irq(flag_irq), busy_irq(busy_irq), standby_reset(standby_reset), ssel(ssel)
 8003584:	4f17      	ldr	r7, [pc, #92]	; (80035e4 <_ZN5L6470C2Emmmm.constprop.0+0x64>)
 8003586:	4d18      	ldr	r5, [pc, #96]	; (80035e8 <_ZN5L6470C2Emmmm.constprop.0+0x68>)
        L6470_Id = number_of_devices++;
 8003588:	7813      	ldrb	r3, [r2, #0]
    L6470(ioline_t flag_irq, ioline_t  busy_irq, ioline_t standby_reset, ioline_t ssel) : StepperMotor(), flag_irq(flag_irq), busy_irq(busy_irq), standby_reset(standby_reset), ssel(ssel)
 800358a:	4e18      	ldr	r6, [pc, #96]	; (80035ec <_ZN5L6470C2Emmmm.constprop.0+0x6c>)
 800358c:	4918      	ldr	r1, [pc, #96]	; (80035f0 <_ZN5L6470C2Emmmm.constprop.0+0x70>)
 800358e:	6086      	str	r6, [r0, #8]
 8003590:	4604      	mov	r4, r0
 8003592:	e9c0 7500 	strd	r7, r5, [r0]
 8003596:	f2a5 75fd 	subw	r5, r5, #2045	; 0x7fd
 800359a:	60e1      	str	r1, [r4, #12]
 800359c:	6125      	str	r5, [r4, #16]
        L6470_Register = &_L6470_Register[0];
 800359e:	4815      	ldr	r0, [pc, #84]	; (80035f4 <_ZN5L6470C2Emmmm.constprop.0+0x74>)
        L6470_ApplicationCommand = &_L6470_ApplicationCommand[0];
 80035a0:	4915      	ldr	r1, [pc, #84]	; (80035f8 <_ZN5L6470C2Emmmm.constprop.0+0x78>)
        L6470_Direction = &_L6470_Direction[0];
 80035a2:	4d16      	ldr	r5, [pc, #88]	; (80035fc <_ZN5L6470C2Emmmm.constprop.0+0x7c>)
        L6470_Register = &_L6470_Register[0];
 80035a4:	61a0      	str	r0, [r4, #24]
        L6470_ApplicationCommand = &_L6470_ApplicationCommand[0];
 80035a6:	61e1      	str	r1, [r4, #28]
        L6470_Direction = &_L6470_Direction[0];
 80035a8:	6225      	str	r5, [r4, #32]
        pL6470_StatusRegister = &L6470_StatusRegister;
 80035aa:	f104 0128 	add.w	r1, r4, #40	; 0x28
        prepared_action = PREPARED_NO_ACTION;
 80035ae:	2500      	movs	r5, #0
        L6470_Id = number_of_devices++;
 80035b0:	7563      	strb	r3, [r4, #21]
        L6470_ACT = &_L6470_ACT[0];
 80035b2:	4813      	ldr	r0, [pc, #76]	; (8003600 <_ZN5L6470C2Emmmm.constprop.0+0x80>)
        L6470_DaisyChain_HalfPrepared = ZERO_F;
 80035b4:	4e13      	ldr	r6, [pc, #76]	; (8003604 <_ZN5L6470C2Emmmm.constprop.0+0x84>)
        L6470_ACT = &_L6470_ACT[0];
 80035b6:	6260      	str	r0, [r4, #36]	; 0x24
        L6470_Id = number_of_devices++;
 80035b8:	3301      	adds	r3, #1
        pL6470_StatusRegister = &L6470_StatusRegister;
 80035ba:	62e1      	str	r1, [r4, #44]	; 0x2c
        L6470_Id = number_of_devices++;
 80035bc:	7013      	strb	r3, [r2, #0]
        prepared_action = PREPARED_NO_ACTION;
 80035be:	f884 5060 	strb.w	r5, [r4, #96]	; 0x60
        memset(L6470_AppCmdPkg, 0, L6470DAISYCHAINSIZE * sizeof(sL6470_AppCmdPkg_t));
 80035c2:	4629      	mov	r1, r5
 80035c4:	2220      	movs	r2, #32
 80035c6:	4810      	ldr	r0, [pc, #64]	; (8003608 <_ZN5L6470C2Emmmm.constprop.0+0x88>)
        L6470_DaisyChain_HalfPrepared = ZERO_F;
 80035c8:	7035      	strb	r5, [r6, #0]
        memset(L6470_AppCmdPkg, 0, L6470DAISYCHAINSIZE * sizeof(sL6470_AppCmdPkg_t));
 80035ca:	f7fe fb03 	bl	8001bd4 <memset>
        memset(L6470_DaisyChainSpiRxStruct, 0, L6470MAXSPICMDBYTESIZE * L6470DAISYCHAINSIZE * sizeof(uint8_t));
 80035ce:	4b0f      	ldr	r3, [pc, #60]	; (800360c <_ZN5L6470C2Emmmm.constprop.0+0x8c>)
        memset(L6470_DaisyChainSpiTxStruct, 0, L6470MAXSPICMDBYTESIZE * L6470DAISYCHAINSIZE * sizeof(uint8_t));
 80035d0:	4a0f      	ldr	r2, [pc, #60]	; (8003610 <_ZN5L6470C2Emmmm.constprop.0+0x90>)
        memset(L6470_DaisyChainSpiRxStruct, 0, L6470MAXSPICMDBYTESIZE * L6470DAISYCHAINSIZE * sizeof(uint8_t));
 80035d2:	e9c3 5500 	strd	r5, r5, [r3]
        memset(L6470_DaisyChainSpiTxStruct, 0, L6470MAXSPICMDBYTESIZE * L6470DAISYCHAINSIZE * sizeof(uint8_t));
 80035d6:	6015      	str	r5, [r2, #0]
 80035d8:	6055      	str	r5, [r2, #4]
    }
 80035da:	4620      	mov	r0, r4
 80035dc:	bdf8      	pop	{r3, r4, r5, r6, r7, pc}
 80035de:	bf00      	nop
 80035e0:	200011f4 	.word	0x200011f4
 80035e4:	080065e4 	.word	0x080065e4
 80035e8:	40020801 	.word	0x40020801
 80035ec:	40020800 	.word	0x40020800
 80035f0:	40020405 	.word	0x40020405
 80035f4:	080062bc 	.word	0x080062bc
 80035f8:	080064c4 	.word	0x080064c4
 80035fc:	080064b0 	.word	0x080064b0
 8003600:	080062b0 	.word	0x080062b0
 8003604:	20001208 	.word	0x20001208
 8003608:	200011d4 	.word	0x200011d4
 800360c:	200011f8 	.word	0x200011f8
 8003610:	20001200 	.word	0x20001200
	...

08003620 <chSchGoSleepS>:
  thread_t *otp = currp;
 8003620:	4b08      	ldr	r3, [pc, #32]	; (8003644 <chSchGoSleepS+0x24>)
 8003622:	6999      	ldr	r1, [r3, #24]
  thread_t *tp = tqp->next;
 8003624:	681a      	ldr	r2, [r3, #0]
void chSchGoSleepS(tstate_t newstate) {
 8003626:	b410      	push	{r4}
  otp->state = newstate;
 8003628:	f881 0020 	strb.w	r0, [r1, #32]
  tqp->next             = tp->queue.next;
 800362c:	6810      	ldr	r0, [r2, #0]
 800362e:	6018      	str	r0, [r3, #0]
  currp->state = CH_STATE_CURRENT;
 8003630:	2401      	movs	r4, #1
  tqp->next->queue.prev = (thread_t *)tqp;
 8003632:	6043      	str	r3, [r0, #4]
 8003634:	f882 4020 	strb.w	r4, [r2, #32]
}
 8003638:	bc10      	pop	{r4}
  currp = queue_fifo_remove(&ch.rlist.queue);
 800363a:	619a      	str	r2, [r3, #24]
  chSysSwitch(currp, otp);
 800363c:	4610      	mov	r0, r2
 800363e:	f7fc be3f 	b.w	80002c0 <_port_switch>
 8003642:	bf00      	nop
 8003644:	2000128c 	.word	0x2000128c
	...

08003650 <chSchGoSleepTimeoutS>:
msg_t chSchGoSleepTimeoutS(tstate_t newstate, sysinterval_t timeout) {
 8003650:	b5f0      	push	{r4, r5, r6, r7, lr}
  if (TIME_INFINITE != timeout) {
 8003652:	1c4b      	adds	r3, r1, #1
msg_t chSchGoSleepTimeoutS(tstate_t newstate, sysinterval_t timeout) {
 8003654:	b087      	sub	sp, #28
  if (TIME_INFINITE != timeout) {
 8003656:	d049      	beq.n	80036ec <chSchGoSleepTimeoutS+0x9c>
    chVTDoSetI(&vt, timeout, wakeup, currp);
 8003658:	4c3f      	ldr	r4, [pc, #252]	; (8003758 <chSchGoSleepTimeoutS+0x108>)

  chDbgCheckClassI();
  chDbgCheck((vtp != NULL) && (vtfunc != NULL) && (delay != TIME_IMMEDIATE));

  vtp->par = par;
  vtp->func = vtfunc;
 800365a:	4f40      	ldr	r7, [pc, #256]	; (800375c <chSchGoSleepTimeoutS+0x10c>)
  vtp->par = par;
 800365c:	69a3      	ldr	r3, [r4, #24]
 800365e:	9305      	str	r3, [sp, #20]
    if (delay < (sysinterval_t)CH_CFG_ST_TIMEDELTA) {
      delay = (sysinterval_t)CH_CFG_ST_TIMEDELTA;
    }

    /* Special case where the timers list is empty.*/
    if (&ch.vtlist == (virtual_timers_list_t *)ch.vtlist.next) {
 8003660:	4626      	mov	r6, r4
 8003662:	2902      	cmp	r1, #2
 8003664:	f856 3f1c 	ldr.w	r3, [r6, #28]!
 8003668:	4605      	mov	r5, r0
 *
 * @notapi
 */
static inline systime_t st_lld_get_counter(void) {

  return (systime_t)STM32_ST_TIM->CNT;
 800366a:	f04f 4080 	mov.w	r0, #1073741824	; 0x40000000
 800366e:	bf38      	it	cc
 8003670:	2102      	movcc	r1, #2
 8003672:	42b3      	cmp	r3, r6
 8003674:	6a42      	ldr	r2, [r0, #36]	; 0x24
  vtp->func = vtfunc;
 8003676:	9704      	str	r7, [sp, #16]
    if (&ch.vtlist == (virtual_timers_list_t *)ch.vtlist.next) {
 8003678:	d05b      	beq.n	8003732 <chSchGoSleepTimeoutS+0xe2>
    /* Pointer to the first element in the delta list, which is non-empty.*/
    p = ch.vtlist.next;

    /* Delay as delta from 'lasttime'. Note, it can overflow and the value
       becomes lower than 'now'.*/
    delta = chTimeDiffX(ch.vtlist.lasttime, now) + delay;
 800367a:	6aa7      	ldr	r7, [r4, #40]	; 0x28
 */
static inline sysinterval_t chTimeDiffX(systime_t start, systime_t end) {

  /*lint -save -e9033 [10.8] This cast is required by the operation, it is
    known that the destination type can be wider.*/
  return (sysinterval_t)((systime_t)(end - start));
 800367c:	1bd2      	subs	r2, r2, r7
 800367e:	1889      	adds	r1, r1, r2

    if (delta < chTimeDiffX(ch.vtlist.lasttime, now)) {
 8003680:	d32e      	bcc.n	80036e0 <chSchGoSleepTimeoutS+0x90>
      /* Scenario where a very large delay excedeed the numeric range, it
         requires a special handling. We need to skip the first element and
         adjust the delta to wrap back in the previous numeric range.*/
      delta -= p->delta;
 8003682:	6898      	ldr	r0, [r3, #8]
      p = p->next;
 8003684:	681b      	ldr	r3, [r3, #0]
 8003686:	689a      	ldr	r2, [r3, #8]
      delta -= p->delta;
 8003688:	1a09      	subs	r1, r1, r0
  p = ch.vtlist.next;
#endif /* CH_CFG_ST_TIMEDELTA == 0 */

  /* The delta list is scanned in order to find the correct position for
     this timer. */
  while (p->delta < delta) {
 800368a:	4291      	cmp	r1, r2
 800368c:	d904      	bls.n	8003698 <chSchGoSleepTimeoutS+0x48>
    /* Debug assert if the timer is already in the list.*/
    chDbgAssert(p != vtp, "timer already armed");

    delta -= p->delta;
    p = p->next;
 800368e:	681b      	ldr	r3, [r3, #0]
    delta -= p->delta;
 8003690:	1a89      	subs	r1, r1, r2
  while (p->delta < delta) {
 8003692:	689a      	ldr	r2, [r3, #8]
 8003694:	428a      	cmp	r2, r1
 8003696:	d3fa      	bcc.n	800368e <chSchGoSleepTimeoutS+0x3e>
  }

  /* The timer is inserted in the delta list.*/
  vtp->next = p;
  vtp->prev = vtp->next->prev;
 8003698:	685a      	ldr	r2, [r3, #4]
 800369a:	9202      	str	r2, [sp, #8]
  vtp->prev->next = vtp;
 800369c:	af01      	add	r7, sp, #4
  vtp->next = p;
 800369e:	9301      	str	r3, [sp, #4]
  vtp->prev->next = vtp;
 80036a0:	6017      	str	r7, [r2, #0]
  p->prev = vtp;
 80036a2:	605f      	str	r7, [r3, #4]
  vtp->delta = delta;
 80036a4:	9103      	str	r1, [sp, #12]

  /* Calculate new delta for the following entry.*/
  p->delta -= delta;
 80036a6:	689a      	ldr	r2, [r3, #8]
 80036a8:	1a51      	subs	r1, r2, r1

  /* Special case when the timer is in last position in the list, the
     value in the header must be restored.*/
  ch.vtlist.delta = (sysinterval_t)-1;
 80036aa:	f04f 32ff 	mov.w	r2, #4294967295	; 0xffffffff
  p->delta -= delta;
 80036ae:	6099      	str	r1, [r3, #8]
  ch.vtlist.delta = (sysinterval_t)-1;
 80036b0:	6262      	str	r2, [r4, #36]	; 0x24
    chSchGoSleepS(newstate);
 80036b2:	4628      	mov	r0, r5
 80036b4:	f7ff ffb4 	bl	8003620 <chSchGoSleepS>
    if (chVTIsArmedI(&vt)) {
 80036b8:	9b04      	ldr	r3, [sp, #16]
 80036ba:	b16b      	cbz	r3, 80036d8 <chSchGoSleepTimeoutS+0x88>
#else /* CH_CFG_ST_TIMEDELTA > 0 */
  sysinterval_t nowdelta, delta;

  /* If the timer is not the first of the list then it is simply unlinked
     else the operation is more complex.*/
  if (ch.vtlist.next != vtp) {
 80036bc:	69e3      	ldr	r3, [r4, #28]
 80036be:	42bb      	cmp	r3, r7
 80036c0:	d01b      	beq.n	80036fa <chSchGoSleepTimeoutS+0xaa>
    /* Removing the element from the delta list.*/
    vtp->prev->next = vtp->next;
 80036c2:	e9dd 3201 	ldrd	r3, r2, [sp, #4]
 80036c6:	6013      	str	r3, [r2, #0]
    vtp->next->prev = vtp->prev;
 80036c8:	9b01      	ldr	r3, [sp, #4]
    vtp->func = NULL;

    /* Adding delta to the next element, if it is not the last one.*/
    if (&ch.vtlist != (virtual_timers_list_t *)vtp->next)
 80036ca:	42b3      	cmp	r3, r6
    vtp->next->prev = vtp->prev;
 80036cc:	605a      	str	r2, [r3, #4]
    if (&ch.vtlist != (virtual_timers_list_t *)vtp->next)
 80036ce:	d003      	beq.n	80036d8 <chSchGoSleepTimeoutS+0x88>
      vtp->next->delta += vtp->delta;
 80036d0:	689a      	ldr	r2, [r3, #8]
 80036d2:	9903      	ldr	r1, [sp, #12]
 80036d4:	440a      	add	r2, r1
 80036d6:	609a      	str	r2, [r3, #8]
  return currp->u.rdymsg;
 80036d8:	69a3      	ldr	r3, [r4, #24]
}
 80036da:	6a58      	ldr	r0, [r3, #36]	; 0x24
 80036dc:	b007      	add	sp, #28
 80036de:	bdf0      	pop	{r4, r5, r6, r7, pc}
    else if (delta < p->delta) {
 80036e0:	689a      	ldr	r2, [r3, #8]
 80036e2:	4291      	cmp	r1, r2
 80036e4:	d2d1      	bcs.n	800368a <chSchGoSleepTimeoutS+0x3a>
  return systime + (systime_t)interval;
 80036e6:	440f      	add	r7, r1
 *
 * @notapi
 */
static inline void st_lld_set_alarm(systime_t abstime) {

  STM32_ST_TIM->CCR[0] = (uint32_t)abstime;
 80036e8:	6347      	str	r7, [r0, #52]	; 0x34
 80036ea:	e7ce      	b.n	800368a <chSchGoSleepTimeoutS+0x3a>
    chSchGoSleepS(newstate);
 80036ec:	4c1a      	ldr	r4, [pc, #104]	; (8003758 <chSchGoSleepTimeoutS+0x108>)
 80036ee:	f7ff ff97 	bl	8003620 <chSchGoSleepS>
  return currp->u.rdymsg;
 80036f2:	69a3      	ldr	r3, [r4, #24]
}
 80036f4:	6a58      	ldr	r0, [r3, #36]	; 0x24
 80036f6:	b007      	add	sp, #28
 80036f8:	bdf0      	pop	{r4, r5, r6, r7, pc}

    return;
  }

  /* Removing the first timer from the list.*/
  ch.vtlist.next = vtp->next;
 80036fa:	9b01      	ldr	r3, [sp, #4]
 80036fc:	61e3      	str	r3, [r4, #28]
  ch.vtlist.next->prev = (virtual_timer_t *)&ch.vtlist;
  vtp->func = NULL;
 80036fe:	2200      	movs	r2, #0

  /* If the list become empty then the alarm timer is stopped and done.*/
  if (&ch.vtlist == (virtual_timers_list_t *)ch.vtlist.next) {
 8003700:	42b3      	cmp	r3, r6
  ch.vtlist.next->prev = (virtual_timer_t *)&ch.vtlist;
 8003702:	605e      	str	r6, [r3, #4]
  vtp->func = NULL;
 8003704:	9204      	str	r2, [sp, #16]
  if (&ch.vtlist == (virtual_timers_list_t *)ch.vtlist.next) {
 8003706:	d022      	beq.n	800374e <chSchGoSleepTimeoutS+0xfe>

    return;
  }

  /* The delta of the removed timer is added to the new first timer.*/
  ch.vtlist.next->delta += vtp->delta;
 8003708:	689a      	ldr	r2, [r3, #8]
 800370a:	9803      	ldr	r0, [sp, #12]
/*  if (ch.vtlist.next->delta == 0) {
    return;
  }*/

  /* Distance in ticks between the last alarm event and current time.*/
  nowdelta = chTimeDiffX(ch.vtlist.lasttime, chVTGetSystemTimeX());
 800370c:	6aa1      	ldr	r1, [r4, #40]	; 0x28
  ch.vtlist.next->delta += vtp->delta;
 800370e:	4402      	add	r2, r0
  return (systime_t)STM32_ST_TIM->CNT;
 8003710:	f04f 4080 	mov.w	r0, #1073741824	; 0x40000000
 8003714:	609a      	str	r2, [r3, #8]
 8003716:	6a43      	ldr	r3, [r0, #36]	; 0x24
  return (sysinterval_t)((systime_t)(end - start));
 8003718:	1a58      	subs	r0, r3, r1

  /* If the current time surpassed the time of the next element in list
     then the event interrupt is already pending, just return.*/
  if (nowdelta >= ch.vtlist.next->delta) {
 800371a:	4282      	cmp	r2, r0
 800371c:	d9dc      	bls.n	80036d8 <chSchGoSleepTimeoutS+0x88>
    return;
  }

  /* Distance from the next scheduled event and now.*/
  delta = ch.vtlist.next->delta - nowdelta;
 800371e:	1acb      	subs	r3, r1, r3
 8003720:	4413      	add	r3, r2

  /* Making sure to not schedule an event closer than CH_CFG_ST_TIMEDELTA
     ticks from now.*/
  if (delta < (sysinterval_t)CH_CFG_ST_TIMEDELTA) {
 8003722:	2b01      	cmp	r3, #1
    delta = nowdelta + (sysinterval_t)CH_CFG_ST_TIMEDELTA;
 8003724:	bf98      	it	ls
 8003726:	1c82      	addls	r2, r0, #2
  STM32_ST_TIM->CCR[0] = (uint32_t)abstime;
 8003728:	f04f 4380 	mov.w	r3, #1073741824	; 0x40000000
  return systime + (systime_t)interval;
 800372c:	440a      	add	r2, r1
 800372e:	635a      	str	r2, [r3, #52]	; 0x34
 8003730:	e7d2      	b.n	80036d8 <chSchGoSleepTimeoutS+0x88>
 8003732:	188b      	adds	r3, r1, r2
      ch.vtlist.next = vtp;
 8003734:	af01      	add	r7, sp, #4
      ch.vtlist.lasttime = now;
 8003736:	62a2      	str	r2, [r4, #40]	; 0x28
      vtp->prev = (virtual_timer_t *)&ch.vtlist;
 8003738:	e9cd 6601 	strd	r6, r6, [sp, #4]
      ch.vtlist.prev = vtp;
 800373c:	e9c4 7707 	strd	r7, r7, [r4, #28]
      vtp->delta = delay;
 8003740:	9103      	str	r1, [sp, #12]
  STM32_ST_TIM->SR     = 0;
 8003742:	2200      	movs	r2, #0
  STM32_ST_TIM->CCR[0] = (uint32_t)abstime;
 8003744:	6343      	str	r3, [r0, #52]	; 0x34
  STM32_ST_TIM->DIER   = STM32_TIM_DIER_CC1IE;
 8003746:	2302      	movs	r3, #2
  STM32_ST_TIM->SR     = 0;
 8003748:	6102      	str	r2, [r0, #16]
  STM32_ST_TIM->DIER   = STM32_TIM_DIER_CC1IE;
 800374a:	60c3      	str	r3, [r0, #12]
 800374c:	e7b1      	b.n	80036b2 <chSchGoSleepTimeoutS+0x62>
  STM32_ST_TIM->DIER = 0U;
 800374e:	f04f 4380 	mov.w	r3, #1073741824	; 0x40000000
 8003752:	60da      	str	r2, [r3, #12]
    return;
 8003754:	e7c0      	b.n	80036d8 <chSchGoSleepTimeoutS+0x88>
 8003756:	bf00      	nop
 8003758:	2000128c 	.word	0x2000128c
 800375c:	08003371 	.word	0x08003371

08003760 <chThdEnqueueTimeoutS>:
 *
 * @sclass
 */
msg_t chThdEnqueueTimeoutS(threads_queue_t *tqp, sysinterval_t timeout) {

  if (TIME_IMMEDIATE == timeout) {
 8003760:	b161      	cbz	r1, 800377c <chThdEnqueueTimeoutS+0x1c>
    return MSG_TIMEOUT;
  }

  queue_insert(currp, tqp);
 8003762:	4a08      	ldr	r2, [pc, #32]	; (8003784 <chThdEnqueueTimeoutS+0x24>)
msg_t chThdEnqueueTimeoutS(threads_queue_t *tqp, sysinterval_t timeout) {
 8003764:	b410      	push	{r4}
  queue_insert(currp, tqp);
 8003766:	6992      	ldr	r2, [r2, #24]
  tp->queue.prev             = tqp->prev;
 8003768:	6844      	ldr	r4, [r0, #4]
 800376a:	4603      	mov	r3, r0
 800376c:	e9c2 3400 	strd	r3, r4, [r2]

  return chSchGoSleepTimeoutS(CH_STATE_QUEUED, timeout);
 8003770:	2004      	movs	r0, #4
  tp->queue.prev->queue.next = tp;
 8003772:	6022      	str	r2, [r4, #0]
}
 8003774:	bc10      	pop	{r4}
  tqp->prev                  = tp;
 8003776:	605a      	str	r2, [r3, #4]
  return chSchGoSleepTimeoutS(CH_STATE_QUEUED, timeout);
 8003778:	f7ff bf6a 	b.w	8003650 <chSchGoSleepTimeoutS>
}
 800377c:	f04f 30ff 	mov.w	r0, #4294967295	; 0xffffffff
 8003780:	4770      	bx	lr
 8003782:	bf00      	nop
 8003784:	2000128c 	.word	0x2000128c
	...

08003790 <oqPutTimeout>:
 * @retval MSG_TIMEOUT  if the specified time expired.
 * @retval MSG_RESET    if the queue has been reset.
 *
 * @api
 */
msg_t oqPutTimeout(output_queue_t *oqp, uint8_t b, sysinterval_t timeout) {
 8003790:	b5f8      	push	{r3, r4, r5, r6, r7, lr}
 8003792:	4604      	mov	r4, r0
 8003794:	460f      	mov	r7, r1
 8003796:	4616      	mov	r6, r2
 8003798:	2320      	movs	r3, #32
 800379a:	f383 8811 	msr	BASEPRI, r3
 */
static inline void chSysLock(void) {

  port_lock();
  _stats_start_measure_crit_thd();
  _dbg_check_lock();
 800379e:	e003      	b.n	80037a8 <oqPutTimeout+0x18>
 * @sclass
 */
static inline msg_t osalThreadEnqueueTimeoutS(threads_queue_t *tqp,
                                              sysinterval_t timeout) {

  return chThdEnqueueTimeoutS(tqp, timeout);
 80037a0:	f7ff ffde 	bl	8003760 <chThdEnqueueTimeoutS>
  osalSysLock();

  /* Waiting until there is a slot available or a timeout occurs.*/
  while (oqIsFullI(oqp)) {
    msg_t msg = osalThreadEnqueueTimeoutS(&oqp->q_waiting, timeout);
    if (msg < MSG_OK) {
 80037a4:	2800      	cmp	r0, #0
 80037a6:	db18      	blt.n	80037da <oqPutTimeout+0x4a>
  while (oqIsFullI(oqp)) {
 80037a8:	68a5      	ldr	r5, [r4, #8]
 80037aa:	4631      	mov	r1, r6
 80037ac:	4620      	mov	r0, r4
 80037ae:	2d00      	cmp	r5, #0
 80037b0:	d0f6      	beq.n	80037a0 <oqPutTimeout+0x10>
    }
  }

  /* Putting the character into the queue.*/
  oqp->q_counter--;
  *oqp->q_wrptr++ = b;
 80037b2:	6962      	ldr	r2, [r4, #20]
  oqp->q_counter--;
 80037b4:	68a3      	ldr	r3, [r4, #8]
  *oqp->q_wrptr++ = b;
 80037b6:	1c51      	adds	r1, r2, #1
  oqp->q_counter--;
 80037b8:	3b01      	subs	r3, #1
  *oqp->q_wrptr++ = b;
 80037ba:	6161      	str	r1, [r4, #20]
  oqp->q_counter--;
 80037bc:	60a3      	str	r3, [r4, #8]
  *oqp->q_wrptr++ = b;
 80037be:	7017      	strb	r7, [r2, #0]
  if (oqp->q_wrptr >= oqp->q_top) {
 80037c0:	e9d4 3204 	ldrd	r3, r2, [r4, #16]
 80037c4:	429a      	cmp	r2, r3
    oqp->q_wrptr = oqp->q_buffer;
 80037c6:	bf24      	itt	cs
 80037c8:	68e3      	ldrcs	r3, [r4, #12]
 80037ca:	6163      	strcs	r3, [r4, #20]
  }

  /* Inform the low side that the queue has at least one character available.*/
  if (oqp->q_notify != NULL) {
 80037cc:	69e3      	ldr	r3, [r4, #28]
 80037ce:	b103      	cbz	r3, 80037d2 <oqPutTimeout+0x42>
    oqp->q_notify(oqp);
 80037d0:	4798      	blx	r3
 80037d2:	2000      	movs	r0, #0
 80037d4:	f380 8811 	msr	BASEPRI, r0
  }

  osalSysUnlock();

  return MSG_OK;
}
 80037d8:	bdf8      	pop	{r3, r4, r5, r6, r7, pc}
 80037da:	f385 8811 	msr	BASEPRI, r5
 80037de:	bdf8      	pop	{r3, r4, r5, r6, r7, pc}

080037e0 <_putt>:
  return oqPutTimeout(&((SerialDriver *)ip)->oqueue, b, timeout);
 80037e0:	3030      	adds	r0, #48	; 0x30
 80037e2:	f7ff bfd5 	b.w	8003790 <oqPutTimeout>
 80037e6:	bf00      	nop
	...

080037f0 <_put>:
  return oqPutTimeout(&((SerialDriver *)ip)->oqueue, b, TIME_INFINITE);
 80037f0:	3030      	adds	r0, #48	; 0x30
 80037f2:	f04f 32ff 	mov.w	r2, #4294967295	; 0xffffffff
 80037f6:	f7ff bfcb 	b.w	8003790 <oqPutTimeout>
 80037fa:	bf00      	nop
 80037fc:	0000      	movs	r0, r0
	...

08003800 <iqGetTimeout>:
msg_t iqGetTimeout(input_queue_t *iqp, sysinterval_t timeout) {
 8003800:	b570      	push	{r4, r5, r6, lr}
 8003802:	2320      	movs	r3, #32
 8003804:	4605      	mov	r5, r0
 8003806:	460e      	mov	r6, r1
 8003808:	f383 8811 	msr	BASEPRI, r3
 800380c:	e003      	b.n	8003816 <iqGetTimeout+0x16>
 800380e:	f7ff ffa7 	bl	8003760 <chThdEnqueueTimeoutS>
    if (msg < MSG_OK) {
 8003812:	2800      	cmp	r0, #0
 8003814:	db1a      	blt.n	800384c <iqGetTimeout+0x4c>
  while (iqIsEmptyI(iqp)) {
 8003816:	68ac      	ldr	r4, [r5, #8]
 8003818:	4631      	mov	r1, r6
 800381a:	4628      	mov	r0, r5
 800381c:	2c00      	cmp	r4, #0
 800381e:	d0f6      	beq.n	800380e <iqGetTimeout+0xe>
  b = *iqp->q_rdptr++;
 8003820:	69a9      	ldr	r1, [r5, #24]
  iqp->q_counter--;
 8003822:	68ab      	ldr	r3, [r5, #8]
  if (iqp->q_rdptr >= iqp->q_top) {
 8003824:	6928      	ldr	r0, [r5, #16]
  b = *iqp->q_rdptr++;
 8003826:	1c4a      	adds	r2, r1, #1
  iqp->q_counter--;
 8003828:	3b01      	subs	r3, #1
  if (iqp->q_rdptr >= iqp->q_top) {
 800382a:	4282      	cmp	r2, r0
  iqp->q_counter--;
 800382c:	60ab      	str	r3, [r5, #8]
  b = *iqp->q_rdptr++;
 800382e:	61aa      	str	r2, [r5, #24]
    iqp->q_rdptr = iqp->q_buffer;
 8003830:	bf28      	it	cs
 8003832:	68eb      	ldrcs	r3, [r5, #12]
  b = *iqp->q_rdptr++;
 8003834:	780c      	ldrb	r4, [r1, #0]
    iqp->q_rdptr = iqp->q_buffer;
 8003836:	bf28      	it	cs
 8003838:	61ab      	strcs	r3, [r5, #24]
  if (iqp->q_notify != NULL) {
 800383a:	69eb      	ldr	r3, [r5, #28]
 800383c:	b10b      	cbz	r3, 8003842 <iqGetTimeout+0x42>
    iqp->q_notify(iqp);
 800383e:	4628      	mov	r0, r5
 8003840:	4798      	blx	r3
 8003842:	2300      	movs	r3, #0
 8003844:	f383 8811 	msr	BASEPRI, r3
  return (msg_t)b;
 8003848:	4620      	mov	r0, r4
}
 800384a:	bd70      	pop	{r4, r5, r6, pc}
 800384c:	f384 8811 	msr	BASEPRI, r4
 8003850:	bd70      	pop	{r4, r5, r6, pc}
 8003852:	bf00      	nop
	...

08003860 <_gett>:
  return iqGetTimeout(&((SerialDriver *)ip)->iqueue, timeout);
 8003860:	300c      	adds	r0, #12
 8003862:	f7ff bfcd 	b.w	8003800 <iqGetTimeout>
 8003866:	bf00      	nop
	...

08003870 <_get>:
  return iqGetTimeout(&((SerialDriver *)ip)->iqueue, TIME_INFINITE);
 8003870:	300c      	adds	r0, #12
 8003872:	f04f 31ff 	mov.w	r1, #4294967295	; 0xffffffff
 8003876:	f7ff bfc3 	b.w	8003800 <iqGetTimeout>
 800387a:	bf00      	nop
 800387c:	0000      	movs	r0, r0
	...

08003880 <chThdSleep>:
void chThdSleep(sysinterval_t time) {
 8003880:	b508      	push	{r3, lr}
 8003882:	4601      	mov	r1, r0
 8003884:	2320      	movs	r3, #32
 8003886:	f383 8811 	msr	BASEPRI, r3
 */
static inline void chThdSleepS(sysinterval_t ticks) {

  chDbgCheck(ticks != TIME_IMMEDIATE);

  (void) chSchGoSleepTimeoutS(CH_STATE_SLEEPING, ticks);
 800388a:	2008      	movs	r0, #8
 800388c:	f7ff fee0 	bl	8003650 <chSchGoSleepTimeoutS>
 8003890:	2300      	movs	r3, #0
 8003892:	f383 8811 	msr	BASEPRI, r3
}
 8003896:	bd08      	pop	{r3, pc}
	...

080038a0 <chMtxLockS>:
 *
 * @param[in] mp        pointer to the @p mutex_t structure
 *
 * @sclass
 */
void chMtxLockS(mutex_t *mp) {
 80038a0:	b570      	push	{r4, r5, r6, lr}
  thread_t *ctp = currp;
 80038a2:	4b2e      	ldr	r3, [pc, #184]	; (800395c <chMtxLockS+0xbc>)
void chMtxLockS(mutex_t *mp) {
 80038a4:	4604      	mov	r4, r0

  chDbgCheckClassS();
  chDbgCheck(mp != NULL);

  /* Is the mutex already locked? */
  if (mp->owner != NULL) {
 80038a6:	6880      	ldr	r0, [r0, #8]
  thread_t *ctp = currp;
 80038a8:	699d      	ldr	r5, [r3, #24]
  if (mp->owner != NULL) {
 80038aa:	b330      	cbz	r0, 80038fa <chMtxLockS+0x5a>
         priority of the running thread requesting the mutex.*/
      thread_t *tp = mp->owner;

      /* Does the running thread have higher priority than the mutex
         owning thread? */
      while (tp->prio < ctp->prio) {
 80038ac:	68aa      	ldr	r2, [r5, #8]
 80038ae:	6883      	ldr	r3, [r0, #8]
 80038b0:	4293      	cmp	r3, r2
 80038b2:	d207      	bcs.n	80038c4 <chMtxLockS+0x24>
        /* Make priority of thread tp match the running thread's priority.*/
        tp->prio = ctp->prio;

        /* The following states need priority queues reordering.*/
        switch (tp->state) {
 80038b4:	f890 3020 	ldrb.w	r3, [r0, #32]
        tp->prio = ctp->prio;
 80038b8:	6082      	str	r2, [r0, #8]
        switch (tp->state) {
 80038ba:	2b06      	cmp	r3, #6
 80038bc:	d035      	beq.n	800392a <chMtxLockS+0x8a>
 80038be:	2b07      	cmp	r3, #7
 80038c0:	d020      	beq.n	8003904 <chMtxLockS+0x64>
 80038c2:	b19b      	cbz	r3, 80038ec <chMtxLockS+0x4c>
  thread_t *cp = (thread_t *)tqp;
 80038c4:	4623      	mov	r3, r4
 80038c6:	e003      	b.n	80038d0 <chMtxLockS+0x30>
  } while ((cp != (thread_t *)tqp) && (cp->prio >= tp->prio));
 80038c8:	6899      	ldr	r1, [r3, #8]
 80038ca:	68aa      	ldr	r2, [r5, #8]
 80038cc:	4291      	cmp	r1, r2
 80038ce:	d302      	bcc.n	80038d6 <chMtxLockS+0x36>
    cp = cp->queue.next;
 80038d0:	681b      	ldr	r3, [r3, #0]
  } while ((cp != (thread_t *)tqp) && (cp->prio >= tp->prio));
 80038d2:	429c      	cmp	r4, r3
 80038d4:	d1f8      	bne.n	80038c8 <chMtxLockS+0x28>
  tp->queue.prev             = cp->queue.prev;
 80038d6:	685a      	ldr	r2, [r3, #4]
      }

      /* Sleep on the mutex.*/
      queue_prio_insert(ctp, &mp->queue);
      ctp->u.wtmtxp = mp;
      chSchGoSleepS(CH_STATE_WTMTX);
 80038d8:	2006      	movs	r0, #6
 80038da:	e9c5 3200 	strd	r3, r2, [r5]
  tp->queue.prev->queue.next = tp;
 80038de:	6015      	str	r5, [r2, #0]
  cp->queue.prev             = tp;
 80038e0:	605d      	str	r5, [r3, #4]
      ctp->u.wtmtxp = mp;
 80038e2:	626c      	str	r4, [r5, #36]	; 0x24
    /* It was not owned, inserted in the owned mutexes list.*/
    mp->owner = ctp;
    mp->next = ctp->mtxlist;
    ctp->mtxlist = mp;
  }
}
 80038e4:	e8bd 4070 	ldmia.w	sp!, {r4, r5, r6, lr}
      chSchGoSleepS(CH_STATE_WTMTX);
 80038e8:	f7ff be9a 	b.w	8003620 <chSchGoSleepS>
  tp->queue.prev->queue.next = tp->queue.next;
 80038ec:	e9d0 3200 	ldrd	r3, r2, [r0]
 80038f0:	6013      	str	r3, [r2, #0]
  tp->queue.next->queue.prev = tp->queue.prev;
 80038f2:	605a      	str	r2, [r3, #4]
          (void) chSchReadyI(queue_dequeue(tp));
 80038f4:	f7ff fd74 	bl	80033e0 <chSchReadyI>
          break;
 80038f8:	e7e4      	b.n	80038c4 <chMtxLockS+0x24>
    mp->next = ctp->mtxlist;
 80038fa:	6bab      	ldr	r3, [r5, #56]	; 0x38
 80038fc:	e9c4 5302 	strd	r5, r3, [r4, #8]
    ctp->mtxlist = mp;
 8003900:	63ac      	str	r4, [r5, #56]	; 0x38
}
 8003902:	bd70      	pop	{r4, r5, r6, pc}
  tp->queue.prev->queue.next = tp->queue.next;
 8003904:	e9d0 3100 	ldrd	r3, r1, [r0]
          queue_prio_insert(queue_dequeue(tp), &tp->u.wtmtxp->queue);
 8003908:	6a46      	ldr	r6, [r0, #36]	; 0x24
 800390a:	600b      	str	r3, [r1, #0]
  tp->queue.next->queue.prev = tp->queue.prev;
 800390c:	6059      	str	r1, [r3, #4]
  thread_t *cp = (thread_t *)tqp;
 800390e:	4633      	mov	r3, r6
 8003910:	e002      	b.n	8003918 <chMtxLockS+0x78>
  } while ((cp != (thread_t *)tqp) && (cp->prio >= tp->prio));
 8003912:	6899      	ldr	r1, [r3, #8]
 8003914:	428a      	cmp	r2, r1
 8003916:	d802      	bhi.n	800391e <chMtxLockS+0x7e>
    cp = cp->queue.next;
 8003918:	681b      	ldr	r3, [r3, #0]
  } while ((cp != (thread_t *)tqp) && (cp->prio >= tp->prio));
 800391a:	429e      	cmp	r6, r3
 800391c:	d1f9      	bne.n	8003912 <chMtxLockS+0x72>
  tp->queue.prev             = cp->queue.prev;
 800391e:	685a      	ldr	r2, [r3, #4]
 8003920:	e9c0 3200 	strd	r3, r2, [r0]
  tp->queue.prev->queue.next = tp;
 8003924:	6010      	str	r0, [r2, #0]
  cp->queue.prev             = tp;
 8003926:	6058      	str	r0, [r3, #4]
 8003928:	e7cc      	b.n	80038c4 <chMtxLockS+0x24>
  tp->queue.prev->queue.next = tp->queue.next;
 800392a:	e9d0 3100 	ldrd	r3, r1, [r0]
          queue_prio_insert(queue_dequeue(tp), &tp->u.wtmtxp->queue);
 800392e:	6a46      	ldr	r6, [r0, #36]	; 0x24
 8003930:	600b      	str	r3, [r1, #0]
  tp->queue.next->queue.prev = tp->queue.prev;
 8003932:	6059      	str	r1, [r3, #4]
  thread_t *cp = (thread_t *)tqp;
 8003934:	4633      	mov	r3, r6
 8003936:	e002      	b.n	800393e <chMtxLockS+0x9e>
  } while ((cp != (thread_t *)tqp) && (cp->prio >= tp->prio));
 8003938:	6899      	ldr	r1, [r3, #8]
 800393a:	428a      	cmp	r2, r1
 800393c:	d802      	bhi.n	8003944 <chMtxLockS+0xa4>
    cp = cp->queue.next;
 800393e:	681b      	ldr	r3, [r3, #0]
  } while ((cp != (thread_t *)tqp) && (cp->prio >= tp->prio));
 8003940:	429e      	cmp	r6, r3
 8003942:	d1f9      	bne.n	8003938 <chMtxLockS+0x98>
  tp->queue.prev             = cp->queue.prev;
 8003944:	685a      	ldr	r2, [r3, #4]
 8003946:	e9c0 3200 	strd	r3, r2, [r0]
  tp->queue.prev->queue.next = tp;
 800394a:	6010      	str	r0, [r2, #0]
  cp->queue.prev             = tp;
 800394c:	6058      	str	r0, [r3, #4]
          tp = tp->u.wtmtxp->owner;
 800394e:	68b0      	ldr	r0, [r6, #8]
      while (tp->prio < ctp->prio) {
 8003950:	68aa      	ldr	r2, [r5, #8]
 8003952:	6883      	ldr	r3, [r0, #8]
 8003954:	4293      	cmp	r3, r2
 8003956:	d3ad      	bcc.n	80038b4 <chMtxLockS+0x14>
 8003958:	e7b4      	b.n	80038c4 <chMtxLockS+0x24>
 800395a:	bf00      	nop
 800395c:	2000128c 	.word	0x2000128c

08003960 <oqWriteTimeout>:
 * @return              The number of bytes effectively transferred.
 *
 * @api
 */
size_t oqWriteTimeout(output_queue_t *oqp, const uint8_t *bp,
                      size_t n, sysinterval_t timeout) {
 8003960:	e92d 4ff0 	stmdb	sp!, {r4, r5, r6, r7, r8, r9, sl, fp, lr}
 8003964:	b085      	sub	sp, #20
 8003966:	e9cd 3202 	strd	r3, r2, [sp, #8]
  qnotify_t nfy = oqp->q_notify;
 800396a:	69c7      	ldr	r7, [r0, #28]
 800396c:	f04f 0920 	mov.w	r9, #32
 8003970:	f389 8811 	msr	BASEPRI, r9

  osalDbgCheck(n > 0U);

  osalSysLock();

  while (n > 0U) {
 8003974:	b3a2      	cbz	r2, 80039e0 <oqWriteTimeout+0x80>
 8003976:	f8dd b00c 	ldr.w	fp, [sp, #12]
 800397a:	4604      	mov	r4, r0
 800397c:	460e      	mov	r6, r1
 800397e:	f04f 0a00 	mov.w	sl, #0
  if (n > oqGetEmptyI(oqp)) {
 8003982:	68a2      	ldr	r2, [r4, #8]
 8003984:	4593      	cmp	fp, r2
  s1 = (size_t)(oqp->q_top - oqp->q_wrptr);
 8003986:	e9d4 2004 	ldrd	r2, r0, [r4, #16]
    n = oqGetEmptyI(oqp);
 800398a:	bf8c      	ite	hi
 800398c:	68a5      	ldrhi	r5, [r4, #8]
  if (n > oqGetEmptyI(oqp)) {
 800398e:	465d      	movls	r5, fp
  s1 = (size_t)(oqp->q_top - oqp->q_wrptr);
 8003990:	eba2 0800 	sub.w	r8, r2, r0
  if (n < s1) {
 8003994:	45a8      	cmp	r8, r5
 8003996:	d844      	bhi.n	8003a22 <oqWriteTimeout+0xc2>
  else if (n > s1) {
 8003998:	d229      	bcs.n	80039ee <oqWriteTimeout+0x8e>
    s2 = n - s1;
 800399a:	eba5 0308 	sub.w	r3, r5, r8
    memcpy((void *)oqp->q_wrptr, (const void *)bp, s1);
 800399e:	4642      	mov	r2, r8
 80039a0:	4631      	mov	r1, r6
    s2 = n - s1;
 80039a2:	9301      	str	r3, [sp, #4]
    memcpy((void *)oqp->q_wrptr, (const void *)bp, s1);
 80039a4:	f7fe f87c 	bl	8001aa0 <memcpy>
    memcpy((void *)oqp->q_buffer, (const void *)bp, s2);
 80039a8:	eb06 0108 	add.w	r1, r6, r8
 80039ac:	f8dd 8004 	ldr.w	r8, [sp, #4]
 80039b0:	68e0      	ldr	r0, [r4, #12]
 80039b2:	4642      	mov	r2, r8
 80039b4:	f7fe f874 	bl	8001aa0 <memcpy>
  oqp->q_counter -= n;
 80039b8:	68a2      	ldr	r2, [r4, #8]
    oqp->q_wrptr = oqp->q_buffer + s2;
 80039ba:	68e1      	ldr	r1, [r4, #12]
 80039bc:	4643      	mov	r3, r8
 80039be:	18cb      	adds	r3, r1, r3
  oqp->q_counter -= n;
 80039c0:	1b52      	subs	r2, r2, r5
    oqp->q_wrptr = oqp->q_buffer + s2;
 80039c2:	6163      	str	r3, [r4, #20]
  oqp->q_counter -= n;
 80039c4:	60a2      	str	r2, [r4, #8]
      }
    }
    else {
      /* Inform the low side that the queue has at least one character
         available.*/
      if (nfy != NULL) {
 80039c6:	b10f      	cbz	r7, 80039cc <oqWriteTimeout+0x6c>
        nfy(oqp);
 80039c8:	4620      	mov	r0, r4
 80039ca:	47b8      	blx	r7
 80039cc:	f38a 8811 	msr	BASEPRI, sl
      }

      /* Giving a preemption chance in a controlled point.*/
      osalSysUnlock();

      n  -= done;
 80039d0:	ebab 0b05 	sub.w	fp, fp, r5
      bp += done;
 80039d4:	442e      	add	r6, r5
 80039d6:	f389 8811 	msr	BASEPRI, r9
  while (n > 0U) {
 80039da:	f1bb 0f00 	cmp.w	fp, #0
 80039de:	d1d0      	bne.n	8003982 <oqWriteTimeout+0x22>
  if (n > oqGetEmptyI(oqp)) {
 80039e0:	9803      	ldr	r0, [sp, #12]
 80039e2:	2300      	movs	r3, #0
 80039e4:	f383 8811 	msr	BASEPRI, r3
    }
  }

  osalSysUnlock();
  return max - n;
}
 80039e8:	b005      	add	sp, #20
 80039ea:	e8bd 8ff0 	ldmia.w	sp!, {r4, r5, r6, r7, r8, r9, sl, fp, pc}
    memcpy((void *)oqp->q_wrptr, (const void *)bp, n);
 80039ee:	462a      	mov	r2, r5
 80039f0:	4631      	mov	r1, r6
 80039f2:	f7fe f855 	bl	8001aa0 <memcpy>
    oqp->q_wrptr = oqp->q_buffer;
 80039f6:	68e2      	ldr	r2, [r4, #12]
 80039f8:	6162      	str	r2, [r4, #20]
  oqp->q_counter -= n;
 80039fa:	68a2      	ldr	r2, [r4, #8]
 80039fc:	1b52      	subs	r2, r2, r5
 80039fe:	60a2      	str	r2, [r4, #8]
    if (done == (size_t)0) {
 8003a00:	2d00      	cmp	r5, #0
 8003a02:	d1e0      	bne.n	80039c6 <oqWriteTimeout+0x66>
 8003a04:	9902      	ldr	r1, [sp, #8]
 8003a06:	4620      	mov	r0, r4
 8003a08:	f7ff feaa 	bl	8003760 <chThdEnqueueTimeoutS>
      if (msg != MSG_OK) {
 8003a0c:	2800      	cmp	r0, #0
 8003a0e:	d0b8      	beq.n	8003982 <oqWriteTimeout+0x22>
 8003a10:	9b03      	ldr	r3, [sp, #12]
 8003a12:	eba3 000b 	sub.w	r0, r3, fp
 8003a16:	2300      	movs	r3, #0
 8003a18:	f383 8811 	msr	BASEPRI, r3
}
 8003a1c:	b005      	add	sp, #20
 8003a1e:	e8bd 8ff0 	ldmia.w	sp!, {r4, r5, r6, r7, r8, r9, sl, fp, pc}
    memcpy((void *)oqp->q_wrptr, (const void *)bp, n);
 8003a22:	462a      	mov	r2, r5
 8003a24:	4631      	mov	r1, r6
 8003a26:	f7fe f83b 	bl	8001aa0 <memcpy>
    oqp->q_wrptr += n;
 8003a2a:	6962      	ldr	r2, [r4, #20]
 8003a2c:	442a      	add	r2, r5
 8003a2e:	6162      	str	r2, [r4, #20]
 8003a30:	e7e3      	b.n	80039fa <oqWriteTimeout+0x9a>
 8003a32:	bf00      	nop
	...

08003a40 <_writet>:
  return oqWriteTimeout(&((SerialDriver *)ip)->oqueue, bp, n, timeout);
 8003a40:	3030      	adds	r0, #48	; 0x30
 8003a42:	f7ff bf8d 	b.w	8003960 <oqWriteTimeout>
 8003a46:	bf00      	nop
	...

08003a50 <_write>:
  return oqWriteTimeout(&((SerialDriver *)ip)->oqueue, bp,
 8003a50:	3030      	adds	r0, #48	; 0x30
 8003a52:	f04f 33ff 	mov.w	r3, #4294967295	; 0xffffffff
 8003a56:	f7ff bf83 	b.w	8003960 <oqWriteTimeout>
 8003a5a:	bf00      	nop
 8003a5c:	0000      	movs	r0, r0
	...

08003a60 <iqReadTimeout>:
                     size_t n, sysinterval_t timeout) {
 8003a60:	e92d 4ff0 	stmdb	sp!, {r4, r5, r6, r7, r8, r9, sl, fp, lr}
 8003a64:	b085      	sub	sp, #20
 8003a66:	e9cd 3202 	strd	r3, r2, [sp, #8]
  qnotify_t nfy = iqp->q_notify;
 8003a6a:	69c7      	ldr	r7, [r0, #28]
 8003a6c:	f04f 0920 	mov.w	r9, #32
 8003a70:	f389 8811 	msr	BASEPRI, r9
  while (n > 0U) {
 8003a74:	2a00      	cmp	r2, #0
 8003a76:	d034      	beq.n	8003ae2 <iqReadTimeout+0x82>
 8003a78:	f8dd b00c 	ldr.w	fp, [sp, #12]
 8003a7c:	4604      	mov	r4, r0
 8003a7e:	460e      	mov	r6, r1
 8003a80:	f04f 0a00 	mov.w	sl, #0
  if (n > iqGetFullI(iqp)) {
 8003a84:	68a2      	ldr	r2, [r4, #8]
  s1 = (size_t)(iqp->q_top - iqp->q_rdptr);
 8003a86:	69a1      	ldr	r1, [r4, #24]
  if (n > iqGetFullI(iqp)) {
 8003a88:	4593      	cmp	fp, r2
  s1 = (size_t)(iqp->q_top - iqp->q_rdptr);
 8003a8a:	6922      	ldr	r2, [r4, #16]
    n = iqGetFullI(iqp);
 8003a8c:	bf8c      	ite	hi
 8003a8e:	68a5      	ldrhi	r5, [r4, #8]
  if (n > iqGetFullI(iqp)) {
 8003a90:	465d      	movls	r5, fp
  s1 = (size_t)(iqp->q_top - iqp->q_rdptr);
 8003a92:	eba2 0801 	sub.w	r8, r2, r1
  if (n < s1) {
 8003a96:	45a8      	cmp	r8, r5
 8003a98:	d844      	bhi.n	8003b24 <iqReadTimeout+0xc4>
  else if (n > s1) {
 8003a9a:	d229      	bcs.n	8003af0 <iqReadTimeout+0x90>
    s2 = n - s1;
 8003a9c:	eba5 0308 	sub.w	r3, r5, r8
    memcpy((void *)bp, (void *)iqp->q_rdptr, s1);
 8003aa0:	4642      	mov	r2, r8
 8003aa2:	4630      	mov	r0, r6
    s2 = n - s1;
 8003aa4:	9301      	str	r3, [sp, #4]
    memcpy((void *)bp, (void *)iqp->q_rdptr, s1);
 8003aa6:	f7fd fffb 	bl	8001aa0 <memcpy>
    memcpy((void *)bp, (void *)iqp->q_buffer, s2);
 8003aaa:	eb06 0008 	add.w	r0, r6, r8
 8003aae:	f8dd 8004 	ldr.w	r8, [sp, #4]
 8003ab2:	68e1      	ldr	r1, [r4, #12]
 8003ab4:	4642      	mov	r2, r8
 8003ab6:	f7fd fff3 	bl	8001aa0 <memcpy>
  iqp->q_counter -= n;
 8003aba:	68a2      	ldr	r2, [r4, #8]
    iqp->q_rdptr = iqp->q_buffer + s2;
 8003abc:	68e1      	ldr	r1, [r4, #12]
 8003abe:	4643      	mov	r3, r8
 8003ac0:	18cb      	adds	r3, r1, r3
  iqp->q_counter -= n;
 8003ac2:	1b52      	subs	r2, r2, r5
    iqp->q_rdptr = iqp->q_buffer + s2;
 8003ac4:	61a3      	str	r3, [r4, #24]
  iqp->q_counter -= n;
 8003ac6:	60a2      	str	r2, [r4, #8]
      if (nfy != NULL) {
 8003ac8:	b10f      	cbz	r7, 8003ace <iqReadTimeout+0x6e>
        nfy(iqp);
 8003aca:	4620      	mov	r0, r4
 8003acc:	47b8      	blx	r7
 8003ace:	f38a 8811 	msr	BASEPRI, sl
      n  -= done;
 8003ad2:	ebab 0b05 	sub.w	fp, fp, r5
      bp += done;
 8003ad6:	442e      	add	r6, r5
 8003ad8:	f389 8811 	msr	BASEPRI, r9
  while (n > 0U) {
 8003adc:	f1bb 0f00 	cmp.w	fp, #0
 8003ae0:	d1d0      	bne.n	8003a84 <iqReadTimeout+0x24>
  if (n > iqGetFullI(iqp)) {
 8003ae2:	9803      	ldr	r0, [sp, #12]
 8003ae4:	2300      	movs	r3, #0
 8003ae6:	f383 8811 	msr	BASEPRI, r3
}
 8003aea:	b005      	add	sp, #20
 8003aec:	e8bd 8ff0 	ldmia.w	sp!, {r4, r5, r6, r7, r8, r9, sl, fp, pc}
    memcpy((void *)bp, (void *)iqp->q_rdptr, n);
 8003af0:	462a      	mov	r2, r5
 8003af2:	4630      	mov	r0, r6
 8003af4:	f7fd ffd4 	bl	8001aa0 <memcpy>
    iqp->q_rdptr = iqp->q_buffer;
 8003af8:	68e2      	ldr	r2, [r4, #12]
 8003afa:	61a2      	str	r2, [r4, #24]
  iqp->q_counter -= n;
 8003afc:	68a2      	ldr	r2, [r4, #8]
 8003afe:	1b52      	subs	r2, r2, r5
 8003b00:	60a2      	str	r2, [r4, #8]
    if (done == (size_t)0) {
 8003b02:	2d00      	cmp	r5, #0
 8003b04:	d1e0      	bne.n	8003ac8 <iqReadTimeout+0x68>
 8003b06:	9902      	ldr	r1, [sp, #8]
 8003b08:	4620      	mov	r0, r4
 8003b0a:	f7ff fe29 	bl	8003760 <chThdEnqueueTimeoutS>
      if (msg != MSG_OK) {
 8003b0e:	2800      	cmp	r0, #0
 8003b10:	d0b8      	beq.n	8003a84 <iqReadTimeout+0x24>
 8003b12:	9b03      	ldr	r3, [sp, #12]
 8003b14:	eba3 000b 	sub.w	r0, r3, fp
 8003b18:	2300      	movs	r3, #0
 8003b1a:	f383 8811 	msr	BASEPRI, r3
}
 8003b1e:	b005      	add	sp, #20
 8003b20:	e8bd 8ff0 	ldmia.w	sp!, {r4, r5, r6, r7, r8, r9, sl, fp, pc}
    memcpy((void *)bp, (void *)iqp->q_rdptr, n);
 8003b24:	462a      	mov	r2, r5
 8003b26:	4630      	mov	r0, r6
 8003b28:	f7fd ffba 	bl	8001aa0 <memcpy>
    iqp->q_rdptr += n;
 8003b2c:	69a2      	ldr	r2, [r4, #24]
 8003b2e:	442a      	add	r2, r5
 8003b30:	61a2      	str	r2, [r4, #24]
 8003b32:	e7e3      	b.n	8003afc <iqReadTimeout+0x9c>
	...

08003b40 <_readt>:
  return iqReadTimeout(&((SerialDriver *)ip)->iqueue, bp, n, timeout);
 8003b40:	300c      	adds	r0, #12
 8003b42:	f7ff bf8d 	b.w	8003a60 <iqReadTimeout>
 8003b46:	bf00      	nop
	...

08003b50 <_read>:
  return iqReadTimeout(&((SerialDriver *)ip)->iqueue, bp,
 8003b50:	300c      	adds	r0, #12
 8003b52:	f04f 33ff 	mov.w	r3, #4294967295	; 0xffffffff
 8003b56:	f7ff bf83 	b.w	8003a60 <iqReadTimeout>
 8003b5a:	bf00      	nop
 8003b5c:	0000      	movs	r0, r0
	...

08003b60 <SVC_Handler>:
  __ASM volatile ("MRS %0, psp"  : "=r" (result) );
 8003b60:	f3ef 8309 	mrs	r3, PSP
    psp += sizeof (struct port_extctx);
 8003b64:	3320      	adds	r3, #32
  __ASM volatile ("MSR psp, %0" : : "r" (topOfProcStack) : );
 8003b66:	f383 8809 	msr	PSP, r3
  __ASM volatile ("MSR basepri, %0" : : "r" (basePri) : "memory");
 8003b6a:	2300      	movs	r3, #0
 8003b6c:	f383 8811 	msr	BASEPRI, r3
}
 8003b70:	4770      	bx	lr
 8003b72:	bf00      	nop
	...

08003b80 <chThdExit>:
void chThdExit(msg_t msg) {
 8003b80:	b538      	push	{r3, r4, r5, lr}
 8003b82:	2220      	movs	r2, #32
 8003b84:	4603      	mov	r3, r0
 8003b86:	f382 8811 	msr	BASEPRI, r2
  thread_t *tp = currp;
 8003b8a:	4a0f      	ldr	r2, [pc, #60]	; (8003bc8 <chThdExit+0x48>)
 8003b8c:	6994      	ldr	r4, [r2, #24]
  return (bool)(tlp->next != (thread_t *)tlp);
 8003b8e:	6aa0      	ldr	r0, [r4, #40]	; 0x28
  tp->u.exitcode = msg;
 8003b90:	6263      	str	r3, [r4, #36]	; 0x24
  while (list_notempty(&tp->waiting)) {
 8003b92:	f104 0528 	add.w	r5, r4, #40	; 0x28
 8003b96:	42a8      	cmp	r0, r5
 8003b98:	d006      	beq.n	8003ba8 <chThdExit+0x28>
  tlp->next = tp->queue.next;
 8003b9a:	6803      	ldr	r3, [r0, #0]
 8003b9c:	62a3      	str	r3, [r4, #40]	; 0x28
    (void) chSchReadyI(list_remove(&tp->waiting));
 8003b9e:	f7ff fc1f 	bl	80033e0 <chSchReadyI>
  return (bool)(tlp->next != (thread_t *)tlp);
 8003ba2:	6aa0      	ldr	r0, [r4, #40]	; 0x28
  while (list_notempty(&tp->waiting)) {
 8003ba4:	42a8      	cmp	r0, r5
 8003ba6:	d1f8      	bne.n	8003b9a <chThdExit+0x1a>
  if ((tp->refs == (trefs_t)0) &&
 8003ba8:	f894 3022 	ldrb.w	r3, [r4, #34]	; 0x22
 8003bac:	b93b      	cbnz	r3, 8003bbe <chThdExit+0x3e>
 8003bae:	f894 3021 	ldrb.w	r3, [r4, #33]	; 0x21
 8003bb2:	079b      	lsls	r3, r3, #30
 8003bb4:	d103      	bne.n	8003bbe <chThdExit+0x3e>
    REG_REMOVE(tp);
 8003bb6:	e9d4 3204 	ldrd	r3, r2, [r4, #16]
 8003bba:	6113      	str	r3, [r2, #16]
 8003bbc:	615a      	str	r2, [r3, #20]
}
 8003bbe:	e8bd 4038 	ldmia.w	sp!, {r3, r4, r5, lr}
  chSchGoSleepS(CH_STATE_FINAL);
 8003bc2:	200f      	movs	r0, #15
 8003bc4:	f7ff bd2c 	b.w	8003620 <chSchGoSleepS>
 8003bc8:	2000128c 	.word	0x2000128c
 8003bcc:	00000000 	.word	0x00000000

08003bd0 <chSchDoReschedule>:
 *          itself.
 *
 * @special
 */
void chSchDoRescheduleAhead(void) {
  thread_t *otp = currp;
 8003bd0:	4a0d      	ldr	r2, [pc, #52]	; (8003c08 <chSchDoReschedule+0x38>)
  thread_t *tp = tqp->next;
 8003bd2:	6810      	ldr	r0, [r2, #0]
 8003bd4:	6991      	ldr	r1, [r2, #24]
  tqp->next             = tp->queue.next;
 8003bd6:	6803      	ldr	r3, [r0, #0]
void chSchDoRescheduleAhead(void) {
 8003bd8:	b430      	push	{r4, r5}

  /* Picks the first thread from the ready queue and makes it current.*/
  currp = queue_fifo_remove(&ch.rlist.queue);
  currp->state = CH_STATE_CURRENT;
 8003bda:	2401      	movs	r4, #1
  tqp->next->queue.prev = (thread_t *)tqp;
 8003bdc:	605a      	str	r2, [r3, #4]
  tp->state = CH_STATE_READY;
 8003bde:	2500      	movs	r5, #0
  currp->state = CH_STATE_CURRENT;
 8003be0:	f880 4020 	strb.w	r4, [r0, #32]

  /* Handling idle-leave hook.*/
  if (otp->prio == IDLEPRIO) {
 8003be4:	688c      	ldr	r4, [r1, #8]
  tqp->next             = tp->queue.next;
 8003be6:	6013      	str	r3, [r2, #0]
  currp = queue_fifo_remove(&ch.rlist.queue);
 8003be8:	6190      	str	r0, [r2, #24]
  tp->state = CH_STATE_READY;
 8003bea:	f881 5020 	strb.w	r5, [r1, #32]
  cp = (thread_t *)&ch.rlist.queue;
 8003bee:	e000      	b.n	8003bf2 <chSchDoReschedule+0x22>
 8003bf0:	681b      	ldr	r3, [r3, #0]
  } while (cp->prio > tp->prio);
 8003bf2:	689a      	ldr	r2, [r3, #8]
 8003bf4:	4294      	cmp	r4, r2
 8003bf6:	d3fb      	bcc.n	8003bf0 <chSchDoReschedule+0x20>
  tp->queue.prev             = cp->queue.prev;
 8003bf8:	685a      	ldr	r2, [r3, #4]
  /* Placing in ready list ahead of peers.*/
  otp = chSchReadyAheadI(otp);

  /* Swap operation as tail call.*/
  chSysSwitch(currp, otp);
}
 8003bfa:	bc30      	pop	{r4, r5}
  tp->queue.prev             = cp->queue.prev;
 8003bfc:	e9c1 3200 	strd	r3, r2, [r1]
  tp->queue.prev->queue.next = tp;
 8003c00:	6011      	str	r1, [r2, #0]
  cp->queue.prev             = tp;
 8003c02:	6059      	str	r1, [r3, #4]
  chSysSwitch(currp, otp);
 8003c04:	f7fc bb5c 	b.w	80002c0 <_port_switch>
 8003c08:	2000128c 	.word	0x2000128c
 8003c0c:	00000000 	.word	0x00000000

08003c10 <chMtxUnlock>:
 *
 * @param[in] mp        pointer to the @p mutex_t structure
 *
 * @api
 */
void chMtxUnlock(mutex_t *mp) {
 8003c10:	b570      	push	{r4, r5, r6, lr}
  thread_t *ctp = currp;
 8003c12:	4d1b      	ldr	r5, [pc, #108]	; (8003c80 <chMtxUnlock+0x70>)
void chMtxUnlock(mutex_t *mp) {
 8003c14:	4601      	mov	r1, r0
  thread_t *ctp = currp;
 8003c16:	69ae      	ldr	r6, [r5, #24]
 8003c18:	2320      	movs	r3, #32
 8003c1a:	f383 8811 	msr	BASEPRI, r3
  return (bool)(tqp->next != (const thread_t *)tqp);
 8003c1e:	6800      	ldr	r0, [r0, #0]
    chDbgAssert(ctp->mtxlist == mp, "not next in list");

    /* Removes the top mutex from the thread's owned mutexes list and marks
       it as not owned. Note, it is assumed to be the same mutex passed as
       parameter of this function.*/
    ctp->mtxlist = mp->next;
 8003c20:	68cb      	ldr	r3, [r1, #12]
 8003c22:	63b3      	str	r3, [r6, #56]	; 0x38

    /* If a thread is waiting on the mutex then the fun part begins.*/
    if (chMtxQueueNotEmptyS(mp)) {
 8003c24:	4288      	cmp	r0, r1
 8003c26:	d025      	beq.n	8003c74 <chMtxUnlock+0x64>
      thread_t *tp;

      /* Recalculates the optimal thread priority by scanning the owned
         mutexes list.*/
      tprio_t newprio = ctp->realprio;
 8003c28:	6bf4      	ldr	r4, [r6, #60]	; 0x3c
      lmp = ctp->mtxlist;
      while (lmp != NULL) {
 8003c2a:	b14b      	cbz	r3, 8003c40 <chMtxUnlock+0x30>
 8003c2c:	681a      	ldr	r2, [r3, #0]
        /* If the highest priority thread waiting in the mutexes list has a
           greater priority than the current thread base priority then the
           final priority will have at least that priority.*/
        if (chMtxQueueNotEmptyS(lmp) &&
 8003c2e:	4293      	cmp	r3, r2
 8003c30:	d003      	beq.n	8003c3a <chMtxUnlock+0x2a>
 8003c32:	6892      	ldr	r2, [r2, #8]
 8003c34:	4294      	cmp	r4, r2
 8003c36:	bf38      	it	cc
 8003c38:	4614      	movcc	r4, r2
            (lmp->queue.next->prio > newprio)) {
          newprio = lmp->queue.next->prio;
        }
        lmp = lmp->next;
 8003c3a:	68db      	ldr	r3, [r3, #12]
      while (lmp != NULL) {
 8003c3c:	2b00      	cmp	r3, #0
 8003c3e:	d1f5      	bne.n	8003c2c <chMtxUnlock+0x1c>
  tqp->next             = tp->queue.next;
 8003c40:	6803      	ldr	r3, [r0, #0]
#if CH_CFG_USE_MUTEXES_RECURSIVE == TRUE
      mp->cnt = (cnt_t)1;
#endif
      tp = queue_fifo_remove(&mp->queue);
      mp->owner = tp;
      mp->next = tp->mtxlist;
 8003c42:	6b82      	ldr	r2, [r0, #56]	; 0x38
      ctp->prio = newprio;
 8003c44:	60b4      	str	r4, [r6, #8]
 8003c46:	600b      	str	r3, [r1, #0]
  tqp->next->queue.prev = (thread_t *)tqp;
 8003c48:	6059      	str	r1, [r3, #4]
      mp->next = tp->mtxlist;
 8003c4a:	e9c1 0202 	strd	r0, r2, [r1, #8]
      tp->mtxlist = mp;
 8003c4e:	6381      	str	r1, [r0, #56]	; 0x38

      /* Note, not using chSchWakeupS() because that function expects the
         current thread to have the higher or equal priority than the ones
         in the ready list. This is not necessarily true here because we
         just changed priority.*/
      (void) chSchReadyI(tp);
 8003c50:	f7ff fbc6 	bl	80033e0 <chSchReadyI>
 */
static inline bool chSchIsRescRequiredI(void) {

  chDbgCheckClassI();

  return firstprio(&ch.rlist.queue) > currp->prio;
 8003c54:	682a      	ldr	r2, [r5, #0]
 8003c56:	69ab      	ldr	r3, [r5, #24]
  if (chSchIsRescRequiredI()) {
 8003c58:	6892      	ldr	r2, [r2, #8]
 8003c5a:	689b      	ldr	r3, [r3, #8]
 8003c5c:	429a      	cmp	r2, r3
 8003c5e:	d803      	bhi.n	8003c68 <chMtxUnlock+0x58>
 8003c60:	2300      	movs	r3, #0
 8003c62:	f383 8811 	msr	BASEPRI, r3
#if CH_CFG_USE_MUTEXES_RECURSIVE == TRUE
  }
#endif

  chSysUnlock();
}
 8003c66:	bd70      	pop	{r4, r5, r6, pc}
    chSchDoRescheduleAhead();
 8003c68:	f7ff ffb2 	bl	8003bd0 <chSchDoReschedule>
 8003c6c:	2300      	movs	r3, #0
 8003c6e:	f383 8811 	msr	BASEPRI, r3
 8003c72:	bd70      	pop	{r4, r5, r6, pc}
      mp->owner = NULL;
 8003c74:	2300      	movs	r3, #0
 8003c76:	6083      	str	r3, [r0, #8]
 8003c78:	2300      	movs	r3, #0
 8003c7a:	f383 8811 	msr	BASEPRI, r3
}
 8003c7e:	bd70      	pop	{r4, r5, r6, pc}
 8003c80:	2000128c 	.word	0x2000128c
	...

08003c90 <chHeapAllocAligned.constprop.0>:
 * @return              A pointer to the aligned allocated block.
 * @retval NULL         if the block cannot be allocated.
 *
 * @api
 */
void *chHeapAllocAligned(memory_heap_t *heapp, size_t size, unsigned align) {
 8003c90:	b5f8      	push	{r3, r4, r5, r6, r7, lr}
  if (align < CH_HEAP_ALIGNMENT) {
    align = CH_HEAP_ALIGNMENT;
  }

  /* Size is converted in number of elementary allocation units.*/
  pages = MEM_ALIGN_NEXT(size, CH_HEAP_ALIGNMENT) / CH_HEAP_ALIGNMENT;
 8003c92:	1dc6      	adds	r6, r0, #7
void *chHeapAllocAligned(memory_heap_t *heapp, size_t size, unsigned align) {
 8003c94:	4604      	mov	r4, r0
  pages = MEM_ALIGN_NEXT(size, CH_HEAP_ALIGNMENT) / CH_HEAP_ALIGNMENT;
 8003c96:	08f6      	lsrs	r6, r6, #3
 8003c98:	2320      	movs	r3, #32
 8003c9a:	f383 8811 	msr	BASEPRI, r3
  chMtxLockS(mp);
 8003c9e:	4d33      	ldr	r5, [pc, #204]	; (8003d6c <chHeapAllocAligned.constprop.0+0xdc>)
 8003ca0:	f105 000c 	add.w	r0, r5, #12
 8003ca4:	f7ff fdfc 	bl	80038a0 <chMtxLockS>
 8003ca8:	2300      	movs	r3, #0
 8003caa:	f383 8811 	msr	BASEPRI, r3
  /* Taking heap mutex/semaphore.*/
  H_LOCK(heapp);

  /* Start of the free blocks list.*/
  qp = &heapp->header;
  while (H_NEXT(qp) != NULL) {
 8003cae:	686a      	ldr	r2, [r5, #4]
 8003cb0:	b1da      	cbz	r2, 8003cea <chHeapAllocAligned.constprop.0+0x5a>
  qp = &heapp->header;
 8003cb2:	1d28      	adds	r0, r5, #4
 8003cb4:	e000      	b.n	8003cb8 <chHeapAllocAligned.constprop.0+0x28>
  while (H_NEXT(qp) != NULL) {
 8003cb6:	461a      	mov	r2, r3
    hp = H_NEXT(qp);

    /* Pointer aligned to the requested alignment.*/
    ahp = (heap_header_t *)MEM_ALIGN_NEXT(H_BLOCK(hp), align) - 1U;

    if ((ahp < H_LIMIT(hp)) && (pages <= NPAGES(H_LIMIT(hp), ahp + 1U))) {
 8003cb8:	f8d2 c004 	ldr.w	ip, [r2, #4]
    ahp = (heap_header_t *)MEM_ALIGN_NEXT(H_BLOCK(hp), align) - 1U;
 8003cbc:	f102 030f 	add.w	r3, r2, #15
 8003cc0:	f023 0307 	bic.w	r3, r3, #7
    if ((ahp < H_LIMIT(hp)) && (pages <= NPAGES(H_LIMIT(hp), ahp + 1U))) {
 8003cc4:	f10c 0101 	add.w	r1, ip, #1
 8003cc8:	eb02 01c1 	add.w	r1, r2, r1, lsl #3
    ahp = (heap_header_t *)MEM_ALIGN_NEXT(H_BLOCK(hp), align) - 1U;
 8003ccc:	f1a3 0708 	sub.w	r7, r3, #8
    if ((ahp < H_LIMIT(hp)) && (pages <= NPAGES(H_LIMIT(hp), ahp + 1U))) {
 8003cd0:	428f      	cmp	r7, r1
 8003cd2:	eba1 0303 	sub.w	r3, r1, r3
 8003cd6:	ea4f 0ee3 	mov.w	lr, r3, asr #3
 8003cda:	d202      	bcs.n	8003ce2 <chHeapAllocAligned.constprop.0+0x52>
 8003cdc:	ebb6 0fe3 	cmp.w	r6, r3, asr #3
 8003ce0:	d912      	bls.n	8003d08 <chHeapAllocAligned.constprop.0+0x78>
  while (H_NEXT(qp) != NULL) {
 8003ce2:	6813      	ldr	r3, [r2, #0]
 8003ce4:	4610      	mov	r0, r2
 8003ce6:	2b00      	cmp	r3, #0
 8003ce8:	d1e5      	bne.n	8003cb6 <chHeapAllocAligned.constprop.0+0x26>
    /* Next in the free blocks list.*/
    qp = hp;
  }

  /* Releasing heap mutex/semaphore.*/
  H_UNLOCK(heapp);
 8003cea:	4821      	ldr	r0, [pc, #132]	; (8003d70 <chHeapAllocAligned.constprop.0+0xe0>)
 8003cec:	f7ff ff90 	bl	8003c10 <chMtxUnlock>

  /* More memory is required, tries to get it from the associated provider
     else fails.*/
  if (heapp->provider != NULL) {
 8003cf0:	682b      	ldr	r3, [r5, #0]
 8003cf2:	b3a3      	cbz	r3, 8003d5e <chHeapAllocAligned.constprop.0+0xce>
    ahp = heapp->provider(pages * CH_HEAP_ALIGNMENT,
 8003cf4:	2208      	movs	r2, #8
 8003cf6:	00f0      	lsls	r0, r6, #3
 8003cf8:	4611      	mov	r1, r2
 8003cfa:	4798      	blx	r3
                          align,
                          sizeof (heap_header_t));
    if (ahp != NULL) {
 8003cfc:	4606      	mov	r6, r0
 8003cfe:	b108      	cbz	r0, 8003d04 <chHeapAllocAligned.constprop.0+0x74>
      hp = ahp - 1U;
      H_HEAP(hp) = heapp;
      H_SIZE(hp) = size;
 8003d00:	e940 5402 	strd	r5, r4, [r0, #-8]
      /*lint -restore*/
    }
  }

  return NULL;
}
 8003d04:	4630      	mov	r0, r6
 8003d06:	bdf8      	pop	{r3, r4, r5, r6, r7, pc}
      if (ahp > hp) {
 8003d08:	42ba      	cmp	r2, r7
 8003d0a:	d316      	bcc.n	8003d3a <chHeapAllocAligned.constprop.0+0xaa>
        if (H_PAGES(hp) == pages) {
 8003d0c:	4566      	cmp	r6, ip
 8003d0e:	d028      	beq.n	8003d62 <chHeapAllocAligned.constprop.0+0xd2>
          fp = H_BLOCK(hp) + pages;
 8003d10:	1c77      	adds	r7, r6, #1
 8003d12:	eb02 06c7 	add.w	r6, r2, r7, lsl #3
          H_PAGES(fp) = NPAGES(H_LIMIT(hp), H_BLOCK(fp));
 8003d16:	f106 0308 	add.w	r3, r6, #8
 8003d1a:	1acb      	subs	r3, r1, r3
 8003d1c:	10db      	asrs	r3, r3, #3
          H_NEXT(fp) = H_NEXT(hp);
 8003d1e:	6811      	ldr	r1, [r2, #0]
 8003d20:	f842 1037 	str.w	r1, [r2, r7, lsl #3]
          H_PAGES(fp) = NPAGES(H_LIMIT(hp), H_BLOCK(fp));
 8003d24:	6073      	str	r3, [r6, #4]
          H_NEXT(qp) = fp;
 8003d26:	4617      	mov	r7, r2
 8003d28:	6006      	str	r6, [r0, #0]
      H_HEAP(hp) = heapp;
 8003d2a:	463e      	mov	r6, r7
      H_SIZE(hp) = size;
 8003d2c:	607c      	str	r4, [r7, #4]
      H_UNLOCK(heapp);
 8003d2e:	4810      	ldr	r0, [pc, #64]	; (8003d70 <chHeapAllocAligned.constprop.0+0xe0>)
      H_HEAP(hp) = heapp;
 8003d30:	f846 5b08 	str.w	r5, [r6], #8
      H_UNLOCK(heapp);
 8003d34:	f7ff ff6c 	bl	8003c10 <chMtxUnlock>
 8003d38:	e7e4      	b.n	8003d04 <chHeapAllocAligned.constprop.0+0x74>
        H_PAGES(hp) = NPAGES(ahp, H_BLOCK(hp));
 8003d3a:	f102 0308 	add.w	r3, r2, #8
 8003d3e:	1afb      	subs	r3, r7, r3
 8003d40:	10db      	asrs	r3, r3, #3
        if (bpages > pages) {
 8003d42:	4576      	cmp	r6, lr
        H_PAGES(hp) = NPAGES(ahp, H_BLOCK(hp));
 8003d44:	6053      	str	r3, [r2, #4]
        if (bpages > pages) {
 8003d46:	d2f0      	bcs.n	8003d2a <chHeapAllocAligned.constprop.0+0x9a>
          fp = H_BLOCK(ahp) + pages;
 8003d48:	1c70      	adds	r0, r6, #1
          H_PAGES(fp) = (bpages - pages) - 1U;
 8003d4a:	43f3      	mvns	r3, r6
          fp = H_BLOCK(ahp) + pages;
 8003d4c:	eb07 01c0 	add.w	r1, r7, r0, lsl #3
          H_NEXT(fp) = H_NEXT(hp);
 8003d50:	6816      	ldr	r6, [r2, #0]
          H_PAGES(fp) = (bpages - pages) - 1U;
 8003d52:	4473      	add	r3, lr
 8003d54:	604b      	str	r3, [r1, #4]
          H_NEXT(fp) = H_NEXT(hp);
 8003d56:	f847 6030 	str.w	r6, [r7, r0, lsl #3]
          H_NEXT(hp) = fp;
 8003d5a:	6011      	str	r1, [r2, #0]
 8003d5c:	e7e5      	b.n	8003d2a <chHeapAllocAligned.constprop.0+0x9a>
  return NULL;
 8003d5e:	461e      	mov	r6, r3
 8003d60:	e7d0      	b.n	8003d04 <chHeapAllocAligned.constprop.0+0x74>
          H_NEXT(qp) = H_NEXT(hp);
 8003d62:	6813      	ldr	r3, [r2, #0]
 8003d64:	6003      	str	r3, [r0, #0]
 8003d66:	4617      	mov	r7, r2
 8003d68:	e7df      	b.n	8003d2a <chHeapAllocAligned.constprop.0+0x9a>
 8003d6a:	bf00      	nop
 8003d6c:	20001430 	.word	0x20001430
 8003d70:	2000143c 	.word	0x2000143c
	...

08003d80 <_ZN5L647023L6470_DaisyChainCommandEPhS0_.constprop.0>:
void L6470::L6470_DaisyChainCommand(uint8_t* pL6470_DaisyChainSpiTxStruct, uint8_t* pL6470_DaisyChainSpiRxStruct)
 8003d80:	e92d 4ff0 	stmdb	sp!, {r4, r5, r6, r7, r8, r9, sl, fp, lr}
  L6470_DaisyChain_HalfPrepared = ZERO_F;
 8003d84:	4b72      	ldr	r3, [pc, #456]	; (8003f50 <_ZN5L647023L6470_DaisyChainCommandEPhS0_.constprop.0+0x1d0>)
 8003d86:	4f73      	ldr	r7, [pc, #460]	; (8003f54 <_ZN5L647023L6470_DaisyChainCommandEPhS0_.constprop.0+0x1d4>)
 8003d88:	4c73      	ldr	r4, [pc, #460]	; (8003f58 <_ZN5L647023L6470_DaisyChainCommandEPhS0_.constprop.0+0x1d8>)
 8003d8a:	f8df 81e8 	ldr.w	r8, [pc, #488]	; 8003f74 <_ZN5L647023L6470_DaisyChainCommandEPhS0_.constprop.0+0x1f4>
 8003d8e:	2500      	movs	r5, #0
void L6470::L6470_DaisyChainCommand(uint8_t* pL6470_DaisyChainSpiTxStruct, uint8_t* pL6470_DaisyChainSpiRxStruct)
 8003d90:	b083      	sub	sp, #12
 8003d92:	4681      	mov	r9, r0
  L6470_DaisyChain_HalfPrepared = ZERO_F;
 8003d94:	701d      	strb	r5, [r3, #0]
 8003d96:	f107 0b08 	add.w	fp, r7, #8
 8003d9a:	f104 0a0c 	add.w	sl, r4, #12
 8003d9e:	2620      	movs	r6, #32
 8003da0:	f386 8811 	msr	BASEPRI, r6
 8003da4:	4650      	mov	r0, sl
 8003da6:	f7ff fd7b 	bl	80038a0 <chMtxLockS>
 8003daa:	f385 8811 	msr	BASEPRI, r5
        // dev_spi->transfer(pBufferToWrite, pBufferToRead, NumBytes);
        // digitalWrite(ssel, HIGH);
        // dev_spi->endTransaction();

        spiAcquireBus(&SPID1);        
        palWriteLine(ssel, PAL_LOW);
 8003dae:	f8d9 3010 	ldr.w	r3, [r9, #16]
 8003db2:	f003 020f 	and.w	r2, r3, #15
 8003db6:	f102 0110 	add.w	r1, r2, #16
 8003dba:	f023 030f 	bic.w	r3, r3, #15
 8003dbe:	2201      	movs	r2, #1
 8003dc0:	408a      	lsls	r2, r1
 8003dc2:	619a      	str	r2, [r3, #24]
 8003dc4:	f386 8811 	msr	BASEPRI, r6
 * @notapi
 */
void spi_lld_start(SPIDriver *spip) {

  /* If in stopped state then enables the SPI and DMA clocks.*/
  if (spip->state == SPI_STOP) {
 8003dc8:	7823      	ldrb	r3, [r4, #0]
  osalDbgCheck((spip != NULL) && (config != NULL));

  osalSysLock();
  osalDbgAssert((spip->state == SPI_STOP) || (spip->state == SPI_READY),
                "invalid state");
  spip->config = config;
 8003dca:	4a64      	ldr	r2, [pc, #400]	; (8003f5c <_ZN5L647023L6470_DaisyChainCommandEPhS0_.constprop.0+0x1dc>)
 8003dcc:	6062      	str	r2, [r4, #4]
 8003dce:	2b01      	cmp	r3, #1
 8003dd0:	f000 8083 	beq.w	8003eda <_ZN5L647023L6470_DaisyChainCommandEPhS0_.constprop.0+0x15a>
    dmaStreamSetPeripheral(spip->dmarx, &spip->spi->DR);
    dmaStreamSetPeripheral(spip->dmatx, &spip->spi->DR);
  }

  /* Configuration-specific DMA setup.*/
  if ((spip->config->cr1 & SPI_CR1_DFF) == 0) {
 8003dd4:	f8df c184 	ldr.w	ip, [pc, #388]	; 8003f5c <_ZN5L647023L6470_DaisyChainCommandEPhS0_.constprop.0+0x1dc>
  if (spip->state == SPI_STOP) {
 8003dd8:	f04f 0e07 	mov.w	lr, #7
  if ((spip->config->cr1 & SPI_CR1_DFF) == 0) {
 8003ddc:	205b      	movs	r0, #91	; 0x5b
    /* Frame width is 8 bits or smaller.*/
    spip->rxdmamode = (spip->rxdmamode & ~STM32_DMA_CR_SIZE_MASK) |
                      STM32_DMA_CR_PSIZE_BYTE | STM32_DMA_CR_MSIZE_BYTE;
 8003dde:	e9d4 120a 	ldrd	r1, r2, [r4, #40]	; 0x28
 8003de2:	69e3      	ldr	r3, [r4, #28]
    spip->txdmamode = (spip->txdmamode & ~STM32_DMA_CR_SIZE_MASK) |
                      STM32_DMA_CR_PSIZE_BYTE | STM32_DMA_CR_MSIZE_BYTE;
 8003de4:	f422 42f0 	bic.w	r2, r2, #30720	; 0x7800
    spip->txdmamode = (spip->txdmamode & ~STM32_DMA_CR_SIZE_MASK) |
 8003de8:	62e2      	str	r2, [r4, #44]	; 0x2c
                      STM32_DMA_CR_PSIZE_BYTE | STM32_DMA_CR_MSIZE_BYTE;
 8003dea:	f421 41f0 	bic.w	r1, r1, #30720	; 0x7800
                      STM32_DMA_CR_PSIZE_HWORD | STM32_DMA_CR_MSIZE_HWORD;
    spip->txdmamode = (spip->txdmamode & ~STM32_DMA_CR_SIZE_MASK) |
                      STM32_DMA_CR_PSIZE_HWORD | STM32_DMA_CR_MSIZE_HWORD;
  }

  if (spip->config->circular) {
 8003dee:	f89c c000 	ldrb.w	ip, [ip]
 8003df2:	f1bc 0f00 	cmp.w	ip, #0
 8003df6:	d069      	beq.n	8003ecc <_ZN5L647023L6470_DaisyChainCommandEPhS0_.constprop.0+0x14c>
    spip->rxdmamode |= (STM32_DMA_CR_CIRC | STM32_DMA_CR_HTIE);
 8003df8:	f441 7184 	orr.w	r1, r1, #264	; 0x108
    spip->txdmamode |= (STM32_DMA_CR_CIRC | STM32_DMA_CR_HTIE);
 8003dfc:	f442 7284 	orr.w	r2, r2, #264	; 0x108
 8003e00:	e9c4 120a 	strd	r1, r2, [r4, #40]	; 0x28
    spip->rxdmamode &= ~(STM32_DMA_CR_CIRC | STM32_DMA_CR_HTIE);
    spip->txdmamode &= ~(STM32_DMA_CR_CIRC | STM32_DMA_CR_HTIE);
  }

  /* SPI setup and enable.*/
  spip->spi->CR1 &= ~SPI_CR1_SPE;
 8003e04:	681a      	ldr	r2, [r3, #0]
  spip->spi->CR1  = spip->config->cr1 | SPI_CR1_MSTR | SPI_CR1_SSM |
 8003e06:	f440 7041 	orr.w	r0, r0, #772	; 0x304
  spip->spi->CR1 &= ~SPI_CR1_SPE;
 8003e0a:	f022 0240 	bic.w	r2, r2, #64	; 0x40
 8003e0e:	601a      	str	r2, [r3, #0]
  spip->spi->CR1  = spip->config->cr1 | SPI_CR1_MSTR | SPI_CR1_SSM |
 8003e10:	6018      	str	r0, [r3, #0]
                    SPI_CR1_SSI;
  spip->spi->CR2  = spip->config->cr2 | SPI_CR2_SSOE | SPI_CR2_RXDMAEN |
 8003e12:	f8c3 e004 	str.w	lr, [r3, #4]
                    SPI_CR2_TXDMAEN;
  spip->spi->CR1 |= SPI_CR1_SPE;
 8003e16:	6819      	ldr	r1, [r3, #0]
  spi_lld_start(spip);
  spip->state = SPI_READY;
 8003e18:	2202      	movs	r2, #2
 8003e1a:	f041 0140 	orr.w	r1, r1, #64	; 0x40
 8003e1e:	6019      	str	r1, [r3, #0]
 8003e20:	7022      	strb	r2, [r4, #0]
 8003e22:	f385 8811 	msr	BASEPRI, r5
 8003e26:	f386 8811 	msr	BASEPRI, r6
 8003e2a:	f385 8811 	msr	BASEPRI, r5
 8003e2e:	f386 8811 	msr	BASEPRI, r6

  dmaStreamSetMemory0(spip->dmarx, rxbuf);
  dmaStreamSetTransactionSize(spip->dmarx, n);
  dmaStreamSetMode(spip->dmarx, spip->rxdmamode| STM32_DMA_CR_MINC);

  dmaStreamSetMemory0(spip->dmatx, txbuf);
 8003e32:	6a63      	ldr	r3, [r4, #36]	; 0x24
 8003e34:	9301      	str	r3, [sp, #4]
  osalDbgCheck((spip->config->circular == false) || ((n & 1U) == 0U));
#endif

  osalSysLock();
  osalDbgAssert(spip->state == SPI_READY, "not ready");
  spiStartExchangeI(spip, n, txbuf, rxbuf);
 8003e36:	2003      	movs	r0, #3
  dmaStreamSetMemory0(spip->dmarx, rxbuf);
 8003e38:	6a23      	ldr	r3, [r4, #32]
 8003e3a:	7020      	strb	r0, [r4, #0]
 8003e3c:	f8d3 c000 	ldr.w	ip, [r3]
  dmaStreamSetMemory0(spip->dmatx, txbuf);
 8003e40:	9b01      	ldr	r3, [sp, #4]
  dmaStreamSetMode(spip->dmarx, spip->rxdmamode| STM32_DMA_CR_MINC);
 8003e42:	6aa1      	ldr	r1, [r4, #40]	; 0x28
  dmaStreamSetTransactionSize(spip->dmatx, n);
  dmaStreamSetMode(spip->dmatx, spip->txdmamode | STM32_DMA_CR_MINC);
 8003e44:	f8d4 e02c 	ldr.w	lr, [r4, #44]	; 0x2c
  dmaStreamSetMemory0(spip->dmatx, txbuf);
 8003e48:	681b      	ldr	r3, [r3, #0]
  dmaStreamSetMemory0(spip->dmarx, rxbuf);
 8003e4a:	f8cc 700c 	str.w	r7, [ip, #12]
  dmaStreamSetMode(spip->dmatx, spip->txdmamode | STM32_DMA_CR_MINC);
 8003e4e:	f44e 6e80 	orr.w	lr, lr, #1024	; 0x400
  dmaStreamSetMode(spip->dmarx, spip->rxdmamode| STM32_DMA_CR_MINC);
 8003e52:	f441 6180 	orr.w	r1, r1, #1024	; 0x400
  dmaStreamSetTransactionSize(spip->dmarx, n);
 8003e56:	f8cc 2004 	str.w	r2, [ip, #4]
  dmaStreamSetMode(spip->dmarx, spip->rxdmamode| STM32_DMA_CR_MINC);
 8003e5a:	f8cc 1000 	str.w	r1, [ip]
  dmaStreamSetMemory0(spip->dmatx, txbuf);
 8003e5e:	f8c3 800c 	str.w	r8, [r3, #12]
  dmaStreamSetTransactionSize(spip->dmatx, n);
 8003e62:	605a      	str	r2, [r3, #4]
  dmaStreamSetMode(spip->dmatx, spip->txdmamode | STM32_DMA_CR_MINC);
 8003e64:	f8c3 e000 	str.w	lr, [r3]

  dmaStreamEnable(spip->dmarx);
 8003e68:	f8dc 2000 	ldr.w	r2, [ip]
  return ch.rlist.current;
 8003e6c:	493c      	ldr	r1, [pc, #240]	; (8003f60 <_ZN5L647023L6470_DaisyChainCommandEPhS0_.constprop.0+0x1e0>)
 8003e6e:	f042 0201 	orr.w	r2, r2, #1
 8003e72:	6989      	ldr	r1, [r1, #24]
 8003e74:	f8cc 2000 	str.w	r2, [ip]
  dmaStreamEnable(spip->dmatx);
 8003e78:	681a      	ldr	r2, [r3, #0]
 8003e7a:	f042 0201 	orr.w	r2, r2, #1
 8003e7e:	601a      	str	r2, [r3, #0]
  tp->u.wttrp = trp;
 8003e80:	4b38      	ldr	r3, [pc, #224]	; (8003f64 <_ZN5L647023L6470_DaisyChainCommandEPhS0_.constprop.0+0x1e4>)
 8003e82:	624b      	str	r3, [r1, #36]	; 0x24
  *trp = tp;
 8003e84:	60a1      	str	r1, [r4, #8]
    chSchGoSleepS(newstate);
 8003e86:	f7ff fbcb 	bl	8003620 <chSchGoSleepS>
 8003e8a:	f385 8811 	msr	BASEPRI, r5
        spiStart(&SPID1, &ls_spicfg);
        spiSelect(&SPID1);            
        spiExchange(&SPID1, NumBytes, pBufferToWrite, pBufferToRead);
        palWriteLine(ssel, PAL_HIGH);
 8003e8e:	f8d9 3010 	ldr.w	r3, [r9, #16]
 8003e92:	2201      	movs	r2, #1
 8003e94:	f003 010f 	and.w	r1, r3, #15
 8003e98:	f023 030f 	bic.w	r3, r3, #15
 8003e9c:	408a      	lsls	r2, r1
 8003e9e:	619a      	str	r2, [r3, #24]
 8003ea0:	f386 8811 	msr	BASEPRI, r6
 8003ea4:	f385 8811 	msr	BASEPRI, r5
 * @api
 */
static inline void osalMutexUnlock(mutex_t *mp) {

#if CH_CFG_USE_MUTEXES
  chMtxUnlock(mp);
 8003ea8:	4650      	mov	r0, sl
 8003eaa:	f7ff feb1 	bl	8003c10 <chMtxUnlock>
 8003eae:	2314      	movs	r3, #20
    for (delay_cnt=0; delay_cnt<20; delay_cnt++) __NOP();   //!<Simply deselect time delay for SPI nCS
 8003eb0:	bf00      	nop
 8003eb2:	3b01      	subs	r3, #1
 8003eb4:	f013 03ff 	ands.w	r3, r3, #255	; 0xff
 8003eb8:	d1fa      	bne.n	8003eb0 <_ZN5L647023L6470_DaisyChainCommandEPhS0_.constprop.0+0x130>
 8003eba:	3702      	adds	r7, #2
  for(spibyte=0; spibyte < L6470MAXSPICMDBYTESIZE; spibyte++)
 8003ebc:	45bb      	cmp	fp, r7
 8003ebe:	f108 0802 	add.w	r8, r8, #2
 8003ec2:	f47f af6d 	bne.w	8003da0 <_ZN5L647023L6470_DaisyChainCommandEPhS0_.constprop.0+0x20>
}
 8003ec6:	b003      	add	sp, #12
 8003ec8:	e8bd 8ff0 	ldmia.w	sp!, {r4, r5, r6, r7, r8, r9, sl, fp, pc}
    spip->rxdmamode &= ~(STM32_DMA_CR_CIRC | STM32_DMA_CR_HTIE);
 8003ecc:	f421 7184 	bic.w	r1, r1, #264	; 0x108
    spip->txdmamode &= ~(STM32_DMA_CR_CIRC | STM32_DMA_CR_HTIE);
 8003ed0:	f422 7284 	bic.w	r2, r2, #264	; 0x108
 8003ed4:	e9c4 120a 	strd	r1, r2, [r4, #40]	; 0x28
 8003ed8:	e794      	b.n	8003e04 <_ZN5L647023L6470_DaisyChainCommandEPhS0_.constprop.0+0x84>
 8003eda:	4923      	ldr	r1, [pc, #140]	; (8003f68 <_ZN5L647023L6470_DaisyChainCommandEPhS0_.constprop.0+0x1e8>)
 8003edc:	2008      	movs	r0, #8
 8003ede:	f7fe fbbf 	bl	8002660 <dmaStreamAllocI.part.0.constprop.0>
 8003ee2:	4922      	ldr	r1, [pc, #136]	; (8003f6c <_ZN5L647023L6470_DaisyChainCommandEPhS0_.constprop.0+0x1ec>)
      spip->dmarx = dmaStreamAllocI(STM32_SPI_SPI1_RX_DMA_STREAM,
 8003ee4:	6220      	str	r0, [r4, #32]
 8003ee6:	200b      	movs	r0, #11
 8003ee8:	f7fe fbba 	bl	8002660 <dmaStreamAllocI.part.0.constprop.0>
      rccEnableSPI1(true);
 8003eec:	4a20      	ldr	r2, [pc, #128]	; (8003f70 <_ZN5L647023L6470_DaisyChainCommandEPhS0_.constprop.0+0x1f0>)
    dmaStreamSetPeripheral(spip->dmarx, &spip->spi->DR);
 8003eee:	6a21      	ldr	r1, [r4, #32]
      rccEnableSPI1(true);
 8003ef0:	6c53      	ldr	r3, [r2, #68]	; 0x44
    dmaStreamSetPeripheral(spip->dmarx, &spip->spi->DR);
 8003ef2:	f8d1 e000 	ldr.w	lr, [r1]
  if ((spip->config->cr1 & SPI_CR1_DFF) == 0) {
 8003ef6:	f8d4 c004 	ldr.w	ip, [r4, #4]
      rccEnableSPI1(true);
 8003efa:	f443 5380 	orr.w	r3, r3, #4096	; 0x1000
 8003efe:	6453      	str	r3, [r2, #68]	; 0x44
 8003f00:	4601      	mov	r1, r0
 8003f02:	6e50      	ldr	r0, [r2, #100]	; 0x64
    dmaStreamSetPeripheral(spip->dmarx, &spip->spi->DR);
 8003f04:	69e3      	ldr	r3, [r4, #28]
      spip->dmatx = dmaStreamAllocI(STM32_SPI_SPI1_TX_DMA_STREAM,
 8003f06:	6261      	str	r1, [r4, #36]	; 0x24
      rccEnableSPI1(true);
 8003f08:	f440 5080 	orr.w	r0, r0, #4096	; 0x1000
    dmaStreamSetPeripheral(spip->dmatx, &spip->spi->DR);
 8003f0c:	6809      	ldr	r1, [r1, #0]
      rccEnableSPI1(true);
 8003f0e:	6650      	str	r0, [r2, #100]	; 0x64
  if ((spip->config->cr1 & SPI_CR1_DFF) == 0) {
 8003f10:	f8bc 0008 	ldrh.w	r0, [ip, #8]
      rccEnableSPI1(true);
 8003f14:	6e52      	ldr	r2, [r2, #100]	; 0x64
    dmaStreamSetPeripheral(spip->dmarx, &spip->spi->DR);
 8003f16:	f103 020c 	add.w	r2, r3, #12
 8003f1a:	f8ce 2008 	str.w	r2, [lr, #8]
    dmaStreamSetPeripheral(spip->dmatx, &spip->spi->DR);
 8003f1e:	608a      	str	r2, [r1, #8]
  if ((spip->config->cr1 & SPI_CR1_DFF) == 0) {
 8003f20:	0502      	lsls	r2, r0, #20
 8003f22:	d50f      	bpl.n	8003f44 <_ZN5L647023L6470_DaisyChainCommandEPhS0_.constprop.0+0x1c4>
    spip->rxdmamode = (spip->rxdmamode & ~STM32_DMA_CR_SIZE_MASK) |
 8003f24:	e9d4 120a 	ldrd	r1, r2, [r4, #40]	; 0x28
 8003f28:	f8bc e00a 	ldrh.w	lr, [ip, #10]
    spip->txdmamode = (spip->txdmamode & ~STM32_DMA_CR_SIZE_MASK) |
 8003f2c:	f422 42f0 	bic.w	r2, r2, #30720	; 0x7800
                      STM32_DMA_CR_PSIZE_HWORD | STM32_DMA_CR_MSIZE_HWORD;
 8003f30:	f442 5220 	orr.w	r2, r2, #10240	; 0x2800
    spip->rxdmamode = (spip->rxdmamode & ~STM32_DMA_CR_SIZE_MASK) |
 8003f34:	f421 41f0 	bic.w	r1, r1, #30720	; 0x7800
    spip->txdmamode = (spip->txdmamode & ~STM32_DMA_CR_SIZE_MASK) |
 8003f38:	62e2      	str	r2, [r4, #44]	; 0x2c
                      STM32_DMA_CR_PSIZE_HWORD | STM32_DMA_CR_MSIZE_HWORD;
 8003f3a:	f441 5120 	orr.w	r1, r1, #10240	; 0x2800
 8003f3e:	f04e 0e07 	orr.w	lr, lr, #7
 8003f42:	e754      	b.n	8003dee <_ZN5L647023L6470_DaisyChainCommandEPhS0_.constprop.0+0x6e>
 8003f44:	f8bc e00a 	ldrh.w	lr, [ip, #10]
 8003f48:	f04e 0e07 	orr.w	lr, lr, #7
 8003f4c:	e747      	b.n	8003dde <_ZN5L647023L6470_DaisyChainCommandEPhS0_.constprop.0+0x5e>
 8003f4e:	bf00      	nop
 8003f50:	20001208 	.word	0x20001208
 8003f54:	200011f8 	.word	0x200011f8
 8003f58:	200011a4 	.word	0x200011a4
 8003f5c:	080062a4 	.word	0x080062a4
 8003f60:	2000128c 	.word	0x2000128c
 8003f64:	200011ac 	.word	0x200011ac
 8003f68:	080034a1 	.word	0x080034a1
 8003f6c:	08003481 	.word	0x08003481
 8003f70:	40023800 	.word	0x40023800
 8003f74:	20001200 	.word	0x20001200
	...

08003f80 <_ZN5L647010release_swE14eL6470_ActId_tN12StepperMotor11direction_tE>:
    virtual void release_sw(eL6470_ActId_t action, direction_t direction)
 8003f80:	b5f8      	push	{r3, r4, r5, r6, r7, lr}
  if(!L6470_DaisyChain_HalfPrepared)
 8003f82:	4d11      	ldr	r5, [pc, #68]	; (8003fc8 <_ZN5L647010release_swE14eL6470_ActId_tN12StepperMotor11direction_tE+0x48>)
    (pL6470_AppCmdPkg+id)->L6470_AppCmdId=(eL6470_AppCmdId_t)0;
 8003f84:	4c11      	ldr	r4, [pc, #68]	; (8003fcc <_ZN5L647010release_swE14eL6470_ActId_tN12StepperMotor11direction_tE+0x4c>)
  if(!L6470_DaisyChain_HalfPrepared)
 8003f86:	782b      	ldrb	r3, [r5, #0]
        L6470_ReleaseSW((eL6470_ActId_t) action, (eL6470_DirId_t) (direction == StepperMotor::FWD ? L6470_DIR_FWD_ID : L6470_DIR_REV_ID));
 8003f88:	f1a2 0201 	sub.w	r2, r2, #1
 8003f8c:	fab2 f282 	clz	r2, r2
 8003f90:	0952      	lsrs	r2, r2, #5
 8003f92:	b94b      	cbnz	r3, 8003fa8 <_ZN5L647010release_swE14eL6470_ActId_tN12StepperMotor11direction_tE+0x28>
    (pL6470_AppCmdPkg+id)->p2=0;
 8003f94:	e9c4 3301 	strd	r3, r3, [r4, #4]
 8003f98:	e9c4 3305 	strd	r3, r3, [r4, #20]
    L6470_DaisyChain_HalfPrepared = ONE_F; /* To avoid to delete the previous entered command */
 8003f9c:	2601      	movs	r6, #1
    (pL6470_AppCmdPkg+id)->L6470_AppCmdId=(eL6470_AppCmdId_t)0;
 8003f9e:	7023      	strb	r3, [r4, #0]
    (pL6470_AppCmdPkg+id)->p3=0;
 8003fa0:	60e3      	str	r3, [r4, #12]
    (pL6470_AppCmdPkg+id)->L6470_AppCmdId=(eL6470_AppCmdId_t)0;
 8003fa2:	7423      	strb	r3, [r4, #16]
    (pL6470_AppCmdPkg+id)->p3=0;
 8003fa4:	61e3      	str	r3, [r4, #28]
    L6470_DaisyChain_HalfPrepared = ONE_F; /* To avoid to delete the previous entered command */
 8003fa6:	702e      	strb	r6, [r5, #0]
  (pL6470_AppCmdPkg+L6470_Id)->L6470_AppCmdId = L6470_AppCmdId;
 8003fa8:	7d43      	ldrb	r3, [r0, #21]
 8003faa:	011e      	lsls	r6, r3, #4
 8003fac:	eb04 1303 	add.w	r3, r4, r3, lsl #4
 8003fb0:	2709      	movs	r7, #9
  (pL6470_AppCmdPkg+L6470_Id)->p3 = p3;
 8003fb2:	2500      	movs	r5, #0
  (pL6470_AppCmdPkg+L6470_Id)->L6470_AppCmdId = L6470_AppCmdId;
 8003fb4:	55a7      	strb	r7, [r4, r6]
  (pL6470_AppCmdPkg+L6470_Id)->p2 = p2;
 8003fb6:	e9c3 1201 	strd	r1, r2, [r3, #4]
  (pL6470_AppCmdPkg+L6470_Id)->p3 = p3;
 8003fba:	60dd      	str	r5, [r3, #12]
  L6470_PrepareDaisyChainCommand(L6470_AppCmdPkg, (uint8_t*)L6470_DaisyChainSpiTxStruct);
 8003fbc:	f7fe fbf8 	bl	80027b0 <_ZN5L647030L6470_PrepareDaisyChainCommandEP18sL6470_AppCmdPkg_tPh.constprop.0>
    }
 8003fc0:	e8bd 40f8 	ldmia.w	sp!, {r3, r4, r5, r6, r7, lr}
  L6470_DaisyChainCommand((uint8_t*)L6470_DaisyChainSpiTxStruct, (uint8_t*)L6470_DaisyChainSpiRxStruct);
 8003fc4:	f7ff bedc 	b.w	8003d80 <_ZN5L647023L6470_DaisyChainCommandEPhS0_.constprop.0>
 8003fc8:	20001208 	.word	0x20001208
 8003fcc:	200011d4 	.word	0x200011d4

08003fd0 <_ZN5L64708hard_hizEv>:
    virtual void hard_hiz(void)
 8003fd0:	b538      	push	{r3, r4, r5, lr}
  if(!L6470_DaisyChain_HalfPrepared)
 8003fd2:	490f      	ldr	r1, [pc, #60]	; (8004010 <_ZN5L64708hard_hizEv+0x40>)
    (pL6470_AppCmdPkg+id)->L6470_AppCmdId=(eL6470_AppCmdId_t)0;
 8003fd4:	4a0f      	ldr	r2, [pc, #60]	; (8004014 <_ZN5L64708hard_hizEv+0x44>)
  if(!L6470_DaisyChain_HalfPrepared)
 8003fd6:	780b      	ldrb	r3, [r1, #0]
 8003fd8:	b94b      	cbnz	r3, 8003fee <_ZN5L64708hard_hizEv+0x1e>
    (pL6470_AppCmdPkg+id)->p2=0;
 8003fda:	e9c2 3301 	strd	r3, r3, [r2, #4]
 8003fde:	e9c2 3305 	strd	r3, r3, [r2, #20]
    L6470_DaisyChain_HalfPrepared = ONE_F; /* To avoid to delete the previous entered command */
 8003fe2:	2401      	movs	r4, #1
    (pL6470_AppCmdPkg+id)->L6470_AppCmdId=(eL6470_AppCmdId_t)0;
 8003fe4:	7013      	strb	r3, [r2, #0]
    (pL6470_AppCmdPkg+id)->p3=0;
 8003fe6:	60d3      	str	r3, [r2, #12]
    (pL6470_AppCmdPkg+id)->L6470_AppCmdId=(eL6470_AppCmdId_t)0;
 8003fe8:	7413      	strb	r3, [r2, #16]
    (pL6470_AppCmdPkg+id)->p3=0;
 8003fea:	61d3      	str	r3, [r2, #28]
    L6470_DaisyChain_HalfPrepared = ONE_F; /* To avoid to delete the previous entered command */
 8003fec:	700c      	strb	r4, [r1, #0]
  (pL6470_AppCmdPkg+L6470_Id)->L6470_AppCmdId = L6470_AppCmdId;
 8003fee:	7d43      	ldrb	r3, [r0, #21]
 8003ff0:	011c      	lsls	r4, r3, #4
 8003ff2:	eb02 1303 	add.w	r3, r2, r3, lsl #4
  (pL6470_AppCmdPkg+L6470_Id)->p1 = p1;
 8003ff6:	2100      	movs	r1, #0
  (pL6470_AppCmdPkg+L6470_Id)->L6470_AppCmdId = L6470_AppCmdId;
 8003ff8:	2511      	movs	r5, #17
 8003ffa:	5515      	strb	r5, [r2, r4]
  (pL6470_AppCmdPkg+L6470_Id)->p2 = p2;
 8003ffc:	e9c3 1101 	strd	r1, r1, [r3, #4]
  (pL6470_AppCmdPkg+L6470_Id)->p3 = p3;
 8004000:	60d9      	str	r1, [r3, #12]
  L6470_PrepareDaisyChainCommand(L6470_AppCmdPkg, (uint8_t*)L6470_DaisyChainSpiTxStruct);
 8004002:	f7fe fbd5 	bl	80027b0 <_ZN5L647030L6470_PrepareDaisyChainCommandEP18sL6470_AppCmdPkg_tPh.constprop.0>
    }
 8004006:	e8bd 4038 	ldmia.w	sp!, {r3, r4, r5, lr}
  L6470_DaisyChainCommand((uint8_t*)L6470_DaisyChainSpiTxStruct, (uint8_t*)L6470_DaisyChainSpiRxStruct);
 800400a:	f7ff beb9 	b.w	8003d80 <_ZN5L647023L6470_DaisyChainCommandEPhS0_.constprop.0>
 800400e:	bf00      	nop
 8004010:	20001208 	.word	0x20001208
 8004014:	200011d4 	.word	0x200011d4
	...

08004020 <_ZN5L64709hard_stopEv>:
    virtual void hard_stop(void)
 8004020:	b538      	push	{r3, r4, r5, lr}
  if(!L6470_DaisyChain_HalfPrepared)
 8004022:	490f      	ldr	r1, [pc, #60]	; (8004060 <_ZN5L64709hard_stopEv+0x40>)
    (pL6470_AppCmdPkg+id)->L6470_AppCmdId=(eL6470_AppCmdId_t)0;
 8004024:	4a0f      	ldr	r2, [pc, #60]	; (8004064 <_ZN5L64709hard_stopEv+0x44>)
  if(!L6470_DaisyChain_HalfPrepared)
 8004026:	780b      	ldrb	r3, [r1, #0]
 8004028:	b94b      	cbnz	r3, 800403e <_ZN5L64709hard_stopEv+0x1e>
    (pL6470_AppCmdPkg+id)->p2=0;
 800402a:	e9c2 3301 	strd	r3, r3, [r2, #4]
 800402e:	e9c2 3305 	strd	r3, r3, [r2, #20]
    L6470_DaisyChain_HalfPrepared = ONE_F; /* To avoid to delete the previous entered command */
 8004032:	2401      	movs	r4, #1
    (pL6470_AppCmdPkg+id)->L6470_AppCmdId=(eL6470_AppCmdId_t)0;
 8004034:	7013      	strb	r3, [r2, #0]
    (pL6470_AppCmdPkg+id)->p3=0;
 8004036:	60d3      	str	r3, [r2, #12]
    (pL6470_AppCmdPkg+id)->L6470_AppCmdId=(eL6470_AppCmdId_t)0;
 8004038:	7413      	strb	r3, [r2, #16]
    (pL6470_AppCmdPkg+id)->p3=0;
 800403a:	61d3      	str	r3, [r2, #28]
    L6470_DaisyChain_HalfPrepared = ONE_F; /* To avoid to delete the previous entered command */
 800403c:	700c      	strb	r4, [r1, #0]
  (pL6470_AppCmdPkg+L6470_Id)->L6470_AppCmdId = L6470_AppCmdId;
 800403e:	7d43      	ldrb	r3, [r0, #21]
 8004040:	011c      	lsls	r4, r3, #4
 8004042:	eb02 1303 	add.w	r3, r2, r3, lsl #4
  (pL6470_AppCmdPkg+L6470_Id)->p1 = p1;
 8004046:	2100      	movs	r1, #0
  (pL6470_AppCmdPkg+L6470_Id)->L6470_AppCmdId = L6470_AppCmdId;
 8004048:	250f      	movs	r5, #15
 800404a:	5515      	strb	r5, [r2, r4]
  (pL6470_AppCmdPkg+L6470_Id)->p2 = p2;
 800404c:	e9c3 1101 	strd	r1, r1, [r3, #4]
  (pL6470_AppCmdPkg+L6470_Id)->p3 = p3;
 8004050:	60d9      	str	r1, [r3, #12]
  L6470_PrepareDaisyChainCommand(L6470_AppCmdPkg, (uint8_t*)L6470_DaisyChainSpiTxStruct);
 8004052:	f7fe fbad 	bl	80027b0 <_ZN5L647030L6470_PrepareDaisyChainCommandEP18sL6470_AppCmdPkg_tPh.constprop.0>
    }
 8004056:	e8bd 4038 	ldmia.w	sp!, {r3, r4, r5, lr}
  L6470_DaisyChainCommand((uint8_t*)L6470_DaisyChainSpiTxStruct, (uint8_t*)L6470_DaisyChainSpiRxStruct);
 800405a:	f7ff be91 	b.w	8003d80 <_ZN5L647023L6470_DaisyChainCommandEPhS0_.constprop.0>
 800405e:	bf00      	nop
 8004060:	20001208 	.word	0x20001208
 8004064:	200011d4 	.word	0x200011d4
	...

08004070 <_ZN5L64709soft_stopEv>:
    virtual void soft_stop(void)
 8004070:	b538      	push	{r3, r4, r5, lr}
  if(!L6470_DaisyChain_HalfPrepared)
 8004072:	490f      	ldr	r1, [pc, #60]	; (80040b0 <_ZN5L64709soft_stopEv+0x40>)
    (pL6470_AppCmdPkg+id)->L6470_AppCmdId=(eL6470_AppCmdId_t)0;
 8004074:	4a0f      	ldr	r2, [pc, #60]	; (80040b4 <_ZN5L64709soft_stopEv+0x44>)
  if(!L6470_DaisyChain_HalfPrepared)
 8004076:	780b      	ldrb	r3, [r1, #0]
 8004078:	b94b      	cbnz	r3, 800408e <_ZN5L64709soft_stopEv+0x1e>
    (pL6470_AppCmdPkg+id)->p2=0;
 800407a:	e9c2 3301 	strd	r3, r3, [r2, #4]
 800407e:	e9c2 3305 	strd	r3, r3, [r2, #20]
    L6470_DaisyChain_HalfPrepared = ONE_F; /* To avoid to delete the previous entered command */
 8004082:	2401      	movs	r4, #1
    (pL6470_AppCmdPkg+id)->L6470_AppCmdId=(eL6470_AppCmdId_t)0;
 8004084:	7013      	strb	r3, [r2, #0]
    (pL6470_AppCmdPkg+id)->p3=0;
 8004086:	60d3      	str	r3, [r2, #12]
    (pL6470_AppCmdPkg+id)->L6470_AppCmdId=(eL6470_AppCmdId_t)0;
 8004088:	7413      	strb	r3, [r2, #16]
    (pL6470_AppCmdPkg+id)->p3=0;
 800408a:	61d3      	str	r3, [r2, #28]
    L6470_DaisyChain_HalfPrepared = ONE_F; /* To avoid to delete the previous entered command */
 800408c:	700c      	strb	r4, [r1, #0]
  (pL6470_AppCmdPkg+L6470_Id)->L6470_AppCmdId = L6470_AppCmdId;
 800408e:	7d43      	ldrb	r3, [r0, #21]
 8004090:	011c      	lsls	r4, r3, #4
 8004092:	eb02 1303 	add.w	r3, r2, r3, lsl #4
  (pL6470_AppCmdPkg+L6470_Id)->p1 = p1;
 8004096:	2100      	movs	r1, #0
  (pL6470_AppCmdPkg+L6470_Id)->L6470_AppCmdId = L6470_AppCmdId;
 8004098:	250e      	movs	r5, #14
 800409a:	5515      	strb	r5, [r2, r4]
  (pL6470_AppCmdPkg+L6470_Id)->p2 = p2;
 800409c:	e9c3 1101 	strd	r1, r1, [r3, #4]
  (pL6470_AppCmdPkg+L6470_Id)->p3 = p3;
 80040a0:	60d9      	str	r1, [r3, #12]
  L6470_PrepareDaisyChainCommand(L6470_AppCmdPkg, (uint8_t*)L6470_DaisyChainSpiTxStruct);
 80040a2:	f7fe fb85 	bl	80027b0 <_ZN5L647030L6470_PrepareDaisyChainCommandEP18sL6470_AppCmdPkg_tPh.constprop.0>
    }
 80040a6:	e8bd 4038 	ldmia.w	sp!, {r3, r4, r5, lr}
  L6470_DaisyChainCommand((uint8_t*)L6470_DaisyChainSpiTxStruct, (uint8_t*)L6470_DaisyChainSpiRxStruct);
 80040aa:	f7ff be69 	b.w	8003d80 <_ZN5L647023L6470_DaisyChainCommandEPhS0_.constprop.0>
 80040ae:	bf00      	nop
 80040b0:	20001208 	.word	0x20001208
 80040b4:	200011d4 	.word	0x200011d4
	...

080040c0 <_ZN5L64704moveEN12StepperMotor11direction_tEj>:
    virtual void move(direction_t direction, unsigned int steps)
 80040c0:	b5f8      	push	{r3, r4, r5, r6, r7, lr}
  if(!L6470_DaisyChain_HalfPrepared)
 80040c2:	4d11      	ldr	r5, [pc, #68]	; (8004108 <_ZN5L64704moveEN12StepperMotor11direction_tEj+0x48>)
    (pL6470_AppCmdPkg+id)->L6470_AppCmdId=(eL6470_AppCmdId_t)0;
 80040c4:	4c11      	ldr	r4, [pc, #68]	; (800410c <_ZN5L64704moveEN12StepperMotor11direction_tEj+0x4c>)
  if(!L6470_DaisyChain_HalfPrepared)
 80040c6:	782b      	ldrb	r3, [r5, #0]
        L6470_Move((eL6470_DirId_t) (direction == StepperMotor::FWD ? L6470_DIR_FWD_ID : L6470_DIR_REV_ID), (unsigned int) steps);
 80040c8:	f1a1 0101 	sub.w	r1, r1, #1
 80040cc:	fab1 f181 	clz	r1, r1
 80040d0:	0949      	lsrs	r1, r1, #5
 80040d2:	b94b      	cbnz	r3, 80040e8 <_ZN5L64704moveEN12StepperMotor11direction_tEj+0x28>
    (pL6470_AppCmdPkg+id)->p2=0;
 80040d4:	e9c4 3301 	strd	r3, r3, [r4, #4]
 80040d8:	e9c4 3305 	strd	r3, r3, [r4, #20]
    L6470_DaisyChain_HalfPrepared = ONE_F; /* To avoid to delete the previous entered command */
 80040dc:	2601      	movs	r6, #1
    (pL6470_AppCmdPkg+id)->L6470_AppCmdId=(eL6470_AppCmdId_t)0;
 80040de:	7023      	strb	r3, [r4, #0]
    (pL6470_AppCmdPkg+id)->p3=0;
 80040e0:	60e3      	str	r3, [r4, #12]
    (pL6470_AppCmdPkg+id)->L6470_AppCmdId=(eL6470_AppCmdId_t)0;
 80040e2:	7423      	strb	r3, [r4, #16]
    (pL6470_AppCmdPkg+id)->p3=0;
 80040e4:	61e3      	str	r3, [r4, #28]
    L6470_DaisyChain_HalfPrepared = ONE_F; /* To avoid to delete the previous entered command */
 80040e6:	702e      	strb	r6, [r5, #0]
  (pL6470_AppCmdPkg+L6470_Id)->L6470_AppCmdId = L6470_AppCmdId;
 80040e8:	7d43      	ldrb	r3, [r0, #21]
 80040ea:	011e      	lsls	r6, r3, #4
 80040ec:	eb04 1303 	add.w	r3, r4, r3, lsl #4
 80040f0:	2705      	movs	r7, #5
  (pL6470_AppCmdPkg+L6470_Id)->p3 = p3;
 80040f2:	2500      	movs	r5, #0
  (pL6470_AppCmdPkg+L6470_Id)->L6470_AppCmdId = L6470_AppCmdId;
 80040f4:	55a7      	strb	r7, [r4, r6]
  (pL6470_AppCmdPkg+L6470_Id)->p2 = p2;
 80040f6:	e9c3 1201 	strd	r1, r2, [r3, #4]
  (pL6470_AppCmdPkg+L6470_Id)->p3 = p3;
 80040fa:	60dd      	str	r5, [r3, #12]
  L6470_PrepareDaisyChainCommand(L6470_AppCmdPkg, (uint8_t*)L6470_DaisyChainSpiTxStruct);
 80040fc:	f7fe fb58 	bl	80027b0 <_ZN5L647030L6470_PrepareDaisyChainCommandEP18sL6470_AppCmdPkg_tPh.constprop.0>
    }
 8004100:	e8bd 40f8 	ldmia.w	sp!, {r3, r4, r5, r6, r7, lr}
  L6470_DaisyChainCommand((uint8_t*)L6470_DaisyChainSpiTxStruct, (uint8_t*)L6470_DaisyChainSpiRxStruct);
 8004104:	f7ff be3c 	b.w	8003d80 <_ZN5L647023L6470_DaisyChainCommandEPhS0_.constprop.0>
 8004108:	20001208 	.word	0x20001208
 800410c:	200011d4 	.word	0x200011d4

08004110 <_ZN5L64708go_untilE14eL6470_ActId_tN12StepperMotor11direction_tEj>:
    virtual void go_until(eL6470_ActId_t action, direction_t direction, unsigned int speed)
 8004110:	b5f8      	push	{r3, r4, r5, r6, r7, lr}
 8004112:	4607      	mov	r7, r0
        L6470_GoUntil((eL6470_ActId_t) action, (eL6470_DirId_t) (direction == StepperMotor::FWD ? L6470_DIR_FWD_ID : L6470_DIR_REV_ID), (unsigned int) L6470_Step_s_2_Speed((float) speed));
 8004114:	4618      	mov	r0, r3
    virtual void go_until(eL6470_ActId_t action, direction_t direction, unsigned int speed)
 8004116:	460e      	mov	r6, r1
        L6470_GoUntil((eL6470_ActId_t) action, (eL6470_DirId_t) (direction == StepperMotor::FWD ? L6470_DIR_FWD_ID : L6470_DIR_REV_ID), (unsigned int) L6470_Step_s_2_Speed((float) speed));
 8004118:	f1a2 0501 	sub.w	r5, r2, #1
 800411c:	f7fc f99c 	bl	8000458 <__aeabi_ui2f>
 8004120:	fab5 f585 	clz	r5, r5
  if (Step_s <= (L6470_MAX_SPEED * ((float)14.9012e-3)))
 8004124:	4917      	ldr	r1, [pc, #92]	; (8004184 <_ZN5L64708go_untilE14eL6470_ActId_tN12StepperMotor11direction_tEj+0x74>)
 8004126:	096d      	lsrs	r5, r5, #5
 8004128:	4604      	mov	r4, r0
 800412a:	f7fc fb95 	bl	8000858 <__aeabi_fcmple>
 800412e:	b330      	cbz	r0, 800417e <_ZN5L64708go_untilE14eL6470_ActId_tN12StepperMotor11direction_tEj+0x6e>
    return (uint32_t)(Step_s / ((float)14.9012e-3));
 8004130:	4915      	ldr	r1, [pc, #84]	; (8004188 <_ZN5L64708go_untilE14eL6470_ActId_tN12StepperMotor11direction_tEj+0x78>)
 8004132:	4620      	mov	r0, r4
 8004134:	f7fc fa9c 	bl	8000670 <__aeabi_fdiv>
 8004138:	f7fc fbd2 	bl	80008e0 <__aeabi_f2uiz>
 800413c:	4603      	mov	r3, r0
  if(!L6470_DaisyChain_HalfPrepared)
 800413e:	4813      	ldr	r0, [pc, #76]	; (800418c <_ZN5L64708go_untilE14eL6470_ActId_tN12StepperMotor11direction_tEj+0x7c>)
    (pL6470_AppCmdPkg+id)->L6470_AppCmdId=(eL6470_AppCmdId_t)0;
 8004140:	4a13      	ldr	r2, [pc, #76]	; (8004190 <_ZN5L64708go_untilE14eL6470_ActId_tN12StepperMotor11direction_tEj+0x80>)
  if(!L6470_DaisyChain_HalfPrepared)
 8004142:	7801      	ldrb	r1, [r0, #0]
 8004144:	b949      	cbnz	r1, 800415a <_ZN5L64708go_untilE14eL6470_ActId_tN12StepperMotor11direction_tEj+0x4a>
    (pL6470_AppCmdPkg+id)->p2=0;
 8004146:	e9c2 1101 	strd	r1, r1, [r2, #4]
 800414a:	e9c2 1105 	strd	r1, r1, [r2, #20]
    L6470_DaisyChain_HalfPrepared = ONE_F; /* To avoid to delete the previous entered command */
 800414e:	2401      	movs	r4, #1
    (pL6470_AppCmdPkg+id)->L6470_AppCmdId=(eL6470_AppCmdId_t)0;
 8004150:	7011      	strb	r1, [r2, #0]
    (pL6470_AppCmdPkg+id)->p3=0;
 8004152:	60d1      	str	r1, [r2, #12]
    (pL6470_AppCmdPkg+id)->L6470_AppCmdId=(eL6470_AppCmdId_t)0;
 8004154:	7411      	strb	r1, [r2, #16]
    (pL6470_AppCmdPkg+id)->p3=0;
 8004156:	61d1      	str	r1, [r2, #28]
    L6470_DaisyChain_HalfPrepared = ONE_F; /* To avoid to delete the previous entered command */
 8004158:	7004      	strb	r4, [r0, #0]
  (pL6470_AppCmdPkg+L6470_Id)->L6470_AppCmdId = L6470_AppCmdId;
 800415a:	7d7c      	ldrb	r4, [r7, #21]
 800415c:	0121      	lsls	r1, r4, #4
 800415e:	eb02 1404 	add.w	r4, r2, r4, lsl #4
 8004162:	f04f 0c08 	mov.w	ip, #8
 8004166:	f802 c001 	strb.w	ip, [r2, r1]
  L6470_PrepareDaisyChainCommand(L6470_AppCmdPkg, (uint8_t*)L6470_DaisyChainSpiTxStruct);
 800416a:	4638      	mov	r0, r7
  (pL6470_AppCmdPkg+L6470_Id)->p2 = p2;
 800416c:	e9c4 6501 	strd	r6, r5, [r4, #4]
  (pL6470_AppCmdPkg+L6470_Id)->p3 = p3;
 8004170:	60e3      	str	r3, [r4, #12]
  L6470_PrepareDaisyChainCommand(L6470_AppCmdPkg, (uint8_t*)L6470_DaisyChainSpiTxStruct);
 8004172:	f7fe fb1d 	bl	80027b0 <_ZN5L647030L6470_PrepareDaisyChainCommandEP18sL6470_AppCmdPkg_tPh.constprop.0>
    }
 8004176:	e8bd 40f8 	ldmia.w	sp!, {r3, r4, r5, r6, r7, lr}
  L6470_DaisyChainCommand((uint8_t*)L6470_DaisyChainSpiTxStruct, (uint8_t*)L6470_DaisyChainSpiRxStruct);
 800417a:	f7ff be01 	b.w	8003d80 <_ZN5L647023L6470_DaisyChainCommandEPhS0_.constprop.0>
    return 0;   // Warning
 800417e:	4603      	mov	r3, r0
 8004180:	e7dd      	b.n	800413e <_ZN5L64708go_untilE14eL6470_ActId_tN12StepperMotor11direction_tEj+0x2e>
 8004182:	bf00      	nop
 8004184:	4674241b 	.word	0x4674241b
 8004188:	3c74242a 	.word	0x3c74242a
 800418c:	20001208 	.word	0x20001208
 8004190:	200011d4 	.word	0x200011d4
	...

080041a0 <_ZN5L64707go_markEv>:
    virtual void go_mark(void)
 80041a0:	b538      	push	{r3, r4, r5, lr}
  if(!L6470_DaisyChain_HalfPrepared)
 80041a2:	490f      	ldr	r1, [pc, #60]	; (80041e0 <_ZN5L64707go_markEv+0x40>)
    (pL6470_AppCmdPkg+id)->L6470_AppCmdId=(eL6470_AppCmdId_t)0;
 80041a4:	4a0f      	ldr	r2, [pc, #60]	; (80041e4 <_ZN5L64707go_markEv+0x44>)
  if(!L6470_DaisyChain_HalfPrepared)
 80041a6:	780b      	ldrb	r3, [r1, #0]
 80041a8:	b94b      	cbnz	r3, 80041be <_ZN5L64707go_markEv+0x1e>
    (pL6470_AppCmdPkg+id)->p2=0;
 80041aa:	e9c2 3301 	strd	r3, r3, [r2, #4]
 80041ae:	e9c2 3305 	strd	r3, r3, [r2, #20]
    L6470_DaisyChain_HalfPrepared = ONE_F; /* To avoid to delete the previous entered command */
 80041b2:	2401      	movs	r4, #1
    (pL6470_AppCmdPkg+id)->L6470_AppCmdId=(eL6470_AppCmdId_t)0;
 80041b4:	7013      	strb	r3, [r2, #0]
    (pL6470_AppCmdPkg+id)->p3=0;
 80041b6:	60d3      	str	r3, [r2, #12]
    (pL6470_AppCmdPkg+id)->L6470_AppCmdId=(eL6470_AppCmdId_t)0;
 80041b8:	7413      	strb	r3, [r2, #16]
    (pL6470_AppCmdPkg+id)->p3=0;
 80041ba:	61d3      	str	r3, [r2, #28]
    L6470_DaisyChain_HalfPrepared = ONE_F; /* To avoid to delete the previous entered command */
 80041bc:	700c      	strb	r4, [r1, #0]
  (pL6470_AppCmdPkg+L6470_Id)->L6470_AppCmdId = L6470_AppCmdId;
 80041be:	7d43      	ldrb	r3, [r0, #21]
 80041c0:	011c      	lsls	r4, r3, #4
 80041c2:	eb02 1303 	add.w	r3, r2, r3, lsl #4
  (pL6470_AppCmdPkg+L6470_Id)->p1 = p1;
 80041c6:	2100      	movs	r1, #0
  (pL6470_AppCmdPkg+L6470_Id)->L6470_AppCmdId = L6470_AppCmdId;
 80041c8:	250b      	movs	r5, #11
 80041ca:	5515      	strb	r5, [r2, r4]
  (pL6470_AppCmdPkg+L6470_Id)->p2 = p2;
 80041cc:	e9c3 1101 	strd	r1, r1, [r3, #4]
  (pL6470_AppCmdPkg+L6470_Id)->p3 = p3;
 80041d0:	60d9      	str	r1, [r3, #12]
  L6470_PrepareDaisyChainCommand(L6470_AppCmdPkg, (uint8_t*)L6470_DaisyChainSpiTxStruct);
 80041d2:	f7fe faed 	bl	80027b0 <_ZN5L647030L6470_PrepareDaisyChainCommandEP18sL6470_AppCmdPkg_tPh.constprop.0>
    }
 80041d6:	e8bd 4038 	ldmia.w	sp!, {r3, r4, r5, lr}
  L6470_DaisyChainCommand((uint8_t*)L6470_DaisyChainSpiTxStruct, (uint8_t*)L6470_DaisyChainSpiRxStruct);
 80041da:	f7ff bdd1 	b.w	8003d80 <_ZN5L647023L6470_DaisyChainCommandEPhS0_.constprop.0>
 80041de:	bf00      	nop
 80041e0:	20001208 	.word	0x20001208
 80041e4:	200011d4 	.word	0x200011d4
	...

080041f0 <_ZN5L64707go_homeEv>:
    virtual void go_home(void)
 80041f0:	b538      	push	{r3, r4, r5, lr}
  if(!L6470_DaisyChain_HalfPrepared)
 80041f2:	490f      	ldr	r1, [pc, #60]	; (8004230 <_ZN5L64707go_homeEv+0x40>)
    (pL6470_AppCmdPkg+id)->L6470_AppCmdId=(eL6470_AppCmdId_t)0;
 80041f4:	4a0f      	ldr	r2, [pc, #60]	; (8004234 <_ZN5L64707go_homeEv+0x44>)
  if(!L6470_DaisyChain_HalfPrepared)
 80041f6:	780b      	ldrb	r3, [r1, #0]
 80041f8:	b94b      	cbnz	r3, 800420e <_ZN5L64707go_homeEv+0x1e>
    (pL6470_AppCmdPkg+id)->p2=0;
 80041fa:	e9c2 3301 	strd	r3, r3, [r2, #4]
 80041fe:	e9c2 3305 	strd	r3, r3, [r2, #20]
    L6470_DaisyChain_HalfPrepared = ONE_F; /* To avoid to delete the previous entered command */
 8004202:	2401      	movs	r4, #1
    (pL6470_AppCmdPkg+id)->L6470_AppCmdId=(eL6470_AppCmdId_t)0;
 8004204:	7013      	strb	r3, [r2, #0]
    (pL6470_AppCmdPkg+id)->p3=0;
 8004206:	60d3      	str	r3, [r2, #12]
    (pL6470_AppCmdPkg+id)->L6470_AppCmdId=(eL6470_AppCmdId_t)0;
 8004208:	7413      	strb	r3, [r2, #16]
    (pL6470_AppCmdPkg+id)->p3=0;
 800420a:	61d3      	str	r3, [r2, #28]
    L6470_DaisyChain_HalfPrepared = ONE_F; /* To avoid to delete the previous entered command */
 800420c:	700c      	strb	r4, [r1, #0]
  (pL6470_AppCmdPkg+L6470_Id)->L6470_AppCmdId = L6470_AppCmdId;
 800420e:	7d43      	ldrb	r3, [r0, #21]
 8004210:	011c      	lsls	r4, r3, #4
 8004212:	eb02 1303 	add.w	r3, r2, r3, lsl #4
  (pL6470_AppCmdPkg+L6470_Id)->p1 = p1;
 8004216:	2100      	movs	r1, #0
  (pL6470_AppCmdPkg+L6470_Id)->L6470_AppCmdId = L6470_AppCmdId;
 8004218:	250a      	movs	r5, #10
 800421a:	5515      	strb	r5, [r2, r4]
  (pL6470_AppCmdPkg+L6470_Id)->p2 = p2;
 800421c:	e9c3 1101 	strd	r1, r1, [r3, #4]
  (pL6470_AppCmdPkg+L6470_Id)->p3 = p3;
 8004220:	60d9      	str	r1, [r3, #12]
  L6470_PrepareDaisyChainCommand(L6470_AppCmdPkg, (uint8_t*)L6470_DaisyChainSpiTxStruct);
 8004222:	f7fe fac5 	bl	80027b0 <_ZN5L647030L6470_PrepareDaisyChainCommandEP18sL6470_AppCmdPkg_tPh.constprop.0>
    }
 8004226:	e8bd 4038 	ldmia.w	sp!, {r3, r4, r5, lr}
  L6470_DaisyChainCommand((uint8_t*)L6470_DaisyChainSpiTxStruct, (uint8_t*)L6470_DaisyChainSpiRxStruct);
 800422a:	f7ff bda9 	b.w	8003d80 <_ZN5L647023L6470_DaisyChainCommandEPhS0_.constprop.0>
 800422e:	bf00      	nop
 8004230:	20001208 	.word	0x20001208
 8004234:	200011d4 	.word	0x200011d4
	...

08004240 <_ZN5L64705go_toEiN12StepperMotor11direction_tE>:
    virtual void go_to(signed int position, direction_t direction)
 8004240:	b5f8      	push	{r3, r4, r5, r6, r7, lr}
 8004242:	4604      	mov	r4, r0
        L6470_GoToDir((eL6470_DirId_t) (direction == StepperMotor::FWD ? L6470_DIR_FWD_ID : L6470_DIR_REV_ID), (uint32_t) L6470_Position_2_AbsPos((int32_t) position));
 8004244:	4608      	mov	r0, r1
 8004246:	f7fe fb5b 	bl	8002900 <_ZN5L647023L6470_Position_2_AbsPosEl.constprop.0>
  if (AbsPos <= L6470_POSITION_RANGE)
 800424a:	f5b0 0f80 	cmp.w	r0, #4194304	; 0x400000
 800424e:	d224      	bcs.n	800429a <_ZN5L64705go_toEiN12StepperMotor11direction_tE+0x5a>
  if(!L6470_DaisyChain_HalfPrepared)
 8004250:	4d12      	ldr	r5, [pc, #72]	; (800429c <_ZN5L64705go_toEiN12StepperMotor11direction_tE+0x5c>)
 8004252:	f1a2 0201 	sub.w	r2, r2, #1
 8004256:	7829      	ldrb	r1, [r5, #0]
 8004258:	fab2 f282 	clz	r2, r2
 800425c:	4603      	mov	r3, r0
 800425e:	0952      	lsrs	r2, r2, #5
    (pL6470_AppCmdPkg+id)->L6470_AppCmdId=(eL6470_AppCmdId_t)0;
 8004260:	480f      	ldr	r0, [pc, #60]	; (80042a0 <_ZN5L64705go_toEiN12StepperMotor11direction_tE+0x60>)
  if(!L6470_DaisyChain_HalfPrepared)
 8004262:	b949      	cbnz	r1, 8004278 <_ZN5L64705go_toEiN12StepperMotor11direction_tE+0x38>
    (pL6470_AppCmdPkg+id)->p2=0;
 8004264:	e9c0 1101 	strd	r1, r1, [r0, #4]
 8004268:	e9c0 1105 	strd	r1, r1, [r0, #20]
    L6470_DaisyChain_HalfPrepared = ONE_F; /* To avoid to delete the previous entered command */
 800426c:	2601      	movs	r6, #1
    (pL6470_AppCmdPkg+id)->L6470_AppCmdId=(eL6470_AppCmdId_t)0;
 800426e:	7001      	strb	r1, [r0, #0]
    (pL6470_AppCmdPkg+id)->p3=0;
 8004270:	60c1      	str	r1, [r0, #12]
    (pL6470_AppCmdPkg+id)->L6470_AppCmdId=(eL6470_AppCmdId_t)0;
 8004272:	7401      	strb	r1, [r0, #16]
    (pL6470_AppCmdPkg+id)->p3=0;
 8004274:	61c1      	str	r1, [r0, #28]
    L6470_DaisyChain_HalfPrepared = ONE_F; /* To avoid to delete the previous entered command */
 8004276:	702e      	strb	r6, [r5, #0]
  (pL6470_AppCmdPkg+L6470_Id)->L6470_AppCmdId = L6470_AppCmdId;
 8004278:	7d61      	ldrb	r1, [r4, #21]
 800427a:	010e      	lsls	r6, r1, #4
 800427c:	eb00 1101 	add.w	r1, r0, r1, lsl #4
 8004280:	2707      	movs	r7, #7
  (pL6470_AppCmdPkg+L6470_Id)->p3 = p3;
 8004282:	2500      	movs	r5, #0
  (pL6470_AppCmdPkg+L6470_Id)->L6470_AppCmdId = L6470_AppCmdId;
 8004284:	5587      	strb	r7, [r0, r6]
  (pL6470_AppCmdPkg+L6470_Id)->p2 = p2;
 8004286:	e9c1 2301 	strd	r2, r3, [r1, #4]
    L6470_PrepareDaisyChainCommand(L6470_AppCmdPkg, (uint8_t*)L6470_DaisyChainSpiTxStruct);
 800428a:	4620      	mov	r0, r4
  (pL6470_AppCmdPkg+L6470_Id)->p3 = p3;
 800428c:	60cd      	str	r5, [r1, #12]
    L6470_PrepareDaisyChainCommand(L6470_AppCmdPkg, (uint8_t*)L6470_DaisyChainSpiTxStruct);
 800428e:	f7fe fa8f 	bl	80027b0 <_ZN5L647030L6470_PrepareDaisyChainCommandEP18sL6470_AppCmdPkg_tPh.constprop.0>
    }
 8004292:	e8bd 40f8 	ldmia.w	sp!, {r3, r4, r5, r6, r7, lr}
    L6470_DaisyChainCommand((uint8_t*)L6470_DaisyChainSpiTxStruct, (uint8_t*)L6470_DaisyChainSpiRxStruct);
 8004296:	f7ff bd73 	b.w	8003d80 <_ZN5L647023L6470_DaisyChainCommandEPhS0_.constprop.0>
 800429a:	bdf8      	pop	{r3, r4, r5, r6, r7, pc}
 800429c:	20001208 	.word	0x20001208
 80042a0:	200011d4 	.word	0x200011d4
	...

080042b0 <_ZN5L64705go_toEi>:
    virtual void go_to(signed int position)
 80042b0:	b570      	push	{r4, r5, r6, lr}
 80042b2:	4604      	mov	r4, r0
        L6470_GoTo((uint32_t) L6470_Position_2_AbsPos((int32_t) position));
 80042b4:	4608      	mov	r0, r1
 80042b6:	f7fe fb23 	bl	8002900 <_ZN5L647023L6470_Position_2_AbsPosEl.constprop.0>
  if (AbsPos <= L6470_POSITION_RANGE)
 80042ba:	f5b0 0f80 	cmp.w	r0, #4194304	; 0x400000
 80042be:	d21f      	bcs.n	8004300 <_ZN5L64705go_toEi+0x50>
 80042c0:	4603      	mov	r3, r0
  if(!L6470_DaisyChain_HalfPrepared)
 80042c2:	4810      	ldr	r0, [pc, #64]	; (8004304 <_ZN5L64705go_toEi+0x54>)
    (pL6470_AppCmdPkg+id)->L6470_AppCmdId=(eL6470_AppCmdId_t)0;
 80042c4:	4910      	ldr	r1, [pc, #64]	; (8004308 <_ZN5L64705go_toEi+0x58>)
  if(!L6470_DaisyChain_HalfPrepared)
 80042c6:	7802      	ldrb	r2, [r0, #0]
 80042c8:	b94a      	cbnz	r2, 80042de <_ZN5L64705go_toEi+0x2e>
    (pL6470_AppCmdPkg+id)->p2=0;
 80042ca:	e9c1 2201 	strd	r2, r2, [r1, #4]
 80042ce:	e9c1 2205 	strd	r2, r2, [r1, #20]
    L6470_DaisyChain_HalfPrepared = ONE_F; /* To avoid to delete the previous entered command */
 80042d2:	2501      	movs	r5, #1
    (pL6470_AppCmdPkg+id)->L6470_AppCmdId=(eL6470_AppCmdId_t)0;
 80042d4:	700a      	strb	r2, [r1, #0]
    (pL6470_AppCmdPkg+id)->p3=0;
 80042d6:	60ca      	str	r2, [r1, #12]
    (pL6470_AppCmdPkg+id)->L6470_AppCmdId=(eL6470_AppCmdId_t)0;
 80042d8:	740a      	strb	r2, [r1, #16]
    (pL6470_AppCmdPkg+id)->p3=0;
 80042da:	61ca      	str	r2, [r1, #28]
    L6470_DaisyChain_HalfPrepared = ONE_F; /* To avoid to delete the previous entered command */
 80042dc:	7005      	strb	r5, [r0, #0]
  (pL6470_AppCmdPkg+L6470_Id)->L6470_AppCmdId = L6470_AppCmdId;
 80042de:	7d62      	ldrb	r2, [r4, #21]
 80042e0:	0110      	lsls	r0, r2, #4
 80042e2:	eb01 1202 	add.w	r2, r1, r2, lsl #4
  (pL6470_AppCmdPkg+L6470_Id)->p2 = p2;
 80042e6:	2500      	movs	r5, #0
  (pL6470_AppCmdPkg+L6470_Id)->L6470_AppCmdId = L6470_AppCmdId;
 80042e8:	2606      	movs	r6, #6
 80042ea:	540e      	strb	r6, [r1, r0]
  (pL6470_AppCmdPkg+L6470_Id)->p2 = p2;
 80042ec:	e9c2 3501 	strd	r3, r5, [r2, #4]
    L6470_PrepareDaisyChainCommand(L6470_AppCmdPkg, (uint8_t*)L6470_DaisyChainSpiTxStruct);
 80042f0:	4620      	mov	r0, r4
  (pL6470_AppCmdPkg+L6470_Id)->p3 = p3;
 80042f2:	60d5      	str	r5, [r2, #12]
    L6470_PrepareDaisyChainCommand(L6470_AppCmdPkg, (uint8_t*)L6470_DaisyChainSpiTxStruct);
 80042f4:	f7fe fa5c 	bl	80027b0 <_ZN5L647030L6470_PrepareDaisyChainCommandEP18sL6470_AppCmdPkg_tPh.constprop.0>
    }
 80042f8:	e8bd 4070 	ldmia.w	sp!, {r4, r5, r6, lr}
    L6470_DaisyChainCommand((uint8_t*)L6470_DaisyChainSpiTxStruct, (uint8_t*)L6470_DaisyChainSpiRxStruct);
 80042fc:	f7ff bd40 	b.w	8003d80 <_ZN5L647023L6470_DaisyChainCommandEPhS0_.constprop.0>
 8004300:	bd70      	pop	{r4, r5, r6, pc}
 8004302:	bf00      	nop
 8004304:	20001208 	.word	0x20001208
 8004308:	200011d4 	.word	0x200011d4
 800430c:	00000000 	.word	0x00000000

08004310 <_ZN5L64708set_homeEv>:
    virtual void set_home(void)
 8004310:	b538      	push	{r3, r4, r5, lr}
  if(!L6470_DaisyChain_HalfPrepared)
 8004312:	490f      	ldr	r1, [pc, #60]	; (8004350 <_ZN5L64708set_homeEv+0x40>)
    (pL6470_AppCmdPkg+id)->L6470_AppCmdId=(eL6470_AppCmdId_t)0;
 8004314:	4a0f      	ldr	r2, [pc, #60]	; (8004354 <_ZN5L64708set_homeEv+0x44>)
  if(!L6470_DaisyChain_HalfPrepared)
 8004316:	780b      	ldrb	r3, [r1, #0]
 8004318:	b94b      	cbnz	r3, 800432e <_ZN5L64708set_homeEv+0x1e>
    (pL6470_AppCmdPkg+id)->p2=0;
 800431a:	e9c2 3301 	strd	r3, r3, [r2, #4]
 800431e:	e9c2 3305 	strd	r3, r3, [r2, #20]
    L6470_DaisyChain_HalfPrepared = ONE_F; /* To avoid to delete the previous entered command */
 8004322:	2401      	movs	r4, #1
    (pL6470_AppCmdPkg+id)->L6470_AppCmdId=(eL6470_AppCmdId_t)0;
 8004324:	7013      	strb	r3, [r2, #0]
    (pL6470_AppCmdPkg+id)->p3=0;
 8004326:	60d3      	str	r3, [r2, #12]
    (pL6470_AppCmdPkg+id)->L6470_AppCmdId=(eL6470_AppCmdId_t)0;
 8004328:	7413      	strb	r3, [r2, #16]
    (pL6470_AppCmdPkg+id)->p3=0;
 800432a:	61d3      	str	r3, [r2, #28]
    L6470_DaisyChain_HalfPrepared = ONE_F; /* To avoid to delete the previous entered command */
 800432c:	700c      	strb	r4, [r1, #0]
  (pL6470_AppCmdPkg+L6470_Id)->L6470_AppCmdId = L6470_AppCmdId;
 800432e:	7d43      	ldrb	r3, [r0, #21]
 8004330:	011c      	lsls	r4, r3, #4
 8004332:	eb02 1303 	add.w	r3, r2, r3, lsl #4
  (pL6470_AppCmdPkg+L6470_Id)->p1 = p1;
 8004336:	2100      	movs	r1, #0
  (pL6470_AppCmdPkg+L6470_Id)->L6470_AppCmdId = L6470_AppCmdId;
 8004338:	250c      	movs	r5, #12
 800433a:	5515      	strb	r5, [r2, r4]
  (pL6470_AppCmdPkg+L6470_Id)->p2 = p2;
 800433c:	e9c3 1101 	strd	r1, r1, [r3, #4]
  (pL6470_AppCmdPkg+L6470_Id)->p3 = p3;
 8004340:	60d9      	str	r1, [r3, #12]
  L6470_PrepareDaisyChainCommand(L6470_AppCmdPkg, (uint8_t*)L6470_DaisyChainSpiTxStruct);
 8004342:	f7fe fa35 	bl	80027b0 <_ZN5L647030L6470_PrepareDaisyChainCommandEP18sL6470_AppCmdPkg_tPh.constprop.0>
    }
 8004346:	e8bd 4038 	ldmia.w	sp!, {r3, r4, r5, lr}
  L6470_DaisyChainCommand((uint8_t*)L6470_DaisyChainSpiTxStruct, (uint8_t*)L6470_DaisyChainSpiRxStruct);
 800434a:	f7ff bd19 	b.w	8003d80 <_ZN5L647023L6470_DaisyChainCommandEPhS0_.constprop.0>
 800434e:	bf00      	nop
 8004350:	20001208 	.word	0x20001208
 8004354:	200011d4 	.word	0x200011d4
	...

08004360 <_ZN5L647015L6470_GetStatusEv>:
{
 8004360:	b538      	push	{r3, r4, r5, lr}
  if(!L6470_DaisyChain_HalfPrepared)
 8004362:	4913      	ldr	r1, [pc, #76]	; (80043b0 <_ZN5L647015L6470_GetStatusEv+0x50>)
    (pL6470_AppCmdPkg+id)->L6470_AppCmdId=(eL6470_AppCmdId_t)0;
 8004364:	4a13      	ldr	r2, [pc, #76]	; (80043b4 <_ZN5L647015L6470_GetStatusEv+0x54>)
  if(!L6470_DaisyChain_HalfPrepared)
 8004366:	780b      	ldrb	r3, [r1, #0]
{
 8004368:	4604      	mov	r4, r0
  if(!L6470_DaisyChain_HalfPrepared)
 800436a:	b94b      	cbnz	r3, 8004380 <_ZN5L647015L6470_GetStatusEv+0x20>
    (pL6470_AppCmdPkg+id)->p2=0;
 800436c:	e9c2 3301 	strd	r3, r3, [r2, #4]
 8004370:	e9c2 3305 	strd	r3, r3, [r2, #20]
    L6470_DaisyChain_HalfPrepared = ONE_F; /* To avoid to delete the previous entered command */
 8004374:	2001      	movs	r0, #1
    (pL6470_AppCmdPkg+id)->L6470_AppCmdId=(eL6470_AppCmdId_t)0;
 8004376:	7013      	strb	r3, [r2, #0]
    (pL6470_AppCmdPkg+id)->p3=0;
 8004378:	60d3      	str	r3, [r2, #12]
    (pL6470_AppCmdPkg+id)->L6470_AppCmdId=(eL6470_AppCmdId_t)0;
 800437a:	7413      	strb	r3, [r2, #16]
    (pL6470_AppCmdPkg+id)->p3=0;
 800437c:	61d3      	str	r3, [r2, #28]
    L6470_DaisyChain_HalfPrepared = ONE_F; /* To avoid to delete the previous entered command */
 800437e:	7008      	strb	r0, [r1, #0]
  (pL6470_AppCmdPkg+L6470_Id)->L6470_AppCmdId = L6470_AppCmdId;
 8004380:	7d63      	ldrb	r3, [r4, #21]
 8004382:	0118      	lsls	r0, r3, #4
 8004384:	eb02 1303 	add.w	r3, r2, r3, lsl #4
  (pL6470_AppCmdPkg+L6470_Id)->p1 = p1;
 8004388:	2100      	movs	r1, #0
  (pL6470_AppCmdPkg+L6470_Id)->L6470_AppCmdId = L6470_AppCmdId;
 800438a:	2512      	movs	r5, #18
 800438c:	5415      	strb	r5, [r2, r0]
  (pL6470_AppCmdPkg+L6470_Id)->p2 = p2;
 800438e:	e9c3 1101 	strd	r1, r1, [r3, #4]
  L6470_PrepareDaisyChainCommand(L6470_AppCmdPkg, (uint8_t*)L6470_DaisyChainSpiTxStruct);
 8004392:	4620      	mov	r0, r4
  (pL6470_AppCmdPkg+L6470_Id)->p3 = p3;
 8004394:	60d9      	str	r1, [r3, #12]
  L6470_PrepareDaisyChainCommand(L6470_AppCmdPkg, (uint8_t*)L6470_DaisyChainSpiTxStruct);
 8004396:	f7fe fa0b 	bl	80027b0 <_ZN5L647030L6470_PrepareDaisyChainCommandEP18sL6470_AppCmdPkg_tPh.constprop.0>
  L6470_DaisyChainCommand((uint8_t*)L6470_DaisyChainSpiTxStruct, (uint8_t*)L6470_DaisyChainSpiRxStruct);
 800439a:	f7ff fcf1 	bl	8003d80 <_ZN5L647023L6470_DaisyChainCommandEPhS0_.constprop.0>
    value |= (*(pL6470_DaisyChainSpiRxStruct+(i*L6470DAISYCHAINSIZE)+L6470_Id))<<((LengthByte-i)*8);
 800439e:	7d62      	ldrb	r2, [r4, #21]
 80043a0:	4b05      	ldr	r3, [pc, #20]	; (80043b8 <_ZN5L647015L6470_GetStatusEv+0x58>)
 80043a2:	4413      	add	r3, r2
 80043a4:	7898      	ldrb	r0, [r3, #2]
 80043a6:	791b      	ldrb	r3, [r3, #4]
}
 80043a8:	ea43 2000 	orr.w	r0, r3, r0, lsl #8
 80043ac:	bd38      	pop	{r3, r4, r5, pc}
 80043ae:	bf00      	nop
 80043b0:	20001208 	.word	0x20001208
 80043b4:	200011d4 	.word	0x200011d4
 80043b8:	200011f8 	.word	0x200011f8
 80043bc:	00000000 	.word	0x00000000

080043c0 <_ZN5L647010get_statusEv>:
    virtual unsigned int get_status(void)
 80043c0:	b508      	push	{r3, lr}
        return (unsigned int) L6470_GetStatus();
 80043c2:	f7ff ffcd 	bl	8004360 <_ZN5L647015L6470_GetStatusEv>
    }
 80043c6:	bd08      	pop	{r3, pc}
	...

080043d0 <_ZN5L647013L6470_SoftHiZEv>:
{
 80043d0:	b538      	push	{r3, r4, r5, lr}
  if(!L6470_DaisyChain_HalfPrepared)
 80043d2:	490f      	ldr	r1, [pc, #60]	; (8004410 <_ZN5L647013L6470_SoftHiZEv+0x40>)
    (pL6470_AppCmdPkg+id)->L6470_AppCmdId=(eL6470_AppCmdId_t)0;
 80043d4:	4a0f      	ldr	r2, [pc, #60]	; (8004414 <_ZN5L647013L6470_SoftHiZEv+0x44>)
  if(!L6470_DaisyChain_HalfPrepared)
 80043d6:	780b      	ldrb	r3, [r1, #0]
 80043d8:	b94b      	cbnz	r3, 80043ee <_ZN5L647013L6470_SoftHiZEv+0x1e>
    (pL6470_AppCmdPkg+id)->p2=0;
 80043da:	e9c2 3301 	strd	r3, r3, [r2, #4]
 80043de:	e9c2 3305 	strd	r3, r3, [r2, #20]
    L6470_DaisyChain_HalfPrepared = ONE_F; /* To avoid to delete the previous entered command */
 80043e2:	2401      	movs	r4, #1
    (pL6470_AppCmdPkg+id)->L6470_AppCmdId=(eL6470_AppCmdId_t)0;
 80043e4:	7013      	strb	r3, [r2, #0]
    (pL6470_AppCmdPkg+id)->p3=0;
 80043e6:	60d3      	str	r3, [r2, #12]
    (pL6470_AppCmdPkg+id)->L6470_AppCmdId=(eL6470_AppCmdId_t)0;
 80043e8:	7413      	strb	r3, [r2, #16]
    (pL6470_AppCmdPkg+id)->p3=0;
 80043ea:	61d3      	str	r3, [r2, #28]
    L6470_DaisyChain_HalfPrepared = ONE_F; /* To avoid to delete the previous entered command */
 80043ec:	700c      	strb	r4, [r1, #0]
  (pL6470_AppCmdPkg+L6470_Id)->L6470_AppCmdId = L6470_AppCmdId;
 80043ee:	7d43      	ldrb	r3, [r0, #21]
 80043f0:	011c      	lsls	r4, r3, #4
 80043f2:	eb02 1303 	add.w	r3, r2, r3, lsl #4
  (pL6470_AppCmdPkg+L6470_Id)->p1 = p1;
 80043f6:	2100      	movs	r1, #0
  (pL6470_AppCmdPkg+L6470_Id)->L6470_AppCmdId = L6470_AppCmdId;
 80043f8:	2510      	movs	r5, #16
 80043fa:	5515      	strb	r5, [r2, r4]
  (pL6470_AppCmdPkg+L6470_Id)->p2 = p2;
 80043fc:	e9c3 1101 	strd	r1, r1, [r3, #4]
  (pL6470_AppCmdPkg+L6470_Id)->p3 = p3;
 8004400:	60d9      	str	r1, [r3, #12]
  L6470_PrepareDaisyChainCommand(L6470_AppCmdPkg, (uint8_t*)L6470_DaisyChainSpiTxStruct);
 8004402:	f7fe f9d5 	bl	80027b0 <_ZN5L647030L6470_PrepareDaisyChainCommandEP18sL6470_AppCmdPkg_tPh.constprop.0>
}
 8004406:	e8bd 4038 	ldmia.w	sp!, {r3, r4, r5, lr}
  L6470_DaisyChainCommand((uint8_t*)L6470_DaisyChainSpiTxStruct, (uint8_t*)L6470_DaisyChainSpiRxStruct);
 800440a:	f7ff bcb9 	b.w	8003d80 <_ZN5L647023L6470_DaisyChainCommandEPhS0_.constprop.0>
 800440e:	bf00      	nop
 8004410:	20001208 	.word	0x20001208
 8004414:	200011d4 	.word	0x200011d4
	...

08004420 <_ZN5L64708soft_hizEv>:
        L6470_SoftHiZ();
 8004420:	f7ff bfd6 	b.w	80043d0 <_ZN5L647013L6470_SoftHiZEv>
	...

08004430 <_ZN5L647010step_clockEN12StepperMotor11direction_tE>:
        soft_hiz();
 8004430:	6803      	ldr	r3, [r0, #0]
 8004432:	4a17      	ldr	r2, [pc, #92]	; (8004490 <_ZN5L647010step_clockEN12StepperMotor11direction_tE+0x60>)
 8004434:	6e5b      	ldr	r3, [r3, #100]	; 0x64
 8004436:	4293      	cmp	r3, r2
    virtual void step_clock(direction_t direction)
 8004438:	b570      	push	{r4, r5, r6, lr}
 800443a:	4604      	mov	r4, r0
 800443c:	460d      	mov	r5, r1
 800443e:	d125      	bne.n	800448c <_ZN5L647010step_clockEN12StepperMotor11direction_tE+0x5c>
        L6470_SoftHiZ();
 8004440:	f7ff ffc6 	bl	80043d0 <_ZN5L647013L6470_SoftHiZEv>
  if(!L6470_DaisyChain_HalfPrepared)
 8004444:	4913      	ldr	r1, [pc, #76]	; (8004494 <_ZN5L647010step_clockEN12StepperMotor11direction_tE+0x64>)
    (pL6470_AppCmdPkg+id)->L6470_AppCmdId=(eL6470_AppCmdId_t)0;
 8004446:	4a14      	ldr	r2, [pc, #80]	; (8004498 <_ZN5L647010step_clockEN12StepperMotor11direction_tE+0x68>)
  if(!L6470_DaisyChain_HalfPrepared)
 8004448:	780b      	ldrb	r3, [r1, #0]
        L6470_StepClock((eL6470_DirId_t) (direction == StepperMotor::FWD ? L6470_DIR_FWD_ID : L6470_DIR_REV_ID));
 800444a:	f1a5 0501 	sub.w	r5, r5, #1
 800444e:	fab5 f585 	clz	r5, r5
 8004452:	096d      	lsrs	r5, r5, #5
 8004454:	b94b      	cbnz	r3, 800446a <_ZN5L647010step_clockEN12StepperMotor11direction_tE+0x3a>
    (pL6470_AppCmdPkg+id)->p2=0;
 8004456:	e9c2 3301 	strd	r3, r3, [r2, #4]
 800445a:	e9c2 3305 	strd	r3, r3, [r2, #20]
    L6470_DaisyChain_HalfPrepared = ONE_F; /* To avoid to delete the previous entered command */
 800445e:	2001      	movs	r0, #1
    (pL6470_AppCmdPkg+id)->L6470_AppCmdId=(eL6470_AppCmdId_t)0;
 8004460:	7013      	strb	r3, [r2, #0]
    (pL6470_AppCmdPkg+id)->p3=0;
 8004462:	60d3      	str	r3, [r2, #12]
    (pL6470_AppCmdPkg+id)->L6470_AppCmdId=(eL6470_AppCmdId_t)0;
 8004464:	7413      	strb	r3, [r2, #16]
    (pL6470_AppCmdPkg+id)->p3=0;
 8004466:	61d3      	str	r3, [r2, #28]
    L6470_DaisyChain_HalfPrepared = ONE_F; /* To avoid to delete the previous entered command */
 8004468:	7008      	strb	r0, [r1, #0]
  (pL6470_AppCmdPkg+L6470_Id)->L6470_AppCmdId = L6470_AppCmdId;
 800446a:	7d63      	ldrb	r3, [r4, #21]
 800446c:	0118      	lsls	r0, r3, #4
 800446e:	eb02 1303 	add.w	r3, r2, r3, lsl #4
  (pL6470_AppCmdPkg+L6470_Id)->p2 = p2;
 8004472:	2100      	movs	r1, #0
  (pL6470_AppCmdPkg+L6470_Id)->L6470_AppCmdId = L6470_AppCmdId;
 8004474:	2604      	movs	r6, #4
 8004476:	5416      	strb	r6, [r2, r0]
  (pL6470_AppCmdPkg+L6470_Id)->p2 = p2;
 8004478:	e9c3 5101 	strd	r5, r1, [r3, #4]
  L6470_PrepareDaisyChainCommand(L6470_AppCmdPkg, (uint8_t*)L6470_DaisyChainSpiTxStruct);
 800447c:	4620      	mov	r0, r4
  (pL6470_AppCmdPkg+L6470_Id)->p3 = p3;
 800447e:	60d9      	str	r1, [r3, #12]
  L6470_PrepareDaisyChainCommand(L6470_AppCmdPkg, (uint8_t*)L6470_DaisyChainSpiTxStruct);
 8004480:	f7fe f996 	bl	80027b0 <_ZN5L647030L6470_PrepareDaisyChainCommandEP18sL6470_AppCmdPkg_tPh.constprop.0>
    }
 8004484:	e8bd 4070 	ldmia.w	sp!, {r4, r5, r6, lr}
  L6470_DaisyChainCommand((uint8_t*)L6470_DaisyChainSpiTxStruct, (uint8_t*)L6470_DaisyChainSpiRxStruct);
 8004488:	f7ff bc7a 	b.w	8003d80 <_ZN5L647023L6470_DaisyChainCommandEPhS0_.constprop.0>
        soft_hiz();
 800448c:	4798      	blx	r3
 800448e:	e7d9      	b.n	8004444 <_ZN5L647010step_clockEN12StepperMotor11direction_tE+0x14>
 8004490:	08004421 	.word	0x08004421
 8004494:	20001208 	.word	0x20001208
 8004498:	200011d4 	.word	0x200011d4
 800449c:	00000000 	.word	0x00000000

080044a0 <_ZN5L647017L6470_ResetDeviceEv>:
{
 80044a0:	b538      	push	{r3, r4, r5, lr}
  if(!L6470_DaisyChain_HalfPrepared)
 80044a2:	490f      	ldr	r1, [pc, #60]	; (80044e0 <_ZN5L647017L6470_ResetDeviceEv+0x40>)
    (pL6470_AppCmdPkg+id)->L6470_AppCmdId=(eL6470_AppCmdId_t)0;
 80044a4:	4a0f      	ldr	r2, [pc, #60]	; (80044e4 <_ZN5L647017L6470_ResetDeviceEv+0x44>)
  if(!L6470_DaisyChain_HalfPrepared)
 80044a6:	780b      	ldrb	r3, [r1, #0]
 80044a8:	b94b      	cbnz	r3, 80044be <_ZN5L647017L6470_ResetDeviceEv+0x1e>
    (pL6470_AppCmdPkg+id)->p2=0;
 80044aa:	e9c2 3301 	strd	r3, r3, [r2, #4]
 80044ae:	e9c2 3305 	strd	r3, r3, [r2, #20]
    L6470_DaisyChain_HalfPrepared = ONE_F; /* To avoid to delete the previous entered command */
 80044b2:	2401      	movs	r4, #1
    (pL6470_AppCmdPkg+id)->L6470_AppCmdId=(eL6470_AppCmdId_t)0;
 80044b4:	7013      	strb	r3, [r2, #0]
    (pL6470_AppCmdPkg+id)->p3=0;
 80044b6:	60d3      	str	r3, [r2, #12]
    (pL6470_AppCmdPkg+id)->L6470_AppCmdId=(eL6470_AppCmdId_t)0;
 80044b8:	7413      	strb	r3, [r2, #16]
    (pL6470_AppCmdPkg+id)->p3=0;
 80044ba:	61d3      	str	r3, [r2, #28]
    L6470_DaisyChain_HalfPrepared = ONE_F; /* To avoid to delete the previous entered command */
 80044bc:	700c      	strb	r4, [r1, #0]
  (pL6470_AppCmdPkg+L6470_Id)->L6470_AppCmdId = L6470_AppCmdId;
 80044be:	7d43      	ldrb	r3, [r0, #21]
 80044c0:	011c      	lsls	r4, r3, #4
 80044c2:	eb02 1303 	add.w	r3, r2, r3, lsl #4
  (pL6470_AppCmdPkg+L6470_Id)->p1 = p1;
 80044c6:	2100      	movs	r1, #0
  (pL6470_AppCmdPkg+L6470_Id)->L6470_AppCmdId = L6470_AppCmdId;
 80044c8:	250d      	movs	r5, #13
 80044ca:	5515      	strb	r5, [r2, r4]
  (pL6470_AppCmdPkg+L6470_Id)->p2 = p2;
 80044cc:	e9c3 1101 	strd	r1, r1, [r3, #4]
  (pL6470_AppCmdPkg+L6470_Id)->p3 = p3;
 80044d0:	60d9      	str	r1, [r3, #12]
  L6470_PrepareDaisyChainCommand(L6470_AppCmdPkg, (uint8_t*)L6470_DaisyChainSpiTxStruct);
 80044d2:	f7fe f96d 	bl	80027b0 <_ZN5L647030L6470_PrepareDaisyChainCommandEP18sL6470_AppCmdPkg_tPh.constprop.0>
}
 80044d6:	e8bd 4038 	ldmia.w	sp!, {r3, r4, r5, lr}
  L6470_DaisyChainCommand((uint8_t*)L6470_DaisyChainSpiTxStruct, (uint8_t*)L6470_DaisyChainSpiRxStruct);
 80044da:	f7ff bc51 	b.w	8003d80 <_ZN5L647023L6470_DaisyChainCommandEPhS0_.constprop.0>
 80044de:	bf00      	nop
 80044e0:	20001208 	.word	0x20001208
 80044e4:	200011d4 	.word	0x200011d4
	...

080044f0 <_ZN5L647012reset_deviceEv>:
        L6470_ResetDevice();
 80044f0:	f7ff bfd6 	b.w	80044a0 <_ZN5L647017L6470_ResetDeviceEv>
	...

08004500 <_ZN5L64709L6470_RunE14eL6470_DirId_tm>:
{
 8004500:	b5f8      	push	{r3, r4, r5, r6, r7, lr}
  if(!L6470_DaisyChain_HalfPrepared)
 8004502:	4d0f      	ldr	r5, [pc, #60]	; (8004540 <_ZN5L64709L6470_RunE14eL6470_DirId_tm+0x40>)
    (pL6470_AppCmdPkg+id)->L6470_AppCmdId=(eL6470_AppCmdId_t)0;
 8004504:	4c0f      	ldr	r4, [pc, #60]	; (8004544 <_ZN5L64709L6470_RunE14eL6470_DirId_tm+0x44>)
  if(!L6470_DaisyChain_HalfPrepared)
 8004506:	782b      	ldrb	r3, [r5, #0]
 8004508:	b94b      	cbnz	r3, 800451e <_ZN5L64709L6470_RunE14eL6470_DirId_tm+0x1e>
    (pL6470_AppCmdPkg+id)->p2=0;
 800450a:	e9c4 3301 	strd	r3, r3, [r4, #4]
 800450e:	e9c4 3305 	strd	r3, r3, [r4, #20]
    L6470_DaisyChain_HalfPrepared = ONE_F; /* To avoid to delete the previous entered command */
 8004512:	2601      	movs	r6, #1
    (pL6470_AppCmdPkg+id)->L6470_AppCmdId=(eL6470_AppCmdId_t)0;
 8004514:	7023      	strb	r3, [r4, #0]
    (pL6470_AppCmdPkg+id)->p3=0;
 8004516:	60e3      	str	r3, [r4, #12]
    (pL6470_AppCmdPkg+id)->L6470_AppCmdId=(eL6470_AppCmdId_t)0;
 8004518:	7423      	strb	r3, [r4, #16]
    (pL6470_AppCmdPkg+id)->p3=0;
 800451a:	61e3      	str	r3, [r4, #28]
    L6470_DaisyChain_HalfPrepared = ONE_F; /* To avoid to delete the previous entered command */
 800451c:	702e      	strb	r6, [r5, #0]
  (pL6470_AppCmdPkg+L6470_Id)->L6470_AppCmdId = L6470_AppCmdId;
 800451e:	7d43      	ldrb	r3, [r0, #21]
 8004520:	011e      	lsls	r6, r3, #4
 8004522:	eb04 1303 	add.w	r3, r4, r3, lsl #4
 8004526:	2703      	movs	r7, #3
  (pL6470_AppCmdPkg+L6470_Id)->p3 = p3;
 8004528:	2500      	movs	r5, #0
  (pL6470_AppCmdPkg+L6470_Id)->L6470_AppCmdId = L6470_AppCmdId;
 800452a:	55a7      	strb	r7, [r4, r6]
  (pL6470_AppCmdPkg+L6470_Id)->p2 = p2;
 800452c:	e9c3 1201 	strd	r1, r2, [r3, #4]
  (pL6470_AppCmdPkg+L6470_Id)->p3 = p3;
 8004530:	60dd      	str	r5, [r3, #12]
  L6470_PrepareDaisyChainCommand(L6470_AppCmdPkg, (uint8_t*)L6470_DaisyChainSpiTxStruct);
 8004532:	f7fe f93d 	bl	80027b0 <_ZN5L647030L6470_PrepareDaisyChainCommandEP18sL6470_AppCmdPkg_tPh.constprop.0>
}
 8004536:	e8bd 40f8 	ldmia.w	sp!, {r3, r4, r5, r6, r7, lr}
  L6470_DaisyChainCommand((uint8_t*)L6470_DaisyChainSpiTxStruct, (uint8_t*)L6470_DaisyChainSpiRxStruct);
 800453a:	f7ff bc21 	b.w	8003d80 <_ZN5L647023L6470_DaisyChainCommandEPhS0_.constprop.0>
 800453e:	bf00      	nop
 8004540:	20001208 	.word	0x20001208
 8004544:	200011d4 	.word	0x200011d4
	...

08004550 <_ZN5L64703runEN12StepperMotor11direction_tEj>:
    virtual void run(direction_t direction, unsigned int speed)
 8004550:	b570      	push	{r4, r5, r6, lr}
 8004552:	4604      	mov	r4, r0
        L6470_Run((eL6470_DirId_t) (direction == StepperMotor::FWD ? L6470_DIR_FWD_ID : L6470_DIR_REV_ID), (unsigned int) L6470_Step_s_2_Speed((float) speed));
 8004554:	4610      	mov	r0, r2
 8004556:	f1a1 0501 	sub.w	r5, r1, #1
 800455a:	f7fb ff7d 	bl	8000458 <__aeabi_ui2f>
 800455e:	fab5 f585 	clz	r5, r5
  if (Step_s <= (L6470_MAX_SPEED * ((float)14.9012e-3)))
 8004562:	490d      	ldr	r1, [pc, #52]	; (8004598 <_ZN5L64703runEN12StepperMotor11direction_tEj+0x48>)
 8004564:	096d      	lsrs	r5, r5, #5
 8004566:	4606      	mov	r6, r0
 8004568:	f7fc f976 	bl	8000858 <__aeabi_fcmple>
 800456c:	b160      	cbz	r0, 8004588 <_ZN5L64703runEN12StepperMotor11direction_tEj+0x38>
    return (uint32_t)(Step_s / ((float)14.9012e-3));
 800456e:	490b      	ldr	r1, [pc, #44]	; (800459c <_ZN5L64703runEN12StepperMotor11direction_tEj+0x4c>)
 8004570:	4630      	mov	r0, r6
 8004572:	f7fc f87d 	bl	8000670 <__aeabi_fdiv>
 8004576:	f7fc f9b3 	bl	80008e0 <__aeabi_f2uiz>
 800457a:	4629      	mov	r1, r5
 800457c:	4602      	mov	r2, r0
 800457e:	4620      	mov	r0, r4
    }
 8004580:	e8bd 4070 	ldmia.w	sp!, {r4, r5, r6, lr}
        L6470_Run((eL6470_DirId_t) (direction == StepperMotor::FWD ? L6470_DIR_FWD_ID : L6470_DIR_REV_ID), (unsigned int) L6470_Step_s_2_Speed((float) speed));
 8004584:	f7ff bfbc 	b.w	8004500 <_ZN5L64709L6470_RunE14eL6470_DirId_tm>
 8004588:	4602      	mov	r2, r0
 800458a:	4629      	mov	r1, r5
 800458c:	4620      	mov	r0, r4
    }
 800458e:	e8bd 4070 	ldmia.w	sp!, {r4, r5, r6, lr}
        L6470_Run((eL6470_DirId_t) (direction == StepperMotor::FWD ? L6470_DIR_FWD_ID : L6470_DIR_REV_ID), (unsigned int) L6470_Step_s_2_Speed((float) speed));
 8004592:	f7ff bfb5 	b.w	8004500 <_ZN5L64709L6470_RunE14eL6470_DirId_tm>
 8004596:	bf00      	nop
 8004598:	4674241b 	.word	0x4674241b
 800459c:	3c74242a 	.word	0x3c74242a

080045a0 <_ZN5L647014L6470_GetParamE14eL6470_RegId_t>:
{
 80045a0:	b570      	push	{r4, r5, r6, lr}
  if(!L6470_DaisyChain_HalfPrepared)
 80045a2:	4c1c      	ldr	r4, [pc, #112]	; (8004614 <_ZN5L647014L6470_GetParamE14eL6470_RegId_t+0x74>)
    (pL6470_AppCmdPkg+id)->L6470_AppCmdId=(eL6470_AppCmdId_t)0;
 80045a4:	4a1c      	ldr	r2, [pc, #112]	; (8004618 <_ZN5L647014L6470_GetParamE14eL6470_RegId_t+0x78>)
  if(!L6470_DaisyChain_HalfPrepared)
 80045a6:	7823      	ldrb	r3, [r4, #0]
{
 80045a8:	4606      	mov	r6, r0
 80045aa:	460d      	mov	r5, r1
  if(!L6470_DaisyChain_HalfPrepared)
 80045ac:	b94b      	cbnz	r3, 80045c2 <_ZN5L647014L6470_GetParamE14eL6470_RegId_t+0x22>
    (pL6470_AppCmdPkg+id)->p2=0;
 80045ae:	e9c2 3301 	strd	r3, r3, [r2, #4]
 80045b2:	e9c2 3305 	strd	r3, r3, [r2, #20]
    L6470_DaisyChain_HalfPrepared = ONE_F; /* To avoid to delete the previous entered command */
 80045b6:	2101      	movs	r1, #1
    (pL6470_AppCmdPkg+id)->L6470_AppCmdId=(eL6470_AppCmdId_t)0;
 80045b8:	7013      	strb	r3, [r2, #0]
    (pL6470_AppCmdPkg+id)->p3=0;
 80045ba:	60d3      	str	r3, [r2, #12]
    (pL6470_AppCmdPkg+id)->L6470_AppCmdId=(eL6470_AppCmdId_t)0;
 80045bc:	7413      	strb	r3, [r2, #16]
    (pL6470_AppCmdPkg+id)->p3=0;
 80045be:	61d3      	str	r3, [r2, #28]
    L6470_DaisyChain_HalfPrepared = ONE_F; /* To avoid to delete the previous entered command */
 80045c0:	7021      	strb	r1, [r4, #0]
  (pL6470_AppCmdPkg+L6470_Id)->L6470_AppCmdId = L6470_AppCmdId;
 80045c2:	7d73      	ldrb	r3, [r6, #21]
 80045c4:	0119      	lsls	r1, r3, #4
 80045c6:	eb02 1303 	add.w	r3, r2, r3, lsl #4
  (pL6470_AppCmdPkg+L6470_Id)->p2 = p2;
 80045ca:	2400      	movs	r4, #0
  (pL6470_AppCmdPkg+L6470_Id)->L6470_AppCmdId = L6470_AppCmdId;
 80045cc:	2002      	movs	r0, #2
 80045ce:	5450      	strb	r0, [r2, r1]
  (pL6470_AppCmdPkg+L6470_Id)->p2 = p2;
 80045d0:	e9c3 5401 	strd	r5, r4, [r3, #4]
  (pL6470_AppCmdPkg+L6470_Id)->p3 = p3;
 80045d4:	60dc      	str	r4, [r3, #12]
  L6470_PrepareDaisyChainCommand(L6470_AppCmdPkg, (uint8_t*)L6470_DaisyChainSpiTxStruct);
 80045d6:	4630      	mov	r0, r6
 80045d8:	f7fe f8ea 	bl	80027b0 <_ZN5L647030L6470_PrepareDaisyChainCommandEP18sL6470_AppCmdPkg_tPh.constprop.0>
  L6470_DaisyChainCommand((uint8_t*)L6470_DaisyChainSpiTxStruct, (uint8_t*)L6470_DaisyChainSpiRxStruct);
 80045dc:	f7ff fbd0 	bl	8003d80 <_ZN5L647023L6470_DaisyChainCommandEPhS0_.constprop.0>
  ValueLengthByte = L6470_Register[L6470_RegId].LengthByte;
 80045e0:	69b2      	ldr	r2, [r6, #24]
 80045e2:	4b0e      	ldr	r3, [pc, #56]	; (800461c <_ZN5L647014L6470_GetParamE14eL6470_RegId_t+0x7c>)
    value |= (*(pL6470_DaisyChainSpiRxStruct+(i*L6470DAISYCHAINSIZE)+L6470_Id))<<((LengthByte-i)*8);
 80045e4:	7d71      	ldrb	r1, [r6, #21]
  ValueLengthByte = L6470_Register[L6470_RegId].LengthByte;
 80045e6:	eb05 0585 	add.w	r5, r5, r5, lsl #2
 80045ea:	eb02 0585 	add.w	r5, r2, r5, lsl #2
  value = 0x000000;
 80045ee:	4620      	mov	r0, r4
 80045f0:	7bac      	ldrb	r4, [r5, #14]
    value |= (*(pL6470_DaisyChainSpiRxStruct+(i*L6470DAISYCHAINSIZE)+L6470_Id))<<((LengthByte-i)*8);
 80045f2:	185d      	adds	r5, r3, r1
 80045f4:	00e4      	lsls	r4, r4, #3
 80045f6:	2301      	movs	r3, #1
 80045f8:	f815 2013 	ldrb.w	r2, [r5, r3, lsl #1]
 80045fc:	ebc3 7143 	rsb	r1, r3, r3, lsl #29
 8004600:	eb04 01c1 	add.w	r1, r4, r1, lsl #3
 8004604:	3301      	adds	r3, #1
 8004606:	408a      	lsls	r2, r1
  for (i=1; i<=(L6470MAXSPICMDBYTESIZE-1); i++)
 8004608:	2b04      	cmp	r3, #4
    value |= (*(pL6470_DaisyChainSpiRxStruct+(i*L6470DAISYCHAINSIZE)+L6470_Id))<<((LengthByte-i)*8);
 800460a:	ea40 0002 	orr.w	r0, r0, r2
  for (i=1; i<=(L6470MAXSPICMDBYTESIZE-1); i++)
 800460e:	d1f3      	bne.n	80045f8 <_ZN5L647014L6470_GetParamE14eL6470_RegId_t+0x58>
}
 8004610:	bd70      	pop	{r4, r5, r6, pc}
 8004612:	bf00      	nop
 8004614:	20001208 	.word	0x20001208
 8004618:	200011d4 	.word	0x200011d4
 800461c:	200011f8 	.word	0x200011f8

08004620 <_ZN5L647012get_positionEv>:
    virtual signed int get_position(void)
 8004620:	b508      	push	{r3, lr}
        return (signed int) L6470_AbsPos_2_Position((uint32_t) L6470_GetParam((eL6470_RegId_t) L6470_ABS_POS_ID));
 8004622:	2100      	movs	r1, #0
 8004624:	f7ff ffbc 	bl	80045a0 <_ZN5L647014L6470_GetParamE14eL6470_RegId_t>
  if (AbsPos > L6470_MAX_POSITION)
 8004628:	f5b0 1f00 	cmp.w	r0, #2097152	; 0x200000
    return (AbsPos - (L6470_POSITION_RANGE + 1));
 800462c:	bf28      	it	cs
 800462e:	f5a0 0080 	subcs.w	r0, r0, #4194304	; 0x400000
    }
 8004632:	bd08      	pop	{r3, pc}
	...

08004640 <_ZN14XNucleoIHM02A124perform_prepared_actionsEv>:
      *         "Prepare<Action>()" methods, one for each motor of the daisy-chain.
      * @param  None.
      * @retval A pointer to the results returned by the components, i.e. an
      *         integer value for each of them.
      */
    virtual uint32_t* perform_prepared_actions(void)
 8004640:	e92d 4ff0 	stmdb	sp!, {r4, r5, r6, r7, r8, r9, sl, fp, lr}
 8004644:	f100 040c 	add.w	r4, r0, #12
 8004648:	f8df a1f8 	ldr.w	sl, [pc, #504]	; 8004844 <_ZN14XNucleoIHM02A124perform_prepared_actionsEv+0x204>
 800464c:	f8df 91f8 	ldr.w	r9, [pc, #504]	; 8004848 <_ZN14XNucleoIHM02A124perform_prepared_actionsEv+0x208>
 8004650:	b083      	sub	sp, #12
 8004652:	4605      	mov	r5, r0
 8004654:	4627      	mov	r7, r4
 8004656:	f100 0614 	add.w	r6, r0, #20
        for (int m = 0; m < L6470DAISYCHAINSIZE; m++) {
            /*
               "GetPosition()" is needed by "PrepareSetMark()" at the time when the
               prepared actions get performed.
            */
            if (components[m]->get_prepared_action() == L6470::PREPARED_SET_MARK) {
 800465a:	f857 8b04 	ldr.w	r8, [r7], #4
 800465e:	f898 3060 	ldrb.w	r3, [r8, #96]	; 0x60
 8004662:	2b09      	cmp	r3, #9
 8004664:	d01c      	beq.n	80046a0 <_ZN14XNucleoIHM02A124perform_prepared_actionsEv+0x60>
        for (int m = 0; m < L6470DAISYCHAINSIZE; m++) {
 8004666:	42b7      	cmp	r7, r6
 8004668:	d1f7      	bne.n	800465a <_ZN14XNucleoIHM02A124perform_prepared_actionsEv+0x1a>
                components[m]->prepare_set_mark((uint32_t) components[m]->get_position());
            }
        }
        
        /* Performing the prepared actions and getting back raw data. */
        uint8_t *raw_data = components[0]->perform_prepared_actions();
 800466a:	68e8      	ldr	r0, [r5, #12]
    return (Acc * ((float)1.4552e1));
 800466c:	f8df 91dc 	ldr.w	r9, [pc, #476]	; 800484c <_ZN14XNucleoIHM02A124perform_prepared_actionsEv+0x20c>
    return (MinSpeed * ((float)238.4186e-3));
 8004670:	f8df b1dc 	ldr.w	fp, [pc, #476]	; 8004850 <_ZN14XNucleoIHM02A124perform_prepared_actionsEv+0x210>
        if (f >= 0) {
 8004674:	2700      	movs	r7, #0
            return (int) f - (f - (int) f < -0.5f ? 1 : 0);
 8004676:	f04f 483f 	mov.w	r8, #3204448256	; 0xbf000000
 800467a:	f04f 5a7c 	mov.w	sl, #1056964608	; 0x3f000000
  L6470_PrepareDaisyChainCommand(L6470_AppCmdPkg, (uint8_t*)L6470_DaisyChainSpiTxStruct);
 800467e:	f7fe f897 	bl	80027b0 <_ZN5L647030L6470_PrepareDaisyChainCommandEP18sL6470_AppCmdPkg_tPh.constprop.0>
  L6470_DaisyChainCommand((uint8_t*)L6470_DaisyChainSpiTxStruct, (uint8_t*)L6470_DaisyChainSpiRxStruct);
 8004682:	f7ff fb7d 	bl	8003d80 <_ZN5L647023L6470_DaisyChainCommandEPhS0_.constprop.0>

        /* Processing raw data. */
        for (int m = 0; m < L6470DAISYCHAINSIZE; m++) {
            results[m] = components[m]->get_result(raw_data);
 8004686:	f854 3b04 	ldr.w	r3, [r4], #4
        switch (prepared_action) {
 800468a:	f893 2060 	ldrb.w	r2, [r3, #96]	; 0x60
 800468e:	3a01      	subs	r2, #1
 8004690:	2a07      	cmp	r2, #7
 8004692:	d874      	bhi.n	800477e <_ZN14XNucleoIHM02A124perform_prepared_actionsEv+0x13e>
 8004694:	e8df f002 	tbb	[pc, r2]
 8004698:	8e9e7582 	.word	0x8e9e7582
 800469c:	293b68a9 	.word	0x293b68a9
                components[m]->prepare_set_mark((uint32_t) components[m]->get_position());
 80046a0:	f8d8 3000 	ldr.w	r3, [r8]
 80046a4:	68da      	ldr	r2, [r3, #12]
 80046a6:	f8d3 b0c8 	ldr.w	fp, [r3, #200]	; 0xc8
 80046aa:	4552      	cmp	r2, sl
        return (signed int) L6470_AbsPos_2_Position((uint32_t) L6470_GetParam((eL6470_RegId_t) L6470_ABS_POS_ID));
 80046ac:	f04f 0100 	mov.w	r1, #0
 80046b0:	4640      	mov	r0, r8
 80046b2:	f040 80bf 	bne.w	8004834 <_ZN14XNucleoIHM02A124perform_prepared_actionsEv+0x1f4>
 80046b6:	f7ff ff73 	bl	80045a0 <_ZN5L647014L6470_GetParamE14eL6470_RegId_t>
  if (AbsPos > L6470_MAX_POSITION)
 80046ba:	f5b0 1f00 	cmp.w	r0, #2097152	; 0x200000
 80046be:	d20c      	bcs.n	80046da <_ZN14XNucleoIHM02A124perform_prepared_actionsEv+0x9a>
    virtual void prepare_set_mark(signed int position)
 80046c0:	45cb      	cmp	fp, r9
 80046c2:	d10e      	bne.n	80046e2 <_ZN14XNucleoIHM02A124perform_prepared_actionsEv+0xa2>
        L6470_PrepareSetParam((eL6470_RegId_t) L6470_MARK_ID, (uint32_t) L6470_Position_2_AbsPos((int32_t) position));
 80046c4:	f7fe f91c 	bl	8002900 <_ZN5L647023L6470_Position_2_AbsPosEl.constprop.0>
 80046c8:	2102      	movs	r1, #2
 80046ca:	4602      	mov	r2, r0
 80046cc:	4640      	mov	r0, r8
 80046ce:	f7fe fcef 	bl	80030b0 <_ZN5L647021L6470_PrepareSetParamE14eL6470_RegId_tm>
        prepared_action = PREPARED_NO_ACTION;
 80046d2:	2300      	movs	r3, #0
 80046d4:	f888 3060 	strb.w	r3, [r8, #96]	; 0x60
 80046d8:	e7c5      	b.n	8004666 <_ZN14XNucleoIHM02A124perform_prepared_actionsEv+0x26>
 80046da:	45cb      	cmp	fp, r9
    return (AbsPos - (L6470_POSITION_RANGE + 1));
 80046dc:	f5a0 0080 	sub.w	r0, r0, #4194304	; 0x400000
    virtual void prepare_set_mark(signed int position)
 80046e0:	d0f0      	beq.n	80046c4 <_ZN14XNucleoIHM02A124perform_prepared_actionsEv+0x84>
 80046e2:	4601      	mov	r1, r0
 80046e4:	4640      	mov	r0, r8
 80046e6:	47d8      	blx	fp
 80046e8:	e7bd      	b.n	8004666 <_ZN14XNucleoIHM02A124perform_prepared_actionsEv+0x26>

uint8_t L6470::L6470_CheckStatusRegisterFlag(uint8_t L6470_StatusRegisterFlagId)
{
  uint8_t state = 0;

  *((uint16_t*)pL6470_StatusRegister) = L6470_GetParam(L6470_STATUS_ID);
 80046ea:	4618      	mov	r0, r3
 80046ec:	2118      	movs	r1, #24
 80046ee:	9300      	str	r3, [sp, #0]
 80046f0:	f7ff ff56 	bl	80045a0 <_ZN5L647014L6470_GetParamE14eL6470_RegId_t>
 80046f4:	9b00      	ldr	r3, [sp, #0]
 80046f6:	6adb      	ldr	r3, [r3, #44]	; 0x2c
 80046f8:	8018      	strh	r0, [r3, #0]
    case SCK_MOD_ID:
      state = pL6470_StatusRegister->SCK_MOD;
      break;
  }
  
  return state;
 80046fa:	f3c0 1000 	ubfx	r0, r0, #4, #1
        for (int m = 0; m < L6470DAISYCHAINSIZE; m++) {
 80046fe:	42a6      	cmp	r6, r4
            results[m] = components[m]->get_result(raw_data);
 8004700:	60e0      	str	r0, [r4, #12]
        for (int m = 0; m < L6470DAISYCHAINSIZE; m++) {
 8004702:	d1c0      	bne.n	8004686 <_ZN14XNucleoIHM02A124perform_prepared_actionsEv+0x46>
        }

        /* Returning results. */
        return results;
    }
 8004704:	f105 001c 	add.w	r0, r5, #28
 8004708:	b003      	add	sp, #12
 800470a:	e8bd 8ff0 	ldmia.w	sp!, {r4, r5, r6, r7, r8, r9, sl, fp, pc}
                return L6470_round(L6470_Dec_2_Step_s2(L6470_ExtractReturnedData(raw_data, L6470_Register[L6470_DEC_ID].LengthByte)));
 800470e:	699a      	ldr	r2, [r3, #24]
 8004710:	4949      	ldr	r1, [pc, #292]	; (8004838 <_ZN14XNucleoIHM02A124perform_prepared_actionsEv+0x1f8>)
 8004712:	f892 2072 	ldrb.w	r2, [r2, #114]	; 0x72
 8004716:	4618      	mov	r0, r3
 8004718:	f7fe fbca 	bl	8002eb0 <_ZN5L647025L6470_ExtractReturnedDataEPhh>
  if (Acc <= L6470_MAX_ACC)
 800471c:	b283      	uxth	r3, r0
 800471e:	f5b3 5f80 	cmp.w	r3, #4096	; 0x1000
 8004722:	d22c      	bcs.n	800477e <_ZN14XNucleoIHM02A124perform_prepared_actionsEv+0x13e>
    return (Acc * ((float)1.4552e1));
 8004724:	4618      	mov	r0, r3
 8004726:	f7fb fe9b 	bl	8000460 <__aeabi_i2f>
 800472a:	4649      	mov	r1, r9
 800472c:	f7fb feec 	bl	8000508 <__aeabi_fmul>
        if (f >= 0) {
 8004730:	4639      	mov	r1, r7
 8004732:	9000      	str	r0, [sp, #0]
 8004734:	f7fc f89a 	bl	800086c <__aeabi_fcmpge>
 8004738:	9a00      	ldr	r2, [sp, #0]
 800473a:	2800      	cmp	r0, #0
 800473c:	d165      	bne.n	800480a <_ZN14XNucleoIHM02A124perform_prepared_actionsEv+0x1ca>
            return (int) f - (f - (int) f < -0.5f ? 1 : 0);
 800473e:	4610      	mov	r0, r2
 8004740:	9201      	str	r2, [sp, #4]
 8004742:	f7fc f8a7 	bl	8000894 <__aeabi_f2iz>
 8004746:	9000      	str	r0, [sp, #0]
 8004748:	f7fb fe8a 	bl	8000460 <__aeabi_i2f>
 800474c:	9a01      	ldr	r2, [sp, #4]
 800474e:	4601      	mov	r1, r0
 8004750:	4610      	mov	r0, r2
 8004752:	f7fb fdcf 	bl	80002f4 <__aeabi_fsub>
 8004756:	4641      	mov	r1, r8
 8004758:	f7fc f874 	bl	8000844 <__aeabi_fcmplt>
 800475c:	9b00      	ldr	r3, [sp, #0]
 800475e:	2800      	cmp	r0, #0
 8004760:	bf0c      	ite	eq
 8004762:	4618      	moveq	r0, r3
 8004764:	1e58      	subne	r0, r3, #1
 8004766:	e7ca      	b.n	80046fe <_ZN14XNucleoIHM02A124perform_prepared_actionsEv+0xbe>
                return L6470_round(L6470_Acc_2_Step_s2(L6470_ExtractReturnedData(raw_data, L6470_Register[L6470_ACC_ID].LengthByte)));
 8004768:	699a      	ldr	r2, [r3, #24]
 800476a:	4933      	ldr	r1, [pc, #204]	; (8004838 <_ZN14XNucleoIHM02A124perform_prepared_actionsEv+0x1f8>)
 800476c:	f892 205e 	ldrb.w	r2, [r2, #94]	; 0x5e
                return L6470_round(L6470_Dec_2_Step_s2(L6470_ExtractReturnedData(raw_data, L6470_Register[L6470_DEC_ID].LengthByte)));
 8004770:	4618      	mov	r0, r3
 8004772:	f7fe fb9d 	bl	8002eb0 <_ZN5L647025L6470_ExtractReturnedDataEPhh>
  if (Acc <= L6470_MAX_ACC)
 8004776:	b283      	uxth	r3, r0
 8004778:	f5b3 5f80 	cmp.w	r3, #4096	; 0x1000
 800477c:	d3d2      	bcc.n	8004724 <_ZN14XNucleoIHM02A124perform_prepared_actionsEv+0xe4>
        switch (prepared_action) {
 800477e:	2000      	movs	r0, #0
 8004780:	e7bd      	b.n	80046fe <_ZN14XNucleoIHM02A124perform_prepared_actionsEv+0xbe>
                return L6470_AbsPos_2_Position(L6470_ExtractReturnedData(raw_data, L6470_Register[L6470_MARK_ID].LengthByte));
 8004782:	699a      	ldr	r2, [r3, #24]
 8004784:	492c      	ldr	r1, [pc, #176]	; (8004838 <_ZN14XNucleoIHM02A124perform_prepared_actionsEv+0x1f8>)
 8004786:	f892 2036 	ldrb.w	r2, [r2, #54]	; 0x36
 800478a:	4618      	mov	r0, r3
 800478c:	f7fe fb90 	bl	8002eb0 <_ZN5L647025L6470_ExtractReturnedDataEPhh>
  if (AbsPos > L6470_MAX_POSITION)
 8004790:	f5b0 1f00 	cmp.w	r0, #2097152	; 0x200000
 8004794:	d3b3      	bcc.n	80046fe <_ZN14XNucleoIHM02A124perform_prepared_actionsEv+0xbe>
    return (AbsPos - (L6470_POSITION_RANGE + 1));
 8004796:	f5a0 0080 	sub.w	r0, r0, #4194304	; 0x400000
 800479a:	e7b0      	b.n	80046fe <_ZN14XNucleoIHM02A124perform_prepared_actionsEv+0xbe>
                return L6470_AbsPos_2_Position(L6470_ExtractReturnedData(raw_data, L6470_Register[L6470_ABS_POS_ID].LengthByte));
 800479c:	699a      	ldr	r2, [r3, #24]
 800479e:	4926      	ldr	r1, [pc, #152]	; (8004838 <_ZN14XNucleoIHM02A124perform_prepared_actionsEv+0x1f8>)
 80047a0:	7b92      	ldrb	r2, [r2, #14]
 80047a2:	4618      	mov	r0, r3
 80047a4:	f7fe fb84 	bl	8002eb0 <_ZN5L647025L6470_ExtractReturnedDataEPhh>
  if (AbsPos > L6470_MAX_POSITION)
 80047a8:	f5b0 1f00 	cmp.w	r0, #2097152	; 0x200000
 80047ac:	d3a7      	bcc.n	80046fe <_ZN14XNucleoIHM02A124perform_prepared_actionsEv+0xbe>
    return (AbsPos - (L6470_POSITION_RANGE + 1));
 80047ae:	f5a0 0080 	sub.w	r0, r0, #4194304	; 0x400000
 80047b2:	e7a4      	b.n	80046fe <_ZN14XNucleoIHM02A124perform_prepared_actionsEv+0xbe>
                return L6470_round(L6470_MaxSpeed_2_Step_s(L6470_ExtractReturnedData(raw_data, L6470_Register[L6470_MAX_SPEED_ID].LengthByte)));
 80047b4:	699a      	ldr	r2, [r3, #24]
 80047b6:	4920      	ldr	r1, [pc, #128]	; (8004838 <_ZN14XNucleoIHM02A124perform_prepared_actionsEv+0x1f8>)
 80047b8:	f892 2086 	ldrb.w	r2, [r2, #134]	; 0x86
 80047bc:	4618      	mov	r0, r3
 80047be:	f7fe fb77 	bl	8002eb0 <_ZN5L647025L6470_ExtractReturnedDataEPhh>
  if (MaxSpeed <= L6470_MAX_MAX_SPEED)
 80047c2:	b283      	uxth	r3, r0
 80047c4:	f5b3 6f80 	cmp.w	r3, #1024	; 0x400
 80047c8:	d2d9      	bcs.n	800477e <_ZN14XNucleoIHM02A124perform_prepared_actionsEv+0x13e>
    return (MaxSpeed * ((float)15.2588));
 80047ca:	4618      	mov	r0, r3
 80047cc:	f7fb fe48 	bl	8000460 <__aeabi_i2f>
 80047d0:	491a      	ldr	r1, [pc, #104]	; (800483c <_ZN14XNucleoIHM02A124perform_prepared_actionsEv+0x1fc>)
 80047d2:	e7ab      	b.n	800472c <_ZN14XNucleoIHM02A124perform_prepared_actionsEv+0xec>
                return L6470_round(L6470_Speed_2_Step_s(L6470_ExtractReturnedData(raw_data, L6470_Register[L6470_SPEED_ID].LengthByte)));
 80047d4:	699a      	ldr	r2, [r3, #24]
 80047d6:	4918      	ldr	r1, [pc, #96]	; (8004838 <_ZN14XNucleoIHM02A124perform_prepared_actionsEv+0x1f8>)
 80047d8:	f892 204a 	ldrb.w	r2, [r2, #74]	; 0x4a
 80047dc:	4618      	mov	r0, r3
 80047de:	f7fe fb67 	bl	8002eb0 <_ZN5L647025L6470_ExtractReturnedDataEPhh>
  return (Speed * ((float)14.9012e-3));
 80047e2:	f7fb fe39 	bl	8000458 <__aeabi_ui2f>
 80047e6:	4916      	ldr	r1, [pc, #88]	; (8004840 <_ZN14XNucleoIHM02A124perform_prepared_actionsEv+0x200>)
 80047e8:	e7a0      	b.n	800472c <_ZN14XNucleoIHM02A124perform_prepared_actionsEv+0xec>
                return L6470_round(L6470_MinSpeed_2_Step_s(L6470_ExtractReturnedData(raw_data, L6470_Register[L6470_MIN_SPEED_ID].LengthByte)));
 80047ea:	699a      	ldr	r2, [r3, #24]
 80047ec:	4912      	ldr	r1, [pc, #72]	; (8004838 <_ZN14XNucleoIHM02A124perform_prepared_actionsEv+0x1f8>)
 80047ee:	f892 209a 	ldrb.w	r2, [r2, #154]	; 0x9a
 80047f2:	4618      	mov	r0, r3
 80047f4:	f7fe fb5c 	bl	8002eb0 <_ZN5L647025L6470_ExtractReturnedDataEPhh>
  if (MinSpeed <= L6470_MAX_MIN_SPEED)
 80047f8:	b283      	uxth	r3, r0
 80047fa:	f5b3 5f80 	cmp.w	r3, #4096	; 0x1000
 80047fe:	d2be      	bcs.n	800477e <_ZN14XNucleoIHM02A124perform_prepared_actionsEv+0x13e>
    return (MinSpeed * ((float)238.4186e-3));
 8004800:	4618      	mov	r0, r3
 8004802:	f7fb fe2d 	bl	8000460 <__aeabi_i2f>
 8004806:	4659      	mov	r1, fp
 8004808:	e790      	b.n	800472c <_ZN14XNucleoIHM02A124perform_prepared_actionsEv+0xec>
 800480a:	4610      	mov	r0, r2
 800480c:	9201      	str	r2, [sp, #4]
 800480e:	f7fc f841 	bl	8000894 <__aeabi_f2iz>
 8004812:	9000      	str	r0, [sp, #0]
 8004814:	f7fb fe24 	bl	8000460 <__aeabi_i2f>
 8004818:	9a01      	ldr	r2, [sp, #4]
 800481a:	4601      	mov	r1, r0
 800481c:	4610      	mov	r0, r2
 800481e:	f7fb fd69 	bl	80002f4 <__aeabi_fsub>
 8004822:	4651      	mov	r1, sl
 8004824:	f7fc f80e 	bl	8000844 <__aeabi_fcmplt>
 8004828:	9b00      	ldr	r3, [sp, #0]
 800482a:	2800      	cmp	r0, #0
 800482c:	bf14      	ite	ne
 800482e:	4618      	movne	r0, r3
 8004830:	1c58      	addeq	r0, r3, #1
 8004832:	e764      	b.n	80046fe <_ZN14XNucleoIHM02A124perform_prepared_actionsEv+0xbe>
                components[m]->prepare_set_mark((uint32_t) components[m]->get_position());
 8004834:	4790      	blx	r2
 8004836:	e743      	b.n	80046c0 <_ZN14XNucleoIHM02A124perform_prepared_actionsEv+0x80>
 8004838:	200011f8 	.word	0x200011f8
 800483c:	4174240b 	.word	0x4174240b
 8004840:	3c74242a 	.word	0x3c74242a
 8004844:	08004621 	.word	0x08004621
 8004848:	080030f1 	.word	0x080030f1
 800484c:	4168d4fe 	.word	0x4168d4fe
 8004850:	3e742401 	.word	0x3e742401
	...

08004860 <_ZN5L647011prepare_runEN12StepperMotor11direction_tE>:
    virtual void prepare_run(direction_t direction)
 8004860:	b538      	push	{r3, r4, r5, lr}
 8004862:	460d      	mov	r5, r1
        L6470_PrepareRun((eL6470_DirId_t) (direction == StepperMotor::FWD ? L6470_DIR_FWD_ID : L6470_DIR_REV_ID), (unsigned int) L6470_GetParam((eL6470_RegId_t) L6470_MAX_SPEED_ID));
 8004864:	2106      	movs	r1, #6
    virtual void prepare_run(direction_t direction)
 8004866:	4604      	mov	r4, r0
        L6470_PrepareRun((eL6470_DirId_t) (direction == StepperMotor::FWD ? L6470_DIR_FWD_ID : L6470_DIR_REV_ID), (unsigned int) L6470_GetParam((eL6470_RegId_t) L6470_MAX_SPEED_ID));
 8004868:	f7ff fe9a 	bl	80045a0 <_ZN5L647014L6470_GetParamE14eL6470_RegId_t>
 800486c:	f1a5 0101 	sub.w	r1, r5, #1
 8004870:	fab1 f181 	clz	r1, r1
 8004874:	4602      	mov	r2, r0
 8004876:	0949      	lsrs	r1, r1, #5
 8004878:	4620      	mov	r0, r4
 800487a:	f7fe fb31 	bl	8002ee0 <_ZN5L647016L6470_PrepareRunE14eL6470_DirId_tm>
        prepared_action = PREPARED_NO_ACTION;
 800487e:	2300      	movs	r3, #0
 8004880:	f884 3060 	strb.w	r3, [r4, #96]	; 0x60
    }
 8004884:	bd38      	pop	{r3, r4, r5, pc}
 8004886:	bf00      	nop
	...

08004890 <_ZN5L647017wait_while_activeEv>:
    virtual void wait_while_active(void)
 8004890:	b510      	push	{r4, lr}
 8004892:	4604      	mov	r4, r0
  *((uint16_t*)pL6470_StatusRegister) = L6470_GetParam(L6470_STATUS_ID);
 8004894:	2118      	movs	r1, #24
 8004896:	4620      	mov	r0, r4
 8004898:	f7ff fe82 	bl	80045a0 <_ZN5L647014L6470_GetParamE14eL6470_RegId_t>
 800489c:	6ae3      	ldr	r3, [r4, #44]	; 0x2c
 800489e:	8018      	strh	r0, [r3, #0]
        while (L6470_CheckStatusRegisterFlag(BUSY_ID) == 0);
 80048a0:	0783      	lsls	r3, r0, #30
 80048a2:	d5f7      	bpl.n	8004894 <_ZN5L647017wait_while_activeEv+0x4>
    }
 80048a4:	bd10      	pop	{r4, pc}
 80048a6:	bf00      	nop
	...

080048b0 <_ZN5L64703runEN12StepperMotor11direction_tE>:
    virtual void run(direction_t direction)
 80048b0:	b538      	push	{r3, r4, r5, lr}
 80048b2:	460d      	mov	r5, r1
        L6470_Run((eL6470_DirId_t) (direction == StepperMotor::FWD ? L6470_DIR_FWD_ID : L6470_DIR_REV_ID), (unsigned int) L6470_GetParam((eL6470_RegId_t) L6470_MAX_SPEED_ID));
 80048b4:	2106      	movs	r1, #6
    virtual void run(direction_t direction)
 80048b6:	4604      	mov	r4, r0
        L6470_Run((eL6470_DirId_t) (direction == StepperMotor::FWD ? L6470_DIR_FWD_ID : L6470_DIR_REV_ID), (unsigned int) L6470_GetParam((eL6470_RegId_t) L6470_MAX_SPEED_ID));
 80048b8:	f7ff fe72 	bl	80045a0 <_ZN5L647014L6470_GetParamE14eL6470_RegId_t>
 80048bc:	f1a5 0101 	sub.w	r1, r5, #1
 80048c0:	fab1 f181 	clz	r1, r1
 80048c4:	4602      	mov	r2, r0
 80048c6:	0949      	lsrs	r1, r1, #5
 80048c8:	4620      	mov	r0, r4
    }
 80048ca:	e8bd 4038 	ldmia.w	sp!, {r3, r4, r5, lr}
        L6470_Run((eL6470_DirId_t) (direction == StepperMotor::FWD ? L6470_DIR_FWD_ID : L6470_DIR_REV_ID), (unsigned int) L6470_GetParam((eL6470_RegId_t) L6470_MAX_SPEED_ID));
 80048ce:	f7ff be17 	b.w	8004500 <_ZN5L64709L6470_RunE14eL6470_DirId_tm>
 80048d2:	bf00      	nop
	...

080048e0 <_ZN5L647013get_directionEv>:
    virtual direction_t get_direction(void)
 80048e0:	b510      	push	{r4, lr}
 80048e2:	2118      	movs	r1, #24
 80048e4:	4604      	mov	r4, r0
 80048e6:	f7ff fe5b 	bl	80045a0 <_ZN5L647014L6470_GetParamE14eL6470_RegId_t>
 80048ea:	6ae3      	ldr	r3, [r4, #44]	; 0x2c
 80048ec:	8018      	strh	r0, [r3, #0]
    }
 80048ee:	f3c0 1000 	ubfx	r0, r0, #4, #1
 80048f2:	bd10      	pop	{r4, pc}
	...

08004900 <_ZN5L647016get_decelerationEv>:
    virtual unsigned int get_deceleration(void)
 8004900:	b538      	push	{r3, r4, r5, lr}
        return L6470_round(L6470_Dec_2_Step_s2((unsigned int) L6470_GetParam((eL6470_RegId_t) L6470_DEC_ID)));
 8004902:	2105      	movs	r1, #5
 8004904:	f7ff fe4c 	bl	80045a0 <_ZN5L647014L6470_GetParamE14eL6470_RegId_t>
  if (Acc <= L6470_MAX_ACC)
 8004908:	b283      	uxth	r3, r0
 800490a:	f5b3 5f80 	cmp.w	r3, #4096	; 0x1000
 800490e:	d21d      	bcs.n	800494c <_ZN5L647016get_decelerationEv+0x4c>
    return (Acc * ((float)1.4552e1));
 8004910:	4618      	mov	r0, r3
 8004912:	f7fb fda5 	bl	8000460 <__aeabi_i2f>
 8004916:	4918      	ldr	r1, [pc, #96]	; (8004978 <_ZN5L647016get_decelerationEv+0x78>)
 8004918:	f7fb fdf6 	bl	8000508 <__aeabi_fmul>
        if (f >= 0) {
 800491c:	2100      	movs	r1, #0
 800491e:	4605      	mov	r5, r0
 8004920:	f7fb ffa4 	bl	800086c <__aeabi_fcmpge>
 8004924:	b9a0      	cbnz	r0, 8004950 <_ZN5L647016get_decelerationEv+0x50>
            return (int) f - (f - (int) f < -0.5f ? 1 : 0);
 8004926:	4628      	mov	r0, r5
 8004928:	f7fb ffb4 	bl	8000894 <__aeabi_f2iz>
 800492c:	4604      	mov	r4, r0
 800492e:	f7fb fd97 	bl	8000460 <__aeabi_i2f>
 8004932:	4601      	mov	r1, r0
 8004934:	4628      	mov	r0, r5
 8004936:	f7fb fcdd 	bl	80002f4 <__aeabi_fsub>
 800493a:	f04f 413f 	mov.w	r1, #3204448256	; 0xbf000000
 800493e:	f7fb ff81 	bl	8000844 <__aeabi_fcmplt>
 8004942:	2800      	cmp	r0, #0
 8004944:	bf0c      	ite	eq
 8004946:	4620      	moveq	r0, r4
 8004948:	1e60      	subne	r0, r4, #1
    }
 800494a:	bd38      	pop	{r3, r4, r5, pc}
  if (Acc <= L6470_MAX_ACC)
 800494c:	2000      	movs	r0, #0
 800494e:	bd38      	pop	{r3, r4, r5, pc}
 8004950:	4628      	mov	r0, r5
 8004952:	f7fb ff9f 	bl	8000894 <__aeabi_f2iz>
 8004956:	4604      	mov	r4, r0
 8004958:	f7fb fd82 	bl	8000460 <__aeabi_i2f>
 800495c:	4601      	mov	r1, r0
 800495e:	4628      	mov	r0, r5
 8004960:	f7fb fcc8 	bl	80002f4 <__aeabi_fsub>
 8004964:	f04f 517c 	mov.w	r1, #1056964608	; 0x3f000000
 8004968:	f7fb ff6c 	bl	8000844 <__aeabi_fcmplt>
 800496c:	2800      	cmp	r0, #0
 800496e:	bf14      	ite	ne
 8004970:	4620      	movne	r0, r4
 8004972:	1c60      	addeq	r0, r4, #1
 8004974:	bd38      	pop	{r3, r4, r5, pc}
 8004976:	bf00      	nop
 8004978:	4168d4fe 	.word	0x4168d4fe
 800497c:	00000000 	.word	0x00000000

08004980 <_ZN5L647016get_accelerationEv>:
    virtual unsigned int get_acceleration(void)
 8004980:	b538      	push	{r3, r4, r5, lr}
        return L6470_round(L6470_Acc_2_Step_s2((unsigned int) L6470_GetParam((eL6470_RegId_t) L6470_ACC_ID)));
 8004982:	2104      	movs	r1, #4
 8004984:	f7ff fe0c 	bl	80045a0 <_ZN5L647014L6470_GetParamE14eL6470_RegId_t>
 8004988:	b283      	uxth	r3, r0
 800498a:	f5b3 5f80 	cmp.w	r3, #4096	; 0x1000
 800498e:	d21d      	bcs.n	80049cc <_ZN5L647016get_accelerationEv+0x4c>
    return (Acc * ((float)1.4552e1));
 8004990:	4618      	mov	r0, r3
 8004992:	f7fb fd65 	bl	8000460 <__aeabi_i2f>
 8004996:	4918      	ldr	r1, [pc, #96]	; (80049f8 <_ZN5L647016get_accelerationEv+0x78>)
 8004998:	f7fb fdb6 	bl	8000508 <__aeabi_fmul>
        if (f >= 0) {
 800499c:	2100      	movs	r1, #0
 800499e:	4605      	mov	r5, r0
 80049a0:	f7fb ff64 	bl	800086c <__aeabi_fcmpge>
 80049a4:	b9a0      	cbnz	r0, 80049d0 <_ZN5L647016get_accelerationEv+0x50>
            return (int) f - (f - (int) f < -0.5f ? 1 : 0);
 80049a6:	4628      	mov	r0, r5
 80049a8:	f7fb ff74 	bl	8000894 <__aeabi_f2iz>
 80049ac:	4604      	mov	r4, r0
 80049ae:	f7fb fd57 	bl	8000460 <__aeabi_i2f>
 80049b2:	4601      	mov	r1, r0
 80049b4:	4628      	mov	r0, r5
 80049b6:	f7fb fc9d 	bl	80002f4 <__aeabi_fsub>
 80049ba:	f04f 413f 	mov.w	r1, #3204448256	; 0xbf000000
 80049be:	f7fb ff41 	bl	8000844 <__aeabi_fcmplt>
 80049c2:	2800      	cmp	r0, #0
 80049c4:	bf0c      	ite	eq
 80049c6:	4620      	moveq	r0, r4
 80049c8:	1e60      	subne	r0, r4, #1
    }
 80049ca:	bd38      	pop	{r3, r4, r5, pc}
  if (Acc <= L6470_MAX_ACC)
 80049cc:	2000      	movs	r0, #0
 80049ce:	bd38      	pop	{r3, r4, r5, pc}
 80049d0:	4628      	mov	r0, r5
 80049d2:	f7fb ff5f 	bl	8000894 <__aeabi_f2iz>
 80049d6:	4604      	mov	r4, r0
 80049d8:	f7fb fd42 	bl	8000460 <__aeabi_i2f>
 80049dc:	4601      	mov	r1, r0
 80049de:	4628      	mov	r0, r5
 80049e0:	f7fb fc88 	bl	80002f4 <__aeabi_fsub>
 80049e4:	f04f 517c 	mov.w	r1, #1056964608	; 0x3f000000
 80049e8:	f7fb ff2c 	bl	8000844 <__aeabi_fcmplt>
 80049ec:	2800      	cmp	r0, #0
 80049ee:	bf14      	ite	ne
 80049f0:	4620      	movne	r0, r4
 80049f2:	1c60      	addeq	r0, r4, #1
 80049f4:	bd38      	pop	{r3, r4, r5, pc}
 80049f6:	bf00      	nop
 80049f8:	4168d4fe 	.word	0x4168d4fe
 80049fc:	00000000 	.word	0x00000000

08004a00 <_ZN5L647013get_min_speedEv>:
    virtual unsigned int get_min_speed(void)
 8004a00:	b538      	push	{r3, r4, r5, lr}
        return L6470_round(L6470_MinSpeed_2_Step_s((unsigned int) L6470_GetParam((eL6470_RegId_t) L6470_MIN_SPEED_ID)));
 8004a02:	2107      	movs	r1, #7
 8004a04:	f7ff fdcc 	bl	80045a0 <_ZN5L647014L6470_GetParamE14eL6470_RegId_t>
  if (MinSpeed <= L6470_MAX_MIN_SPEED)
 8004a08:	b283      	uxth	r3, r0
 8004a0a:	f5b3 5f80 	cmp.w	r3, #4096	; 0x1000
 8004a0e:	d21d      	bcs.n	8004a4c <_ZN5L647013get_min_speedEv+0x4c>
    return (MinSpeed * ((float)238.4186e-3));
 8004a10:	4618      	mov	r0, r3
 8004a12:	f7fb fd25 	bl	8000460 <__aeabi_i2f>
 8004a16:	4918      	ldr	r1, [pc, #96]	; (8004a78 <_ZN5L647013get_min_speedEv+0x78>)
 8004a18:	f7fb fd76 	bl	8000508 <__aeabi_fmul>
        if (f >= 0) {
 8004a1c:	2100      	movs	r1, #0
 8004a1e:	4605      	mov	r5, r0
 8004a20:	f7fb ff24 	bl	800086c <__aeabi_fcmpge>
 8004a24:	b9a0      	cbnz	r0, 8004a50 <_ZN5L647013get_min_speedEv+0x50>
            return (int) f - (f - (int) f < -0.5f ? 1 : 0);
 8004a26:	4628      	mov	r0, r5
 8004a28:	f7fb ff34 	bl	8000894 <__aeabi_f2iz>
 8004a2c:	4604      	mov	r4, r0
 8004a2e:	f7fb fd17 	bl	8000460 <__aeabi_i2f>
 8004a32:	4601      	mov	r1, r0
 8004a34:	4628      	mov	r0, r5
 8004a36:	f7fb fc5d 	bl	80002f4 <__aeabi_fsub>
 8004a3a:	f04f 413f 	mov.w	r1, #3204448256	; 0xbf000000
 8004a3e:	f7fb ff01 	bl	8000844 <__aeabi_fcmplt>
 8004a42:	2800      	cmp	r0, #0
 8004a44:	bf0c      	ite	eq
 8004a46:	4620      	moveq	r0, r4
 8004a48:	1e60      	subne	r0, r4, #1
    }
 8004a4a:	bd38      	pop	{r3, r4, r5, pc}
  if (MinSpeed <= L6470_MAX_MIN_SPEED)
 8004a4c:	2000      	movs	r0, #0
 8004a4e:	bd38      	pop	{r3, r4, r5, pc}
 8004a50:	4628      	mov	r0, r5
 8004a52:	f7fb ff1f 	bl	8000894 <__aeabi_f2iz>
 8004a56:	4604      	mov	r4, r0
 8004a58:	f7fb fd02 	bl	8000460 <__aeabi_i2f>
 8004a5c:	4601      	mov	r1, r0
 8004a5e:	4628      	mov	r0, r5
 8004a60:	f7fb fc48 	bl	80002f4 <__aeabi_fsub>
 8004a64:	f04f 517c 	mov.w	r1, #1056964608	; 0x3f000000
 8004a68:	f7fb feec 	bl	8000844 <__aeabi_fcmplt>
 8004a6c:	2800      	cmp	r0, #0
 8004a6e:	bf14      	ite	ne
 8004a70:	4620      	movne	r0, r4
 8004a72:	1c60      	addeq	r0, r4, #1
 8004a74:	bd38      	pop	{r3, r4, r5, pc}
 8004a76:	bf00      	nop
 8004a78:	3e742401 	.word	0x3e742401
 8004a7c:	00000000 	.word	0x00000000

08004a80 <_ZN5L647013get_max_speedEv>:
    virtual unsigned int get_max_speed(void)
 8004a80:	b538      	push	{r3, r4, r5, lr}
        return L6470_round(L6470_MaxSpeed_2_Step_s((unsigned int) L6470_GetParam((eL6470_RegId_t) L6470_MAX_SPEED_ID)));
 8004a82:	2106      	movs	r1, #6
 8004a84:	f7ff fd8c 	bl	80045a0 <_ZN5L647014L6470_GetParamE14eL6470_RegId_t>
  if (MaxSpeed <= L6470_MAX_MAX_SPEED)
 8004a88:	b283      	uxth	r3, r0
 8004a8a:	f5b3 6f80 	cmp.w	r3, #1024	; 0x400
 8004a8e:	d21d      	bcs.n	8004acc <_ZN5L647013get_max_speedEv+0x4c>
    return (MaxSpeed * ((float)15.2588));
 8004a90:	4618      	mov	r0, r3
 8004a92:	f7fb fce5 	bl	8000460 <__aeabi_i2f>
 8004a96:	4918      	ldr	r1, [pc, #96]	; (8004af8 <_ZN5L647013get_max_speedEv+0x78>)
 8004a98:	f7fb fd36 	bl	8000508 <__aeabi_fmul>
        if (f >= 0) {
 8004a9c:	2100      	movs	r1, #0
 8004a9e:	4605      	mov	r5, r0
 8004aa0:	f7fb fee4 	bl	800086c <__aeabi_fcmpge>
 8004aa4:	b9a0      	cbnz	r0, 8004ad0 <_ZN5L647013get_max_speedEv+0x50>
            return (int) f - (f - (int) f < -0.5f ? 1 : 0);
 8004aa6:	4628      	mov	r0, r5
 8004aa8:	f7fb fef4 	bl	8000894 <__aeabi_f2iz>
 8004aac:	4604      	mov	r4, r0
 8004aae:	f7fb fcd7 	bl	8000460 <__aeabi_i2f>
 8004ab2:	4601      	mov	r1, r0
 8004ab4:	4628      	mov	r0, r5
 8004ab6:	f7fb fc1d 	bl	80002f4 <__aeabi_fsub>
 8004aba:	f04f 413f 	mov.w	r1, #3204448256	; 0xbf000000
 8004abe:	f7fb fec1 	bl	8000844 <__aeabi_fcmplt>
 8004ac2:	2800      	cmp	r0, #0
 8004ac4:	bf0c      	ite	eq
 8004ac6:	4620      	moveq	r0, r4
 8004ac8:	1e60      	subne	r0, r4, #1
    }
 8004aca:	bd38      	pop	{r3, r4, r5, pc}
  if (MaxSpeed <= L6470_MAX_MAX_SPEED)
 8004acc:	2000      	movs	r0, #0
 8004ace:	bd38      	pop	{r3, r4, r5, pc}
 8004ad0:	4628      	mov	r0, r5
 8004ad2:	f7fb fedf 	bl	8000894 <__aeabi_f2iz>
 8004ad6:	4604      	mov	r4, r0
 8004ad8:	f7fb fcc2 	bl	8000460 <__aeabi_i2f>
 8004adc:	4601      	mov	r1, r0
 8004ade:	4628      	mov	r0, r5
 8004ae0:	f7fb fc08 	bl	80002f4 <__aeabi_fsub>
 8004ae4:	f04f 517c 	mov.w	r1, #1056964608	; 0x3f000000
 8004ae8:	f7fb feac 	bl	8000844 <__aeabi_fcmplt>
 8004aec:	2800      	cmp	r0, #0
 8004aee:	bf14      	ite	ne
 8004af0:	4620      	movne	r0, r4
 8004af2:	1c60      	addeq	r0, r4, #1
 8004af4:	bd38      	pop	{r3, r4, r5, pc}
 8004af6:	bf00      	nop
 8004af8:	4174240b 	.word	0x4174240b
 8004afc:	00000000 	.word	0x00000000

08004b00 <_ZN5L64709get_speedEv>:
    virtual unsigned int get_speed(void)
 8004b00:	b538      	push	{r3, r4, r5, lr}
        return L6470_round(L6470_Speed_2_Step_s((unsigned int) L6470_GetParam((eL6470_RegId_t) L6470_SPEED_ID)));
 8004b02:	2103      	movs	r1, #3
 8004b04:	f7ff fd4c 	bl	80045a0 <_ZN5L647014L6470_GetParamE14eL6470_RegId_t>
  return (Speed * ((float)14.9012e-3));
 8004b08:	f7fb fca6 	bl	8000458 <__aeabi_ui2f>
 8004b0c:	4916      	ldr	r1, [pc, #88]	; (8004b68 <_ZN5L64709get_speedEv+0x68>)
 8004b0e:	f7fb fcfb 	bl	8000508 <__aeabi_fmul>
        if (f >= 0) {
 8004b12:	2100      	movs	r1, #0
 8004b14:	4605      	mov	r5, r0
 8004b16:	f7fb fea9 	bl	800086c <__aeabi_fcmpge>
 8004b1a:	b190      	cbz	r0, 8004b42 <_ZN5L64709get_speedEv+0x42>
            return (int) f + (f - (int) f < 0.5f ? 0 : 1);
 8004b1c:	4628      	mov	r0, r5
 8004b1e:	f7fb feb9 	bl	8000894 <__aeabi_f2iz>
 8004b22:	4604      	mov	r4, r0
 8004b24:	f7fb fc9c 	bl	8000460 <__aeabi_i2f>
 8004b28:	4601      	mov	r1, r0
 8004b2a:	4628      	mov	r0, r5
 8004b2c:	f7fb fbe2 	bl	80002f4 <__aeabi_fsub>
 8004b30:	f04f 517c 	mov.w	r1, #1056964608	; 0x3f000000
 8004b34:	f7fb fe86 	bl	8000844 <__aeabi_fcmplt>
 8004b38:	2800      	cmp	r0, #0
 8004b3a:	bf14      	ite	ne
 8004b3c:	4620      	movne	r0, r4
 8004b3e:	1c60      	addeq	r0, r4, #1
    }
 8004b40:	bd38      	pop	{r3, r4, r5, pc}
            return (int) f - (f - (int) f < -0.5f ? 1 : 0);
 8004b42:	4628      	mov	r0, r5
 8004b44:	f7fb fea6 	bl	8000894 <__aeabi_f2iz>
 8004b48:	4604      	mov	r4, r0
 8004b4a:	f7fb fc89 	bl	8000460 <__aeabi_i2f>
 8004b4e:	4601      	mov	r1, r0
 8004b50:	4628      	mov	r0, r5
 8004b52:	f7fb fbcf 	bl	80002f4 <__aeabi_fsub>
 8004b56:	f04f 413f 	mov.w	r1, #3204448256	; 0xbf000000
 8004b5a:	f7fb fe73 	bl	8000844 <__aeabi_fcmplt>
 8004b5e:	2800      	cmp	r0, #0
 8004b60:	bf0c      	ite	eq
 8004b62:	4620      	moveq	r0, r4
 8004b64:	1e60      	subne	r0, r4, #1
    }
 8004b66:	bd38      	pop	{r3, r4, r5, pc}
 8004b68:	3c74242a 	.word	0x3c74242a
 8004b6c:	00000000 	.word	0x00000000

08004b70 <_ZN5L64708get_markEv>:
    virtual signed int get_mark(void)
 8004b70:	b508      	push	{r3, lr}
        return (signed int) L6470_AbsPos_2_Position((uint32_t) L6470_GetParam((eL6470_RegId_t) L6470_MARK_ID));
 8004b72:	2102      	movs	r1, #2
 8004b74:	f7ff fd14 	bl	80045a0 <_ZN5L647014L6470_GetParamE14eL6470_RegId_t>
  if (AbsPos > L6470_MAX_POSITION)
 8004b78:	f5b0 1f00 	cmp.w	r0, #2097152	; 0x200000
    return (AbsPos - (L6470_POSITION_RANGE + 1));
 8004b7c:	bf28      	it	cs
 8004b7e:	f5a0 0080 	subcs.w	r0, r0, #4194304	; 0x400000
    }
 8004b82:	bd08      	pop	{r3, pc}
	...

08004b90 <_ZN5L647013get_parameterEj>:
        return (unsigned int) L6470_GetParam((eL6470_RegId_t) parameter);
 8004b90:	b2c9      	uxtb	r1, r1
 8004b92:	f7ff bd05 	b.w	80045a0 <_ZN5L647014L6470_GetParamE14eL6470_RegId_t>
 8004b96:	bf00      	nop
	...

08004ba0 <_ZN5L647014L6470_SetParamE14eL6470_RegId_tm>:
{
 8004ba0:	b5f8      	push	{r3, r4, r5, r6, r7, lr}
  if(!L6470_DaisyChain_HalfPrepared)
 8004ba2:	4d0f      	ldr	r5, [pc, #60]	; (8004be0 <_ZN5L647014L6470_SetParamE14eL6470_RegId_tm+0x40>)
    (pL6470_AppCmdPkg+id)->L6470_AppCmdId=(eL6470_AppCmdId_t)0;
 8004ba4:	4c0f      	ldr	r4, [pc, #60]	; (8004be4 <_ZN5L647014L6470_SetParamE14eL6470_RegId_tm+0x44>)
  if(!L6470_DaisyChain_HalfPrepared)
 8004ba6:	782b      	ldrb	r3, [r5, #0]
 8004ba8:	b94b      	cbnz	r3, 8004bbe <_ZN5L647014L6470_SetParamE14eL6470_RegId_tm+0x1e>
    (pL6470_AppCmdPkg+id)->p2=0;
 8004baa:	e9c4 3301 	strd	r3, r3, [r4, #4]
 8004bae:	e9c4 3305 	strd	r3, r3, [r4, #20]
    L6470_DaisyChain_HalfPrepared = ONE_F; /* To avoid to delete the previous entered command */
 8004bb2:	2601      	movs	r6, #1
    (pL6470_AppCmdPkg+id)->L6470_AppCmdId=(eL6470_AppCmdId_t)0;
 8004bb4:	7023      	strb	r3, [r4, #0]
    (pL6470_AppCmdPkg+id)->p3=0;
 8004bb6:	60e3      	str	r3, [r4, #12]
    (pL6470_AppCmdPkg+id)->L6470_AppCmdId=(eL6470_AppCmdId_t)0;
 8004bb8:	7423      	strb	r3, [r4, #16]
    (pL6470_AppCmdPkg+id)->p3=0;
 8004bba:	61e3      	str	r3, [r4, #28]
    L6470_DaisyChain_HalfPrepared = ONE_F; /* To avoid to delete the previous entered command */
 8004bbc:	702e      	strb	r6, [r5, #0]
  (pL6470_AppCmdPkg+L6470_Id)->L6470_AppCmdId = L6470_AppCmdId;
 8004bbe:	7d43      	ldrb	r3, [r0, #21]
 8004bc0:	011e      	lsls	r6, r3, #4
 8004bc2:	eb04 1303 	add.w	r3, r4, r3, lsl #4
 8004bc6:	2701      	movs	r7, #1
  (pL6470_AppCmdPkg+L6470_Id)->p3 = p3;
 8004bc8:	2500      	movs	r5, #0
  (pL6470_AppCmdPkg+L6470_Id)->L6470_AppCmdId = L6470_AppCmdId;
 8004bca:	55a7      	strb	r7, [r4, r6]
  (pL6470_AppCmdPkg+L6470_Id)->p2 = p2;
 8004bcc:	e9c3 1201 	strd	r1, r2, [r3, #4]
  (pL6470_AppCmdPkg+L6470_Id)->p3 = p3;
 8004bd0:	60dd      	str	r5, [r3, #12]
  L6470_PrepareDaisyChainCommand(L6470_AppCmdPkg, (uint8_t*)L6470_DaisyChainSpiTxStruct);
 8004bd2:	f7fd fded 	bl	80027b0 <_ZN5L647030L6470_PrepareDaisyChainCommandEP18sL6470_AppCmdPkg_tPh.constprop.0>
}
 8004bd6:	e8bd 40f8 	ldmia.w	sp!, {r3, r4, r5, r6, r7, lr}
  L6470_DaisyChainCommand((uint8_t*)L6470_DaisyChainSpiTxStruct, (uint8_t*)L6470_DaisyChainSpiRxStruct);
 8004bda:	f7ff b8d1 	b.w	8003d80 <_ZN5L647023L6470_DaisyChainCommandEPhS0_.constprop.0>
 8004bde:	bf00      	nop
 8004be0:	20001208 	.word	0x20001208
 8004be4:	200011d4 	.word	0x200011d4
	...

08004bf0 <_ZN5L647016set_decelerationEj>:
    virtual bool set_deceleration(unsigned int deceleration)
 8004bf0:	b538      	push	{r3, r4, r5, lr}
 8004bf2:	4604      	mov	r4, r0
        L6470_SetParam((eL6470_RegId_t) L6470_DEC_ID, (uint32_t) L6470_Step_s2_2_Dec((float) deceleration));
 8004bf4:	4608      	mov	r0, r1
 8004bf6:	f7fb fc2f 	bl	8000458 <__aeabi_ui2f>
  if (Step_s2 <= (L6470_MAX_ACC * ((float)1.4552e1)))
 8004bfa:	490c      	ldr	r1, [pc, #48]	; (8004c2c <_ZN5L647016set_decelerationEj+0x3c>)
 8004bfc:	4605      	mov	r5, r0
 8004bfe:	f7fb fe2b 	bl	8000858 <__aeabi_fcmple>
 8004c02:	b160      	cbz	r0, 8004c1e <_ZN5L647016set_decelerationEj+0x2e>
    return (uint16_t)(Step_s2 / ((float)1.4552e1));
 8004c04:	490a      	ldr	r1, [pc, #40]	; (8004c30 <_ZN5L647016set_decelerationEj+0x40>)
 8004c06:	4628      	mov	r0, r5
 8004c08:	f7fb fd32 	bl	8000670 <__aeabi_fdiv>
 8004c0c:	f7fb fe68 	bl	80008e0 <__aeabi_f2uiz>
 8004c10:	2105      	movs	r1, #5
 8004c12:	b282      	uxth	r2, r0
 8004c14:	4620      	mov	r0, r4
 8004c16:	f7ff ffc3 	bl	8004ba0 <_ZN5L647014L6470_SetParamE14eL6470_RegId_tm>
    }
 8004c1a:	2001      	movs	r0, #1
 8004c1c:	bd38      	pop	{r3, r4, r5, pc}
 8004c1e:	4602      	mov	r2, r0
        L6470_SetParam((eL6470_RegId_t) L6470_DEC_ID, (uint32_t) L6470_Step_s2_2_Dec((float) deceleration));
 8004c20:	2105      	movs	r1, #5
 8004c22:	4620      	mov	r0, r4
 8004c24:	f7ff ffbc 	bl	8004ba0 <_ZN5L647014L6470_SetParamE14eL6470_RegId_tm>
    }
 8004c28:	2001      	movs	r0, #1
 8004c2a:	bd38      	pop	{r3, r4, r5, pc}
 8004c2c:	4768c671 	.word	0x4768c671
 8004c30:	4168d4fe 	.word	0x4168d4fe
	...

08004c40 <_ZN5L647016set_accelerationEj>:
    virtual bool set_acceleration(unsigned int acceleration)
 8004c40:	b538      	push	{r3, r4, r5, lr}
 8004c42:	4604      	mov	r4, r0
        L6470_SetParam((eL6470_RegId_t) L6470_ACC_ID, (uint32_t) L6470_Step_s2_2_Acc((float) acceleration));
 8004c44:	4608      	mov	r0, r1
 8004c46:	f7fb fc07 	bl	8000458 <__aeabi_ui2f>
  if (Step_s2 <= (L6470_MAX_ACC * ((float)1.4552e1)))
 8004c4a:	490c      	ldr	r1, [pc, #48]	; (8004c7c <_ZN5L647016set_accelerationEj+0x3c>)
 8004c4c:	4605      	mov	r5, r0
 8004c4e:	f7fb fe03 	bl	8000858 <__aeabi_fcmple>
 8004c52:	b160      	cbz	r0, 8004c6e <_ZN5L647016set_accelerationEj+0x2e>
    return (uint16_t)(Step_s2 / ((float)1.4552e1));
 8004c54:	490a      	ldr	r1, [pc, #40]	; (8004c80 <_ZN5L647016set_accelerationEj+0x40>)
 8004c56:	4628      	mov	r0, r5
 8004c58:	f7fb fd0a 	bl	8000670 <__aeabi_fdiv>
 8004c5c:	f7fb fe40 	bl	80008e0 <__aeabi_f2uiz>
 8004c60:	2104      	movs	r1, #4
 8004c62:	b282      	uxth	r2, r0
 8004c64:	4620      	mov	r0, r4
 8004c66:	f7ff ff9b 	bl	8004ba0 <_ZN5L647014L6470_SetParamE14eL6470_RegId_tm>
    }
 8004c6a:	2001      	movs	r0, #1
 8004c6c:	bd38      	pop	{r3, r4, r5, pc}
 8004c6e:	4602      	mov	r2, r0
        L6470_SetParam((eL6470_RegId_t) L6470_ACC_ID, (uint32_t) L6470_Step_s2_2_Acc((float) acceleration));
 8004c70:	2104      	movs	r1, #4
 8004c72:	4620      	mov	r0, r4
 8004c74:	f7ff ff94 	bl	8004ba0 <_ZN5L647014L6470_SetParamE14eL6470_RegId_tm>
    }
 8004c78:	2001      	movs	r0, #1
 8004c7a:	bd38      	pop	{r3, r4, r5, pc}
 8004c7c:	4768c671 	.word	0x4768c671
 8004c80:	4168d4fe 	.word	0x4168d4fe
	...

08004c90 <_ZN5L647013set_min_speedEj>:
    virtual bool set_min_speed(unsigned int speed)
 8004c90:	b538      	push	{r3, r4, r5, lr}
 8004c92:	4604      	mov	r4, r0
        L6470_SetParam((eL6470_RegId_t) L6470_MIN_SPEED_ID, (uint32_t) L6470_Step_s_2_MinSpeed((float) speed));
 8004c94:	4608      	mov	r0, r1
 8004c96:	f7fb fbdf 	bl	8000458 <__aeabi_ui2f>
  if (Step_s <= (L6470_MAX_MIN_SPEED * ((float)238.4186e-3)))
 8004c9a:	490c      	ldr	r1, [pc, #48]	; (8004ccc <_ZN5L647013set_min_speedEj+0x3c>)
 8004c9c:	4605      	mov	r5, r0
 8004c9e:	f7fb fddb 	bl	8000858 <__aeabi_fcmple>
 8004ca2:	b160      	cbz	r0, 8004cbe <_ZN5L647013set_min_speedEj+0x2e>
    return (uint16_t)(Step_s / ((float)238.4186e-3));
 8004ca4:	490a      	ldr	r1, [pc, #40]	; (8004cd0 <_ZN5L647013set_min_speedEj+0x40>)
 8004ca6:	4628      	mov	r0, r5
 8004ca8:	f7fb fce2 	bl	8000670 <__aeabi_fdiv>
 8004cac:	f7fb fe18 	bl	80008e0 <__aeabi_f2uiz>
 8004cb0:	2107      	movs	r1, #7
 8004cb2:	b282      	uxth	r2, r0
 8004cb4:	4620      	mov	r0, r4
 8004cb6:	f7ff ff73 	bl	8004ba0 <_ZN5L647014L6470_SetParamE14eL6470_RegId_tm>
    }
 8004cba:	2001      	movs	r0, #1
 8004cbc:	bd38      	pop	{r3, r4, r5, pc}
 8004cbe:	4602      	mov	r2, r0
        L6470_SetParam((eL6470_RegId_t) L6470_MIN_SPEED_ID, (uint32_t) L6470_Step_s_2_MinSpeed((float) speed));
 8004cc0:	2107      	movs	r1, #7
 8004cc2:	4620      	mov	r0, r4
 8004cc4:	f7ff ff6c 	bl	8004ba0 <_ZN5L647014L6470_SetParamE14eL6470_RegId_tm>
    }
 8004cc8:	2001      	movs	r0, #1
 8004cca:	bd38      	pop	{r3, r4, r5, pc}
 8004ccc:	447414bf 	.word	0x447414bf
 8004cd0:	3e742401 	.word	0x3e742401
	...

08004ce0 <_ZN5L647013set_max_speedEj>:
    virtual bool set_max_speed(unsigned int speed)
 8004ce0:	b538      	push	{r3, r4, r5, lr}
 8004ce2:	4604      	mov	r4, r0
        L6470_SetParam((eL6470_RegId_t) L6470_MAX_SPEED_ID, (uint32_t) L6470_Step_s_2_MaxSpeed((float) speed));
 8004ce4:	4608      	mov	r0, r1
 8004ce6:	f7fb fbb7 	bl	8000458 <__aeabi_ui2f>
  if (Step_s <= (L6470_MAX_MAX_SPEED * ((float)15.2588)))
 8004cea:	490c      	ldr	r1, [pc, #48]	; (8004d1c <_ZN5L647013set_max_speedEj+0x3c>)
 8004cec:	4605      	mov	r5, r0
 8004cee:	f7fb fdb3 	bl	8000858 <__aeabi_fcmple>
 8004cf2:	b160      	cbz	r0, 8004d0e <_ZN5L647013set_max_speedEj+0x2e>
    return (uint16_t)(Step_s / ((float)15.2588));
 8004cf4:	490a      	ldr	r1, [pc, #40]	; (8004d20 <_ZN5L647013set_max_speedEj+0x40>)
 8004cf6:	4628      	mov	r0, r5
 8004cf8:	f7fb fcba 	bl	8000670 <__aeabi_fdiv>
 8004cfc:	f7fb fdf0 	bl	80008e0 <__aeabi_f2uiz>
 8004d00:	2106      	movs	r1, #6
 8004d02:	b282      	uxth	r2, r0
 8004d04:	4620      	mov	r0, r4
 8004d06:	f7ff ff4b 	bl	8004ba0 <_ZN5L647014L6470_SetParamE14eL6470_RegId_tm>
    }
 8004d0a:	2001      	movs	r0, #1
 8004d0c:	bd38      	pop	{r3, r4, r5, pc}
 8004d0e:	4602      	mov	r2, r0
        L6470_SetParam((eL6470_RegId_t) L6470_MAX_SPEED_ID, (uint32_t) L6470_Step_s_2_MaxSpeed((float) speed));
 8004d10:	2106      	movs	r1, #6
 8004d12:	4620      	mov	r0, r4
 8004d14:	f7ff ff44 	bl	8004ba0 <_ZN5L647014L6470_SetParamE14eL6470_RegId_tm>
    }
 8004d18:	2001      	movs	r0, #1
 8004d1a:	bd38      	pop	{r3, r4, r5, pc}
 8004d1c:	4673e702 	.word	0x4673e702
 8004d20:	4174240b 	.word	0x4174240b
	...

08004d30 <_ZN5L64708set_markEi>:
    virtual void set_mark(signed int position)
 8004d30:	b508      	push	{r3, lr}
 8004d32:	4603      	mov	r3, r0
        L6470_SetParam((eL6470_RegId_t) L6470_MARK_ID, (uint32_t) L6470_Position_2_AbsPos((int32_t) position));
 8004d34:	4608      	mov	r0, r1
 8004d36:	f7fd fde3 	bl	8002900 <_ZN5L647023L6470_Position_2_AbsPosEl.constprop.0>
 8004d3a:	2102      	movs	r1, #2
 8004d3c:	4602      	mov	r2, r0
 8004d3e:	4618      	mov	r0, r3
    }
 8004d40:	e8bd 4008 	ldmia.w	sp!, {r3, lr}
        L6470_SetParam((eL6470_RegId_t) L6470_MARK_ID, (uint32_t) L6470_Position_2_AbsPos((int32_t) position));
 8004d44:	f7ff bf2c 	b.w	8004ba0 <_ZN5L647014L6470_SetParamE14eL6470_RegId_tm>
	...

08004d50 <_ZN5L64708set_markEv>:
    virtual void set_mark(void)
 8004d50:	b510      	push	{r4, lr}
        L6470_SetParam((eL6470_RegId_t) L6470_MARK_ID, (uint32_t) L6470_GetParam((eL6470_RegId_t) L6470_ABS_POS_ID));
 8004d52:	2100      	movs	r1, #0
    virtual void set_mark(void)
 8004d54:	4604      	mov	r4, r0
        L6470_SetParam((eL6470_RegId_t) L6470_MARK_ID, (uint32_t) L6470_GetParam((eL6470_RegId_t) L6470_ABS_POS_ID));
 8004d56:	f7ff fc23 	bl	80045a0 <_ZN5L647014L6470_GetParamE14eL6470_RegId_t>
 8004d5a:	2102      	movs	r1, #2
 8004d5c:	4602      	mov	r2, r0
 8004d5e:	4620      	mov	r0, r4
    }
 8004d60:	e8bd 4010 	ldmia.w	sp!, {r4, lr}
        L6470_SetParam((eL6470_RegId_t) L6470_MARK_ID, (uint32_t) L6470_GetParam((eL6470_RegId_t) L6470_ABS_POS_ID));
 8004d64:	f7ff bf1c 	b.w	8004ba0 <_ZN5L647014L6470_SetParamE14eL6470_RegId_tm>
	...

08004d70 <_ZN5L647013set_parameterEjj>:
        L6470_SetParam((eL6470_RegId_t) parameter, (uint32_t) value);
 8004d70:	b2c9      	uxtb	r1, r1
 8004d72:	f7ff bf15 	b.w	8004ba0 <_ZN5L647014L6470_SetParamE14eL6470_RegId_tm>
 8004d76:	bf00      	nop
	...

08004d80 <_ZN5L647013set_step_modeEN12StepperMotor11step_mode_tE>:
        if ((eMotorStepMode_t) step_mode > MICROSTEP_1_128) {
 8004d80:	2907      	cmp	r1, #7
 8004d82:	d810      	bhi.n	8004da6 <_ZN5L647013set_step_modeEN12StepperMotor11step_mode_tE+0x26>
    virtual bool set_step_mode(step_mode_t step_mode)
 8004d84:	b538      	push	{r3, r4, r5, lr}
        soft_hiz();
 8004d86:	6803      	ldr	r3, [r0, #0]
 8004d88:	4a09      	ldr	r2, [pc, #36]	; (8004db0 <_ZN5L647013set_step_modeEN12StepperMotor11step_mode_tE+0x30>)
 8004d8a:	6e5b      	ldr	r3, [r3, #100]	; 0x64
 8004d8c:	4293      	cmp	r3, r2
 8004d8e:	460c      	mov	r4, r1
 8004d90:	4605      	mov	r5, r0
 8004d92:	d10a      	bne.n	8004daa <_ZN5L647013set_step_modeEN12StepperMotor11step_mode_tE+0x2a>
        L6470_SoftHiZ();
 8004d94:	f7ff fb1c 	bl	80043d0 <_ZN5L647013L6470_SoftHiZEv>
        L6470_SetParam((eL6470_RegId_t) L6470_STEP_MODE_ID, (eMotorStepMode_t) step_mode);
 8004d98:	4628      	mov	r0, r5
 8004d9a:	4622      	mov	r2, r4
 8004d9c:	2115      	movs	r1, #21
 8004d9e:	f7ff feff 	bl	8004ba0 <_ZN5L647014L6470_SetParamE14eL6470_RegId_tm>
 8004da2:	2001      	movs	r0, #1
    }
 8004da4:	bd38      	pop	{r3, r4, r5, pc}
            return false;
 8004da6:	2000      	movs	r0, #0
    }
 8004da8:	4770      	bx	lr
        soft_hiz();
 8004daa:	4798      	blx	r3
 8004dac:	e7f4      	b.n	8004d98 <_ZN5L647013set_step_modeEN12StepperMotor11step_mode_tE+0x18>
 8004dae:	bf00      	nop
 8004db0:	08004421 	.word	0x08004421
	...

08004dc0 <_ZN5L64704initEPv>:
  * @param  init The pointer to the initialization structure.
  */
status_t L6470::L6470_Config(void *init)
{
  /* Reset devices. */
  reset_device();
 8004dc0:	6803      	ldr	r3, [r0, #0]
 8004dc2:	4a8b      	ldr	r2, [pc, #556]	; (8004ff0 <_ZN5L64704initEPv+0x230>)
 8004dc4:	f8d3 3090 	ldr.w	r3, [r3, #144]	; 0x90
 8004dc8:	4293      	cmp	r3, r2
    virtual int init(void *init)
 8004dca:	e92d 41f0 	stmdb	sp!, {r4, r5, r6, r7, r8, lr}
 8004dce:	4604      	mov	r4, r0
 8004dd0:	460d      	mov	r5, r1
 8004dd2:	f040 81d9 	bne.w	8005188 <_ZN5L64704initEPv+0x3c8>
        L6470_ResetDevice();
 8004dd6:	f7ff fb63 	bl	80044a0 <_ZN5L647017L6470_ResetDeviceEv>

  /* Reset Status Register flags. */
  get_status();
 8004dda:	6823      	ldr	r3, [r4, #0]
 8004ddc:	4a85      	ldr	r2, [pc, #532]	; (8004ff4 <_ZN5L64704initEPv+0x234>)
 8004dde:	689b      	ldr	r3, [r3, #8]
 8004de0:	4293      	cmp	r3, r2
        return (unsigned int) L6470_GetStatus();
 8004de2:	4620      	mov	r0, r4
 8004de4:	f040 81d2 	bne.w	800518c <_ZN5L64704initEPv+0x3cc>
 8004de8:	f7ff faba 	bl	8004360 <_ZN5L647015L6470_GetStatusEv>

  /* Prepare the 'Register' field of StepperMotorDriverHandle */
  L6470_init_t *MotorParameterData = (L6470_init_t *) init;
  StepperMotorRegister.ACCEL = L6470_Step_s2_2_Acc(MotorParameterData->acc);
 8004dec:	696e      	ldr	r6, [r5, #20]
  if (Step_s2 <= (L6470_MAX_ACC * ((float)1.4552e1)))
 8004dee:	4982      	ldr	r1, [pc, #520]	; (8004ff8 <_ZN5L64704initEPv+0x238>)
 8004df0:	4630      	mov	r0, r6
 8004df2:	f7fb fd31 	bl	8000858 <__aeabi_fcmple>
 8004df6:	2800      	cmp	r0, #0
 8004df8:	f000 81af 	beq.w	800515a <_ZN5L64704initEPv+0x39a>
    return (uint16_t)(Step_s2 / ((float)1.4552e1));
 8004dfc:	497f      	ldr	r1, [pc, #508]	; (8004ffc <_ZN5L64704initEPv+0x23c>)
 8004dfe:	4630      	mov	r0, r6
 8004e00:	f7fb fc36 	bl	8000670 <__aeabi_fdiv>
 8004e04:	f7fb fd6c 	bl	80008e0 <__aeabi_f2uiz>
 8004e08:	b280      	uxth	r0, r0
 8004e0a:	4607      	mov	r7, r0
  StepperMotorRegister.DECEL = L6470_Step_s2_2_Dec(MotorParameterData->dec);
 8004e0c:	69ae      	ldr	r6, [r5, #24]
  if (Step_s2 <= (L6470_MAX_DEC * ((float)1.4552e1)))
 8004e0e:	497a      	ldr	r1, [pc, #488]	; (8004ff8 <_ZN5L64704initEPv+0x238>)
  StepperMotorRegister.ACCEL = L6470_Step_s2_2_Acc(MotorParameterData->acc);
 8004e10:	f8a4 0040 	strh.w	r0, [r4, #64]	; 0x40
  if (Step_s2 <= (L6470_MAX_DEC * ((float)1.4552e1)))
 8004e14:	4630      	mov	r0, r6
 8004e16:	f7fb fd1f 	bl	8000858 <__aeabi_fcmple>
 8004e1a:	b130      	cbz	r0, 8004e2a <_ZN5L64704initEPv+0x6a>
    return (uint16_t)(Step_s2 / ((float)1.4552e1));
 8004e1c:	4977      	ldr	r1, [pc, #476]	; (8004ffc <_ZN5L64704initEPv+0x23c>)
 8004e1e:	4630      	mov	r0, r6
 8004e20:	f7fb fc26 	bl	8000670 <__aeabi_fdiv>
 8004e24:	f7fb fd5c 	bl	80008e0 <__aeabi_f2uiz>
 8004e28:	b280      	uxth	r0, r0
  StepperMotorRegister.MAX_SPEED = L6470_Step_s_2_MaxSpeed(MotorParameterData->maxspeed);
 8004e2a:	69ee      	ldr	r6, [r5, #28]
  if (Step_s <= (L6470_MAX_MAX_SPEED * ((float)15.2588)))
 8004e2c:	4974      	ldr	r1, [pc, #464]	; (8005000 <_ZN5L64704initEPv+0x240>)
  StepperMotorRegister.DECEL = L6470_Step_s2_2_Dec(MotorParameterData->dec);
 8004e2e:	f8a4 0042 	strh.w	r0, [r4, #66]	; 0x42
  if (Step_s <= (L6470_MAX_MAX_SPEED * ((float)15.2588)))
 8004e32:	4630      	mov	r0, r6
 8004e34:	f7fb fd10 	bl	8000858 <__aeabi_fcmple>
 8004e38:	b130      	cbz	r0, 8004e48 <_ZN5L64704initEPv+0x88>
    return (uint16_t)(Step_s / ((float)15.2588));
 8004e3a:	4972      	ldr	r1, [pc, #456]	; (8005004 <_ZN5L64704initEPv+0x244>)
 8004e3c:	4630      	mov	r0, r6
 8004e3e:	f7fb fc17 	bl	8000670 <__aeabi_fdiv>
 8004e42:	f7fb fd4d 	bl	80008e0 <__aeabi_f2uiz>
 8004e46:	b280      	uxth	r0, r0
  StepperMotorRegister.MIN_SPEED = L6470_Step_s_2_MinSpeed(MotorParameterData->minspeed);
 8004e48:	6a2e      	ldr	r6, [r5, #32]
  if (Step_s <= (L6470_MAX_MIN_SPEED * ((float)238.4186e-3)))
 8004e4a:	496f      	ldr	r1, [pc, #444]	; (8005008 <_ZN5L64704initEPv+0x248>)
  StepperMotorRegister.MAX_SPEED = L6470_Step_s_2_MaxSpeed(MotorParameterData->maxspeed);
 8004e4c:	f8a4 0044 	strh.w	r0, [r4, #68]	; 0x44
  if (Step_s <= (L6470_MAX_MIN_SPEED * ((float)238.4186e-3)))
 8004e50:	4630      	mov	r0, r6
 8004e52:	f7fb fd01 	bl	8000858 <__aeabi_fcmple>
 8004e56:	b130      	cbz	r0, 8004e66 <_ZN5L64704initEPv+0xa6>
    return (uint16_t)(Step_s / ((float)238.4186e-3));
 8004e58:	496c      	ldr	r1, [pc, #432]	; (800500c <_ZN5L64704initEPv+0x24c>)
 8004e5a:	4630      	mov	r0, r6
 8004e5c:	f7fb fc08 	bl	8000670 <__aeabi_fdiv>
 8004e60:	f7fb fd3e 	bl	80008e0 <__aeabi_f2uiz>
 8004e64:	b280      	uxth	r0, r0
  StepperMotorRegister.FS_SPD = L6470_Step_s_2_FsSpd(MotorParameterData->fsspd);
 8004e66:	6a6e      	ldr	r6, [r5, #36]	; 0x24
  if (Step_s <= ((L6470_MAX_FS_SPD+0.5) * ((float)15.25)))
 8004e68:	4969      	ldr	r1, [pc, #420]	; (8005010 <_ZN5L64704initEPv+0x250>)
  StepperMotorRegister.MIN_SPEED = L6470_Step_s_2_MinSpeed(MotorParameterData->minspeed);
 8004e6a:	f8a4 0046 	strh.w	r0, [r4, #70]	; 0x46
  if (Step_s <= ((L6470_MAX_FS_SPD+0.5) * ((float)15.25)))
 8004e6e:	4630      	mov	r0, r6
 8004e70:	f7fb fcf2 	bl	8000858 <__aeabi_fcmple>
 8004e74:	b150      	cbz	r0, 8004e8c <_ZN5L64704initEPv+0xcc>
    return (uint16_t)((float)(Step_s / ((float)15.25)) - (float)0.5);
 8004e76:	4967      	ldr	r1, [pc, #412]	; (8005014 <_ZN5L64704initEPv+0x254>)
 8004e78:	4630      	mov	r0, r6
 8004e7a:	f7fb fbf9 	bl	8000670 <__aeabi_fdiv>
 8004e7e:	f04f 517c 	mov.w	r1, #1056964608	; 0x3f000000
 8004e82:	f7fb fa37 	bl	80002f4 <__aeabi_fsub>
 8004e86:	f7fb fd2b 	bl	80008e0 <__aeabi_f2uiz>
 8004e8a:	b280      	uxth	r0, r0
  StepperMotorRegister.KVAL_HOLD = (uint8_t)((float)((float)(MotorParameterData->kvalhold * 256) / (MotorParameterData->motorvoltage)));
 8004e8c:	682e      	ldr	r6, [r5, #0]
  StepperMotorRegister.FS_SPD = L6470_Step_s_2_FsSpd(MotorParameterData->fsspd);
 8004e8e:	f8a4 0048 	strh.w	r0, [r4, #72]	; 0x48
  StepperMotorRegister.KVAL_HOLD = (uint8_t)((float)((float)(MotorParameterData->kvalhold * 256) / (MotorParameterData->motorvoltage)));
 8004e92:	f04f 4187 	mov.w	r1, #1132462080	; 0x43800000
 8004e96:	6aa8      	ldr	r0, [r5, #40]	; 0x28
 8004e98:	f7fb fb36 	bl	8000508 <__aeabi_fmul>
 8004e9c:	4631      	mov	r1, r6
 8004e9e:	f7fb fbe7 	bl	8000670 <__aeabi_fdiv>
 8004ea2:	f7fb fd1d 	bl	80008e0 <__aeabi_f2uiz>
 8004ea6:	f884 004a 	strb.w	r0, [r4, #74]	; 0x4a
  StepperMotorRegister.KVAL_RUN = (uint8_t)((float)((float)(MotorParameterData->kvalrun * 256) / (MotorParameterData->motorvoltage)));
 8004eaa:	6ae8      	ldr	r0, [r5, #44]	; 0x2c
 8004eac:	f04f 4187 	mov.w	r1, #1132462080	; 0x43800000
 8004eb0:	f7fb fb2a 	bl	8000508 <__aeabi_fmul>
 8004eb4:	4631      	mov	r1, r6
 8004eb6:	f7fb fbdb 	bl	8000670 <__aeabi_fdiv>
 8004eba:	f7fb fd11 	bl	80008e0 <__aeabi_f2uiz>
 8004ebe:	f884 004b 	strb.w	r0, [r4, #75]	; 0x4b
  StepperMotorRegister.KVAL_ACC = (uint8_t)((float)((float)(MotorParameterData->kvalacc * 256) / (MotorParameterData->motorvoltage)));
 8004ec2:	6b28      	ldr	r0, [r5, #48]	; 0x30
 8004ec4:	f04f 4187 	mov.w	r1, #1132462080	; 0x43800000
 8004ec8:	f7fb fb1e 	bl	8000508 <__aeabi_fmul>
 8004ecc:	4631      	mov	r1, r6
 8004ece:	f7fb fbcf 	bl	8000670 <__aeabi_fdiv>
 8004ed2:	f7fb fd05 	bl	80008e0 <__aeabi_f2uiz>
 8004ed6:	f884 004c 	strb.w	r0, [r4, #76]	; 0x4c
  StepperMotorRegister.KVAL_DEC = (uint8_t)((float)((float)(MotorParameterData->kvaldec * 256) / (MotorParameterData->motorvoltage)));
 8004eda:	6b68      	ldr	r0, [r5, #52]	; 0x34
 8004edc:	f04f 4187 	mov.w	r1, #1132462080	; 0x43800000
 8004ee0:	f7fb fb12 	bl	8000508 <__aeabi_fmul>
 8004ee4:	4631      	mov	r1, r6
 8004ee6:	f7fb fbc3 	bl	8000670 <__aeabi_fdiv>
 8004eea:	f7fb fcf9 	bl	80008e0 <__aeabi_f2uiz>
 8004eee:	f884 004d 	strb.w	r0, [r4, #77]	; 0x4d
  StepperMotorRegister.INT_SPEED = L6470_Step_s_2_IntSpeed(MotorParameterData->intspeed);
 8004ef2:	6bae      	ldr	r6, [r5, #56]	; 0x38
  if (Step_s <= (L6470_MAX_INT_SPEED * ((float)59.6046e-3)))
 8004ef4:	4948      	ldr	r1, [pc, #288]	; (8005018 <_ZN5L64704initEPv+0x258>)
 8004ef6:	4630      	mov	r0, r6
 8004ef8:	f7fb fcae 	bl	8000858 <__aeabi_fcmple>
 8004efc:	b130      	cbz	r0, 8004f0c <_ZN5L64704initEPv+0x14c>
    return (uint16_t)(Step_s / ((float)59.6046e-3));
 8004efe:	4947      	ldr	r1, [pc, #284]	; (800501c <_ZN5L64704initEPv+0x25c>)
 8004f00:	4630      	mov	r0, r6
 8004f02:	f7fb fbb5 	bl	8000670 <__aeabi_fdiv>
 8004f06:	f7fb fceb 	bl	80008e0 <__aeabi_f2uiz>
 8004f0a:	b280      	uxth	r0, r0
  StepperMotorRegister.ST_SLP = L6470_s_Step_2_StSlp(MotorParameterData->stslp);
 8004f0c:	6bee      	ldr	r6, [r5, #60]	; 0x3c
  if (s_Step <= (L6470_MAX_ST_SLP * ((float)1.5686e-5)))
 8004f0e:	4944      	ldr	r1, [pc, #272]	; (8005020 <_ZN5L64704initEPv+0x260>)
  StepperMotorRegister.INT_SPEED = L6470_Step_s_2_IntSpeed(MotorParameterData->intspeed);
 8004f10:	f8a4 004e 	strh.w	r0, [r4, #78]	; 0x4e
  if (s_Step <= (L6470_MAX_ST_SLP * ((float)1.5686e-5)))
 8004f14:	4630      	mov	r0, r6
 8004f16:	f7fb fc9f 	bl	8000858 <__aeabi_fcmple>
 8004f1a:	b130      	cbz	r0, 8004f2a <_ZN5L64704initEPv+0x16a>
    return (uint8_t)(s_Step / ((float)1.5686e-5));
 8004f1c:	4941      	ldr	r1, [pc, #260]	; (8005024 <_ZN5L64704initEPv+0x264>)
 8004f1e:	4630      	mov	r0, r6
 8004f20:	f7fb fba6 	bl	8000670 <__aeabi_fdiv>
 8004f24:	f7fb fcdc 	bl	80008e0 <__aeabi_f2uiz>
 8004f28:	b2c0      	uxtb	r0, r0
  StepperMotorRegister.ST_SLP = L6470_s_Step_2_StSlp(MotorParameterData->stslp);
 8004f2a:	f884 0050 	strb.w	r0, [r4, #80]	; 0x50
  StepperMotorRegister.FN_SLP_ACC = L6470_s_Step_2_FnSlpAcc(MotorParameterData->fnslpacc);
 8004f2e:	6c2e      	ldr	r6, [r5, #64]	; 0x40
  if (s_Step <= (L6470_MAX_FN_SLP_ACC * ((float)1.5686e-5)))
 8004f30:	493b      	ldr	r1, [pc, #236]	; (8005020 <_ZN5L64704initEPv+0x260>)
 8004f32:	4630      	mov	r0, r6
 8004f34:	f7fb fc90 	bl	8000858 <__aeabi_fcmple>
 8004f38:	b130      	cbz	r0, 8004f48 <_ZN5L64704initEPv+0x188>
    return (uint8_t)(s_Step / ((float)1.5686e-5));
 8004f3a:	493a      	ldr	r1, [pc, #232]	; (8005024 <_ZN5L64704initEPv+0x264>)
 8004f3c:	4630      	mov	r0, r6
 8004f3e:	f7fb fb97 	bl	8000670 <__aeabi_fdiv>
 8004f42:	f7fb fccd 	bl	80008e0 <__aeabi_f2uiz>
 8004f46:	b2c0      	uxtb	r0, r0
  StepperMotorRegister.FN_SLP_ACC = L6470_s_Step_2_FnSlpAcc(MotorParameterData->fnslpacc);
 8004f48:	f884 0051 	strb.w	r0, [r4, #81]	; 0x51
  StepperMotorRegister.FN_SLP_DEC = L6470_s_Step_2_FnSlpDec(MotorParameterData->fnslpdec);
 8004f4c:	6c6e      	ldr	r6, [r5, #68]	; 0x44
  if (s_Step <= (L6470_MAX_FN_SLP_DEC * ((float)1.5686e-5)))
 8004f4e:	4934      	ldr	r1, [pc, #208]	; (8005020 <_ZN5L64704initEPv+0x260>)
 8004f50:	4630      	mov	r0, r6
 8004f52:	f7fb fc81 	bl	8000858 <__aeabi_fcmple>
 8004f56:	b130      	cbz	r0, 8004f66 <_ZN5L64704initEPv+0x1a6>
    return (uint8_t)(s_Step / ((float)1.5686e-5));
 8004f58:	4932      	ldr	r1, [pc, #200]	; (8005024 <_ZN5L64704initEPv+0x264>)
 8004f5a:	4630      	mov	r0, r6
 8004f5c:	f7fb fb88 	bl	8000670 <__aeabi_fdiv>
 8004f60:	f7fb fcbe 	bl	80008e0 <__aeabi_f2uiz>
 8004f64:	b2c0      	uxtb	r0, r0
  StepperMotorRegister.FN_SLP_DEC = L6470_s_Step_2_FnSlpDec(MotorParameterData->fnslpdec);
 8004f66:	f884 0052 	strb.w	r0, [r4, #82]	; 0x52
  StepperMotorRegister.K_THERM = MotorParameterData->kterm;
 8004f6a:	f895 3048 	ldrb.w	r3, [r5, #72]	; 0x48
 8004f6e:	f884 3053 	strb.w	r3, [r4, #83]	; 0x53
  StepperMotorRegister.OCD_TH = L6470_mA_2_OcdTh(MotorParameterData->ocdth);
 8004f72:	6cee      	ldr	r6, [r5, #76]	; 0x4c
  if (mA <= ((L6470_MAX_OCD_TH+1) * ((float)375)))
 8004f74:	492c      	ldr	r1, [pc, #176]	; (8005028 <_ZN5L64704initEPv+0x268>)
 8004f76:	4630      	mov	r0, r6
 8004f78:	f7fb fc6e 	bl	8000858 <__aeabi_fcmple>
 8004f7c:	2800      	cmp	r0, #0
 8004f7e:	f000 80f6 	beq.w	800516e <_ZN5L64704initEPv+0x3ae>
    result = (mA / ((float)375));
 8004f82:	492a      	ldr	r1, [pc, #168]	; (800502c <_ZN5L64704initEPv+0x26c>)
 8004f84:	4630      	mov	r0, r6
 8004f86:	f7fb fb73 	bl	8000670 <__aeabi_fdiv>
 8004f8a:	4680      	mov	r8, r0
    decimal = result - (uint8_t)result;
 8004f8c:	f7fb fca8 	bl	80008e0 <__aeabi_f2uiz>
 8004f90:	b2c6      	uxtb	r6, r0
 8004f92:	4630      	mov	r0, r6
 8004f94:	f7fb fa64 	bl	8000460 <__aeabi_i2f>
 8004f98:	4601      	mov	r1, r0
 8004f9a:	4640      	mov	r0, r8
 8004f9c:	f7fb f9aa 	bl	80002f4 <__aeabi_fsub>
    if (decimal < (float)0.5)
 8004fa0:	f04f 517c 	mov.w	r1, #1056964608	; 0x3f000000
 8004fa4:	f7fb fc4e 	bl	8000844 <__aeabi_fcmplt>
 8004fa8:	2800      	cmp	r0, #0
 8004faa:	f040 80db 	bne.w	8005164 <_ZN5L64704initEPv+0x3a4>
  StepperMotorRegister.OCD_TH = L6470_mA_2_OcdTh(MotorParameterData->ocdth);
 8004fae:	f884 6055 	strb.w	r6, [r4, #85]	; 0x55
  StepperMotorRegister.STALL_TH = L6470_mA_2_StallTh(MotorParameterData->stallth);
 8004fb2:	6d2e      	ldr	r6, [r5, #80]	; 0x50
  if (mA <= ((L6470_MAX_STALL_TH+1) * ((float)31.25)))
 8004fb4:	491e      	ldr	r1, [pc, #120]	; (8005030 <_ZN5L64704initEPv+0x270>)
 8004fb6:	4630      	mov	r0, r6
 8004fb8:	f7fb fc4e 	bl	8000858 <__aeabi_fcmple>
 8004fbc:	2800      	cmp	r0, #0
 8004fbe:	f000 80d4 	beq.w	800516a <_ZN5L64704initEPv+0x3aa>
    result = (mA / ((float)31.25));
 8004fc2:	491c      	ldr	r1, [pc, #112]	; (8005034 <_ZN5L64704initEPv+0x274>)
 8004fc4:	4630      	mov	r0, r6
 8004fc6:	f7fb fb53 	bl	8000670 <__aeabi_fdiv>
 8004fca:	4680      	mov	r8, r0
    decimal = result - (uint8_t)result;
 8004fcc:	f7fb fc88 	bl	80008e0 <__aeabi_f2uiz>
 8004fd0:	b2c6      	uxtb	r6, r0
 8004fd2:	4630      	mov	r0, r6
 8004fd4:	f7fb fa44 	bl	8000460 <__aeabi_i2f>
 8004fd8:	4601      	mov	r1, r0
 8004fda:	4640      	mov	r0, r8
 8004fdc:	f7fb f98a 	bl	80002f4 <__aeabi_fsub>
    if (decimal < (float)0.5)
 8004fe0:	f04f 517c 	mov.w	r1, #1056964608	; 0x3f000000
 8004fe4:	f7fb fc2e 	bl	8000844 <__aeabi_fcmplt>
 8004fe8:	2800      	cmp	r0, #0
 8004fea:	f040 80b8 	bne.w	800515e <_ZN5L64704initEPv+0x39e>
 8004fee:	e023      	b.n	8005038 <_ZN5L64704initEPv+0x278>
 8004ff0:	080044f1 	.word	0x080044f1
 8004ff4:	080043c1 	.word	0x080043c1
 8004ff8:	4768c671 	.word	0x4768c671
 8004ffc:	4168d4fe 	.word	0x4168d4fe
 8005000:	4673e702 	.word	0x4673e702
 8005004:	4174240b 	.word	0x4174240b
 8005008:	447414bf 	.word	0x447414bf
 800500c:	3e742401 	.word	0x3e742401
 8005010:	4673e180 	.word	0x4673e180
 8005014:	41740000 	.word	0x41740000
 8005018:	44742023 	.word	0x44742023
 800501c:	3d7423f4 	.word	0x3d7423f4
 8005020:	3b8311d9 	.word	0x3b8311d9
 8005024:	3783956e 	.word	0x3783956e
 8005028:	45bb8000 	.word	0x45bb8000
 800502c:	43bb8000 	.word	0x43bb8000
 8005030:	457a0000 	.word	0x457a0000
 8005034:	41fa0000 	.word	0x41fa0000
  StepperMotorRegister.STALL_TH = L6470_mA_2_StallTh(MotorParameterData->stallth);
 8005038:	f884 6056 	strb.w	r6, [r4, #86]	; 0x56
  StepperMotorRegister.ALARM_EN = MotorParameterData->alarmen;
 800503c:	f895 3055 	ldrb.w	r3, [r5, #85]	; 0x55
 8005040:	f884 3058 	strb.w	r3, [r4, #88]	; 0x58
  StepperMotorRegister.CONFIG = MotorParameterData->config;
 8005044:	f8b5 3056 	ldrh.w	r3, [r5, #86]	; 0x56
 8005048:	f8a4 305a 	strh.w	r3, [r4, #90]	; 0x5a
  StepperMotorRegister.STEP_MODE = MotorParameterData->step_sel;
 800504c:	f895 3054 	ldrb.w	r3, [r5, #84]	; 0x54
 8005050:	f884 3057 	strb.w	r3, [r4, #87]	; 0x57

  /* Write the L6470 registers with the prepared data */
  L6470_SetParam(L6470_ACC_ID, StepperMotorRegister.ACCEL);
 8005054:	463a      	mov	r2, r7
 8005056:	2104      	movs	r1, #4
 8005058:	4620      	mov	r0, r4
 800505a:	f7ff fda1 	bl	8004ba0 <_ZN5L647014L6470_SetParamE14eL6470_RegId_tm>
  L6470_SetParam(L6470_DEC_ID, StepperMotorRegister.DECEL);
 800505e:	f8b4 2042 	ldrh.w	r2, [r4, #66]	; 0x42
 8005062:	2105      	movs	r1, #5
 8005064:	4620      	mov	r0, r4
 8005066:	f7ff fd9b 	bl	8004ba0 <_ZN5L647014L6470_SetParamE14eL6470_RegId_tm>
  L6470_SetParam(L6470_MAX_SPEED_ID, StepperMotorRegister.MAX_SPEED);
 800506a:	f8b4 2044 	ldrh.w	r2, [r4, #68]	; 0x44
 800506e:	2106      	movs	r1, #6
 8005070:	4620      	mov	r0, r4
 8005072:	f7ff fd95 	bl	8004ba0 <_ZN5L647014L6470_SetParamE14eL6470_RegId_tm>
  L6470_SetParam(L6470_MIN_SPEED_ID, StepperMotorRegister.MIN_SPEED);
 8005076:	f8b4 2046 	ldrh.w	r2, [r4, #70]	; 0x46
 800507a:	2107      	movs	r1, #7
 800507c:	4620      	mov	r0, r4
 800507e:	f7ff fd8f 	bl	8004ba0 <_ZN5L647014L6470_SetParamE14eL6470_RegId_tm>
  L6470_SetParam(L6470_FS_SPD_ID, StepperMotorRegister.FS_SPD);
 8005082:	f8b4 2048 	ldrh.w	r2, [r4, #72]	; 0x48
 8005086:	2108      	movs	r1, #8
 8005088:	4620      	mov	r0, r4
 800508a:	f7ff fd89 	bl	8004ba0 <_ZN5L647014L6470_SetParamE14eL6470_RegId_tm>
  L6470_SetParam(L6470_KVAL_HOLD_ID, StepperMotorRegister.KVAL_HOLD);
 800508e:	f894 204a 	ldrb.w	r2, [r4, #74]	; 0x4a
 8005092:	2109      	movs	r1, #9
 8005094:	4620      	mov	r0, r4
 8005096:	f7ff fd83 	bl	8004ba0 <_ZN5L647014L6470_SetParamE14eL6470_RegId_tm>
  L6470_SetParam(L6470_KVAL_RUN_ID, StepperMotorRegister.KVAL_RUN);
 800509a:	f894 204b 	ldrb.w	r2, [r4, #75]	; 0x4b
 800509e:	210a      	movs	r1, #10
 80050a0:	4620      	mov	r0, r4
 80050a2:	f7ff fd7d 	bl	8004ba0 <_ZN5L647014L6470_SetParamE14eL6470_RegId_tm>
  L6470_SetParam(L6470_KVAL_ACC_ID, StepperMotorRegister.KVAL_ACC);
 80050a6:	f894 204c 	ldrb.w	r2, [r4, #76]	; 0x4c
 80050aa:	210b      	movs	r1, #11
 80050ac:	4620      	mov	r0, r4
 80050ae:	f7ff fd77 	bl	8004ba0 <_ZN5L647014L6470_SetParamE14eL6470_RegId_tm>
  L6470_SetParam(L6470_KVAL_DEC_ID, StepperMotorRegister.KVAL_DEC);
 80050b2:	f894 204d 	ldrb.w	r2, [r4, #77]	; 0x4d
 80050b6:	210c      	movs	r1, #12
 80050b8:	4620      	mov	r0, r4
 80050ba:	f7ff fd71 	bl	8004ba0 <_ZN5L647014L6470_SetParamE14eL6470_RegId_tm>
  L6470_SetParam(L6470_INT_SPEED_ID, StepperMotorRegister.INT_SPEED);
 80050be:	f8b4 204e 	ldrh.w	r2, [r4, #78]	; 0x4e
 80050c2:	210d      	movs	r1, #13
 80050c4:	4620      	mov	r0, r4
 80050c6:	f7ff fd6b 	bl	8004ba0 <_ZN5L647014L6470_SetParamE14eL6470_RegId_tm>
  L6470_SetParam(L6470_ST_SLP_ID, StepperMotorRegister.ST_SLP);
 80050ca:	f894 2050 	ldrb.w	r2, [r4, #80]	; 0x50
 80050ce:	210e      	movs	r1, #14
 80050d0:	4620      	mov	r0, r4
 80050d2:	f7ff fd65 	bl	8004ba0 <_ZN5L647014L6470_SetParamE14eL6470_RegId_tm>
  L6470_SetParam(L6470_FN_SLP_ACC_ID, StepperMotorRegister.FN_SLP_ACC);
 80050d6:	f894 2051 	ldrb.w	r2, [r4, #81]	; 0x51
 80050da:	210f      	movs	r1, #15
 80050dc:	4620      	mov	r0, r4
 80050de:	f7ff fd5f 	bl	8004ba0 <_ZN5L647014L6470_SetParamE14eL6470_RegId_tm>
  L6470_SetParam(L6470_FN_SLP_DEC_ID, StepperMotorRegister.FN_SLP_DEC);
 80050e2:	f894 2052 	ldrb.w	r2, [r4, #82]	; 0x52
 80050e6:	2110      	movs	r1, #16
 80050e8:	4620      	mov	r0, r4
 80050ea:	f7ff fd59 	bl	8004ba0 <_ZN5L647014L6470_SetParamE14eL6470_RegId_tm>
  L6470_SetParam(L6470_K_THERM_ID, StepperMotorRegister.K_THERM);
 80050ee:	f894 2053 	ldrb.w	r2, [r4, #83]	; 0x53
 80050f2:	2111      	movs	r1, #17
 80050f4:	4620      	mov	r0, r4
 80050f6:	f7ff fd53 	bl	8004ba0 <_ZN5L647014L6470_SetParamE14eL6470_RegId_tm>
  L6470_SetParam(L6470_OCD_TH_ID, StepperMotorRegister.OCD_TH);
 80050fa:	f894 2055 	ldrb.w	r2, [r4, #85]	; 0x55
 80050fe:	2113      	movs	r1, #19
 8005100:	4620      	mov	r0, r4
 8005102:	f7ff fd4d 	bl	8004ba0 <_ZN5L647014L6470_SetParamE14eL6470_RegId_tm>
  L6470_SetParam(L6470_STALL_TH_ID, StepperMotorRegister.STALL_TH);
 8005106:	f894 2056 	ldrb.w	r2, [r4, #86]	; 0x56
 800510a:	2114      	movs	r1, #20
 800510c:	4620      	mov	r0, r4
 800510e:	f7ff fd47 	bl	8004ba0 <_ZN5L647014L6470_SetParamE14eL6470_RegId_tm>
  L6470_SetParam(L6470_ALARM_EN_ID, StepperMotorRegister.ALARM_EN);
 8005112:	f894 2058 	ldrb.w	r2, [r4, #88]	; 0x58
 8005116:	2116      	movs	r1, #22
 8005118:	4620      	mov	r0, r4
 800511a:	f7ff fd41 	bl	8004ba0 <_ZN5L647014L6470_SetParamE14eL6470_RegId_tm>
  L6470_SetParam(L6470_CONFIG_ID, StepperMotorRegister.CONFIG);
 800511e:	f8b4 205a 	ldrh.w	r2, [r4, #90]	; 0x5a
 8005122:	2117      	movs	r1, #23
 8005124:	4620      	mov	r0, r4
 8005126:	f7ff fd3b 	bl	8004ba0 <_ZN5L647014L6470_SetParamE14eL6470_RegId_tm>
  if (!set_step_mode((StepperMotor::step_mode_t) StepperMotorRegister.STEP_MODE))
 800512a:	6823      	ldr	r3, [r4, #0]
 800512c:	4919      	ldr	r1, [pc, #100]	; (8005194 <_ZN5L64704initEPv+0x3d4>)
 800512e:	6c5a      	ldr	r2, [r3, #68]	; 0x44
 8005130:	f894 5057 	ldrb.w	r5, [r4, #87]	; 0x57
 8005134:	428a      	cmp	r2, r1
 8005136:	d11f      	bne.n	8005178 <_ZN5L64704initEPv+0x3b8>
        if ((eMotorStepMode_t) step_mode > MICROSTEP_1_128) {
 8005138:	2d07      	cmp	r5, #7
 800513a:	d81a      	bhi.n	8005172 <_ZN5L64704initEPv+0x3b2>
        soft_hiz();
 800513c:	6e5b      	ldr	r3, [r3, #100]	; 0x64
 800513e:	4a16      	ldr	r2, [pc, #88]	; (8005198 <_ZN5L64704initEPv+0x3d8>)
 8005140:	4293      	cmp	r3, r2
        L6470_SoftHiZ();
 8005142:	4620      	mov	r0, r4
 8005144:	d124      	bne.n	8005190 <_ZN5L64704initEPv+0x3d0>
 8005146:	f7ff f943 	bl	80043d0 <_ZN5L647013L6470_SoftHiZEv>
        L6470_SetParam((eL6470_RegId_t) L6470_STEP_MODE_ID, (eMotorStepMode_t) step_mode);
 800514a:	4620      	mov	r0, r4
 800514c:	462a      	mov	r2, r5
 800514e:	2115      	movs	r1, #21
 8005150:	f7ff fd26 	bl	8004ba0 <_ZN5L647014L6470_SetParamE14eL6470_RegId_tm>
 8005154:	2000      	movs	r0, #0
    }
 8005156:	e8bd 81f0 	ldmia.w	sp!, {r4, r5, r6, r7, r8, pc}
  if (Step_s2 <= (L6470_MAX_ACC * ((float)1.4552e1)))
 800515a:	4607      	mov	r7, r0
 800515c:	e656      	b.n	8004e0c <_ZN5L64704initEPv+0x4c>
      return ((uint8_t)result - 1);
 800515e:	3e01      	subs	r6, #1
 8005160:	b2f6      	uxtb	r6, r6
 8005162:	e769      	b.n	8005038 <_ZN5L64704initEPv+0x278>
      return ((uint8_t)result - 1);
 8005164:	3e01      	subs	r6, #1
 8005166:	b2f6      	uxtb	r6, r6
 8005168:	e721      	b.n	8004fae <_ZN5L64704initEPv+0x1ee>
    return 0;   // Warning
 800516a:	4606      	mov	r6, r0
 800516c:	e764      	b.n	8005038 <_ZN5L64704initEPv+0x278>
    return 0;   // Warning
 800516e:	4606      	mov	r6, r0
 8005170:	e71d      	b.n	8004fae <_ZN5L64704initEPv+0x1ee>
        if ((eMotorStepMode_t) step_mode > MICROSTEP_1_128) {
 8005172:	2001      	movs	r0, #1
    }
 8005174:	e8bd 81f0 	ldmia.w	sp!, {r4, r5, r6, r7, r8, pc}
  if (!set_step_mode((StepperMotor::step_mode_t) StepperMotorRegister.STEP_MODE))
 8005178:	4629      	mov	r1, r5
 800517a:	4620      	mov	r0, r4
 800517c:	4790      	blx	r2
 800517e:	f080 0001 	eor.w	r0, r0, #1
 8005182:	b2c0      	uxtb	r0, r0
 8005184:	e8bd 81f0 	ldmia.w	sp!, {r4, r5, r6, r7, r8, pc}
  reset_device();
 8005188:	4798      	blx	r3
 800518a:	e626      	b.n	8004dda <_ZN5L64704initEPv+0x1a>
  get_status();
 800518c:	4798      	blx	r3
 800518e:	e62d      	b.n	8004dec <_ZN5L64704initEPv+0x2c>
        soft_hiz();
 8005190:	4798      	blx	r3
 8005192:	e7da      	b.n	800514a <_ZN5L64704initEPv+0x38a>
 8005194:	08004d81 	.word	0x08004d81
 8005198:	08004421 	.word	0x08004421
 800519c:	00000000 	.word	0x00000000

080051a0 <main>:

  /* Reset of all peripherals. AHB3 is not reseted because it could have
     been initialized in the board initialization file (board.c).
     Note, GPIOs are not reset because initialized before this point in
     board files.*/
  rccResetAHB1(~STM32_GPIO_EN_MASK);
 80051a0:	4b23      	ldr	r3, [pc, #140]	; (8005230 <main+0x90>)
  PWR->CR |= PWR_CR_DBP;
 80051a2:	4824      	ldr	r0, [pc, #144]	; (8005234 <main+0x94>)
  rccResetAHB1(~STM32_GPIO_EN_MASK);
 80051a4:	691a      	ldr	r2, [r3, #16]
 80051a6:	f062 02ff 	orn	r2, r2, #255	; 0xff


/*
 * Application entry point.
 */
int main(void) {
 80051aa:	e92d 43f0 	stmdb	sp!, {r4, r5, r6, r7, r8, r9, lr}
 80051ae:	611a      	str	r2, [r3, #16]
 80051b0:	691a      	ldr	r2, [r3, #16]
 80051b2:	b2d2      	uxtb	r2, r2
 80051b4:	611a      	str	r2, [r3, #16]
#if !defined(STM32F410xx)
  rccResetAHB2(~0);
 80051b6:	f04f 34ff 	mov.w	r4, #4294967295	; 0xffffffff
  rccResetAHB1(~STM32_GPIO_EN_MASK);
 80051ba:	691a      	ldr	r2, [r3, #16]
  rccResetAHB2(~0);
 80051bc:	695a      	ldr	r2, [r3, #20]
 80051be:	615c      	str	r4, [r3, #20]
 80051c0:	2200      	movs	r2, #0
 80051c2:	6959      	ldr	r1, [r3, #20]
 80051c4:	615a      	str	r2, [r3, #20]
 80051c6:	6959      	ldr	r1, [r3, #20]
#endif
  rccResetAPB1(~RCC_APB1RSTR_PWRRST);
 80051c8:	6a19      	ldr	r1, [r3, #32]
 80051ca:	f061 5180 	orn	r1, r1, #268435456	; 0x10000000
 80051ce:	6219      	str	r1, [r3, #32]
 80051d0:	6a19      	ldr	r1, [r3, #32]
 80051d2:	f001 5180 	and.w	r1, r1, #268435456	; 0x10000000
 80051d6:	6219      	str	r1, [r3, #32]
 80051d8:	6a19      	ldr	r1, [r3, #32]
  rccResetAPB2(~0);
 80051da:	6a59      	ldr	r1, [r3, #36]	; 0x24
 80051dc:	625c      	str	r4, [r3, #36]	; 0x24
 80051de:	6a59      	ldr	r1, [r3, #36]	; 0x24
 80051e0:	625a      	str	r2, [r3, #36]	; 0x24
 80051e2:	6a59      	ldr	r1, [r3, #36]	; 0x24

  /* PWR clock enabled.*/
  rccEnablePWRInterface(true);
 80051e4:	6c19      	ldr	r1, [r3, #64]	; 0x40
 80051e6:	f041 5180 	orr.w	r1, r1, #268435456	; 0x10000000
 80051ea:	6419      	str	r1, [r3, #64]	; 0x40
 80051ec:	6e19      	ldr	r1, [r3, #96]	; 0x60
 80051ee:	f041 5180 	orr.w	r1, r1, #268435456	; 0x10000000
 80051f2:	6619      	str	r1, [r3, #96]	; 0x60
 80051f4:	6e19      	ldr	r1, [r3, #96]	; 0x60
  PWR->CR |= PWR_CR_DBP;
 80051f6:	6801      	ldr	r1, [r0, #0]
 80051f8:	f441 7180 	orr.w	r1, r1, #256	; 0x100
 80051fc:	6001      	str	r1, [r0, #0]
  if ((RCC->BDCR & STM32_RTCSEL_MASK) != STM32_RTCSEL) {
 80051fe:	6f19      	ldr	r1, [r3, #112]	; 0x70
 8005200:	f401 7140 	and.w	r1, r1, #768	; 0x300
 8005204:	f5b1 7f00 	cmp.w	r1, #512	; 0x200
 8005208:	b087      	sub	sp, #28
 800520a:	d003      	beq.n	8005214 <main+0x74>
    RCC->BDCR = RCC_BDCR_BDRST;
 800520c:	f44f 3180 	mov.w	r1, #65536	; 0x10000
 8005210:	6719      	str	r1, [r3, #112]	; 0x70
    RCC->BDCR = 0;
 8005212:	671a      	str	r2, [r3, #112]	; 0x70
  PWR->CSR &= ~PWR_CSR_BRE;
 8005214:	4c07      	ldr	r4, [pc, #28]	; (8005234 <main+0x94>)
  dma.allocated_mask = 0U;
 8005216:	4808      	ldr	r0, [pc, #32]	; (8005238 <main+0x98>)
 8005218:	6861      	ldr	r1, [r4, #4]
 800521a:	4b08      	ldr	r3, [pc, #32]	; (800523c <main+0x9c>)
 800521c:	4d08      	ldr	r5, [pc, #32]	; (8005240 <main+0xa0>)
 800521e:	f421 7100 	bic.w	r1, r1, #512	; 0x200
 8005222:	2200      	movs	r2, #0
 8005224:	6061      	str	r1, [r4, #4]
 8005226:	4601      	mov	r1, r0
 8005228:	6002      	str	r2, [r0, #0]
  for (i = 0U; i < STM32_DMA_STREAMS; i++) {
 800522a:	f103 00c0 	add.w	r0, r3, #192	; 0xc0
 800522e:	e00b      	b.n	8005248 <main+0xa8>
 8005230:	40023800 	.word	0x40023800
 8005234:	40007000 	.word	0x40007000
 8005238:	2000144c 	.word	0x2000144c
 800523c:	0800670c 	.word	0x0800670c
 8005240:	40026010 	.word	0x40026010
 8005244:	f853 5c0c 	ldr.w	r5, [r3, #-12]
    _stm32_dma_streams[i].stream->CR = STM32_DMA_CR_RESET_VALUE;
 8005248:	602a      	str	r2, [r5, #0]
    dma.streams[i].func = NULL;
 800524a:	330c      	adds	r3, #12
  for (i = 0U; i < STM32_DMA_STREAMS; i++) {
 800524c:	4283      	cmp	r3, r0
    dma.streams[i].func = NULL;
 800524e:	604a      	str	r2, [r1, #4]
  for (i = 0U; i < STM32_DMA_STREAMS; i++) {
 8005250:	f101 0108 	add.w	r1, r1, #8
 8005254:	d1f6      	bne.n	8005244 <main+0xa4>
  DMA1->LIFCR = 0xFFFFFFFFU;
 8005256:	4cc2      	ldr	r4, [pc, #776]	; (8005560 <main+0x3c0>)
  NVIC->IP[n] = NVIC_PRIORITY_MASK(prio);
 8005258:	4bc2      	ldr	r3, [pc, #776]	; (8005564 <main+0x3c4>)
  DMA2->LIFCR = 0xFFFFFFFFU;
 800525a:	4dc3      	ldr	r5, [pc, #780]	; (8005568 <main+0x3c8>)
 800525c:	49c3      	ldr	r1, [pc, #780]	; (800556c <main+0x3cc>)
  DMA1->LIFCR = 0xFFFFFFFFU;
 800525e:	f04f 30ff 	mov.w	r0, #4294967295	; 0xffffffff
 8005262:	60a0      	str	r0, [r4, #8]
 8005264:	2260      	movs	r2, #96	; 0x60
  DMA1->HIFCR = 0xFFFFFFFFU;
 8005266:	60e0      	str	r0, [r4, #12]
  NVIC->ICPR[n >> 5U] = 1U << (n & 0x1FU);
 8005268:	2440      	movs	r4, #64	; 0x40
  DMA2->LIFCR = 0xFFFFFFFFU;
 800526a:	60a8      	str	r0, [r5, #8]
  DMA2->HIFCR = 0xFFFFFFFFU;
 800526c:	60e8      	str	r0, [r5, #12]
  NVIC->IP[n] = NVIC_PRIORITY_MASK(prio);
 800526e:	f883 2306 	strb.w	r2, [r3, #774]	; 0x306
  NVIC->ICPR[n >> 5U] = 1U << (n & 0x1FU);
 8005272:	f44f 7080 	mov.w	r0, #256	; 0x100
 8005276:	f8c3 4180 	str.w	r4, [r3, #384]	; 0x180
 800527a:	2580      	movs	r5, #128	; 0x80
  NVIC->ISER[n >> 5U] = 1U << (n & 0x1FU);
 800527c:	601c      	str	r4, [r3, #0]
  NVIC->ICPR[n >> 5U] = 1U << (n & 0x1FU);
 800527e:	f44f 7400 	mov.w	r4, #512	; 0x200
  NVIC->IP[n] = NVIC_PRIORITY_MASK(prio);
 8005282:	f883 2307 	strb.w	r2, [r3, #775]	; 0x307
  NVIC->ICPR[n >> 5U] = 1U << (n & 0x1FU);
 8005286:	f8c3 5180 	str.w	r5, [r3, #384]	; 0x180
  NVIC->ISER[n >> 5U] = 1U << (n & 0x1FU);
 800528a:	601d      	str	r5, [r3, #0]
  NVIC->IP[n] = NVIC_PRIORITY_MASK(prio);
 800528c:	f883 2308 	strb.w	r2, [r3, #776]	; 0x308
  NVIC->ICPR[n >> 5U] = 1U << (n & 0x1FU);
 8005290:	f44f 6580 	mov.w	r5, #1024	; 0x400
 8005294:	f8c3 0180 	str.w	r0, [r3, #384]	; 0x180
  NVIC->ISER[n >> 5U] = 1U << (n & 0x1FU);
 8005298:	6018      	str	r0, [r3, #0]
  NVIC->IP[n] = NVIC_PRIORITY_MASK(prio);
 800529a:	f883 2309 	strb.w	r2, [r3, #777]	; 0x309
  NVIC->ICPR[n >> 5U] = 1U << (n & 0x1FU);
 800529e:	f8c3 4180 	str.w	r4, [r3, #384]	; 0x180
  NVIC->ISER[n >> 5U] = 1U << (n & 0x1FU);
 80052a2:	601c      	str	r4, [r3, #0]
  NVIC->ICPR[n >> 5U] = 1U << (n & 0x1FU);
 80052a4:	f44f 0400 	mov.w	r4, #8388608	; 0x800000
  NVIC->IP[n] = NVIC_PRIORITY_MASK(prio);
 80052a8:	f883 230a 	strb.w	r2, [r3, #778]	; 0x30a
  NVIC->ICPR[n >> 5U] = 1U << (n & 0x1FU);
 80052ac:	f8c3 5180 	str.w	r5, [r3, #384]	; 0x180
  NVIC->ISER[n >> 5U] = 1U << (n & 0x1FU);
 80052b0:	601d      	str	r5, [r3, #0]
  NVIC->IP[n] = NVIC_PRIORITY_MASK(prio);
 80052b2:	f883 2317 	strb.w	r2, [r3, #791]	; 0x317
  NVIC->ICPR[n >> 5U] = 1U << (n & 0x1FU);
 80052b6:	f8c3 4180 	str.w	r4, [r3, #384]	; 0x180
  NVIC->ISER[n >> 5U] = 1U << (n & 0x1FU);
 80052ba:	601c      	str	r4, [r3, #0]
  NVIC->IP[n] = NVIC_PRIORITY_MASK(prio);
 80052bc:	f883 2328 	strb.w	r2, [r3, #808]	; 0x328
  NVIC->ICPR[n >> 5U] = 1U << (n & 0x1FU);
 80052c0:	f101 0480 	add.w	r4, r1, #128	; 0x80
 80052c4:	f8c3 0184 	str.w	r0, [r3, #388]	; 0x184
    _pal_init_event(i);
 80052c8:	2200      	movs	r2, #0
  NVIC->ISER[n >> 5U] = 1U << (n & 0x1FU);
 80052ca:	6058      	str	r0, [r3, #4]
 80052cc:	e9c1 2200 	strd	r2, r2, [r1]
  for (i = 0; i < 16; i++) {
 80052d0:	3108      	adds	r1, #8
 80052d2:	428c      	cmp	r4, r1
 80052d4:	d1fa      	bne.n	80052cc <main+0x12c>
#if !defined(SERIAL_ADVANCED_BUFFERING_SUPPORT) ||                          \
    (SERIAL_ADVANCED_BUFFERING_SUPPORT == FALSE) ||                         \
    defined(__DOXYGEN__)
void sdObjectInit(SerialDriver *sdp, qnotify_t inotify, qnotify_t onotify) {

  sdp->vmt = &vmt;
 80052d6:	4da6      	ldr	r5, [pc, #664]	; (8005570 <main+0x3d0>)
 80052d8:	f8df c2dc 	ldr.w	ip, [pc, #732]	; 80055b8 <main+0x418>
  spip->state = SPI_STOP;
 80052dc:	4ba5      	ldr	r3, [pc, #660]	; (8005574 <main+0x3d4>)
  oqp->q_notify  = onfy;
 80052de:	4ca6      	ldr	r4, [pc, #664]	; (8005578 <main+0x3d8>)
  SD1.usart = USART1;
#endif

#if STM32_SERIAL_USE_USART2
  sdObjectInit(&SD2, NULL, notify2);
  SD2.usart = USART2;
 80052e0:	49a6      	ldr	r1, [pc, #664]	; (800557c <main+0x3dc>)

#if OSAL_ST_MODE == OSAL_ST_MODE_FREERUNNING
  /* Free running counter mode.*/

  /* Enabling timer clock.*/
  ST_ENABLE_CLOCK();
 80052e2:	48a7      	ldr	r0, [pc, #668]	; (8005580 <main+0x3e0>)
  iqp->q_counter = 0;
 80052e4:	616a      	str	r2, [r5, #20]
 80052e6:	462e      	mov	r6, r5
  oqp->q_counter = size;
 80052e8:	2710      	movs	r7, #16
 80052ea:	f846 cb04 	str.w	ip, [r6], #4
 80052ee:	63af      	str	r7, [r5, #56]	; 0x38
  tqp->next = (thread_t *)tqp;
 80052f0:	f105 0c0c 	add.w	ip, r5, #12
  oqp->q_top     = bp + size;
 80052f4:	f105 0774 	add.w	r7, r5, #116	; 0x74
  oqp->q_notify  = onfy;
 80052f8:	64ec      	str	r4, [r5, #76]	; 0x4c
 80052fa:	6769      	str	r1, [r5, #116]	; 0x74
  iqp->q_buffer  = bp;
 80052fc:	f105 0454 	add.w	r4, r5, #84	; 0x54
  iqp->q_top     = bp + size;
 8005300:	f105 0164 	add.w	r1, r5, #100	; 0x64
  tqp->prev = (thread_t *)tqp;
 8005304:	e9c5 cc03 	strd	ip, ip, [r5, #12]
  iqp->q_wrptr   = bp;
 8005308:	e9c5 4408 	strd	r4, r4, [r5, #32]
  oqp->q_wrptr   = bp;
 800530c:	e9c5 1111 	strd	r1, r1, [r5, #68]	; 0x44
  SPID1.spi       = SPI1;
 8005310:	f8df e2a8 	ldr.w	lr, [pc, #680]	; 80055bc <main+0x41c>
  SPID1.rxdmamode = STM32_DMA_CR_CHSEL(SPI1_RX_DMA_CHANNEL) |
 8005314:	f8df c2a8 	ldr.w	ip, [pc, #680]	; 80055c0 <main+0x420>
  oqp->q_top     = bp + size;
 8005318:	642f      	str	r7, [r5, #64]	; 0x40
 *
 * @init
 */
static inline void chEvtObjectInit(event_source_t *esp) {

  esp->next = (event_listener_t *)esp;
 800531a:	606e      	str	r6, [r5, #4]
  tqp->next = (thread_t *)tqp;
 800531c:	f105 0730 	add.w	r7, r5, #48	; 0x30
  osalEventObjectInit(&sdp->event);
  sdp->state = SD_STOP;
 8005320:	2601      	movs	r6, #1
  iqp->q_buffer  = bp;
 8005322:	61ac      	str	r4, [r5, #24]
  iqp->q_top     = bp + size;
 8005324:	61e9      	str	r1, [r5, #28]
  SPID1.txdmamode = STM32_DMA_CR_CHSEL(SPI1_TX_DMA_CHANNEL) |
 8005326:	4c97      	ldr	r4, [pc, #604]	; (8005584 <main+0x3e4>)
  oqp->q_buffer  = bp;
 8005328:	63e9      	str	r1, [r5, #60]	; 0x3c
 800532a:	f103 010c 	add.w	r1, r3, #12
  spip->thread = NULL;
 800532e:	e9c3 2201 	strd	r2, r2, [r3, #4]
  SPID1.dmatx     = NULL;
 8005332:	e9c3 2208 	strd	r2, r2, [r3, #32]
  tqp->prev = (thread_t *)tqp;
 8005336:	e9c3 1103 	strd	r1, r1, [r3, #12]
  mp->owner = NULL;
 800533a:	615a      	str	r2, [r3, #20]
  SPID1.spi       = SPI1;
 800533c:	f8c3 e01c 	str.w	lr, [r3, #28]
  SPID1.rxdmamode = STM32_DMA_CR_CHSEL(SPI1_RX_DMA_CHANNEL) |
 8005340:	f8c3 c028 	str.w	ip, [r3, #40]	; 0x28
  spip->state = SPI_STOP;
 8005344:	701e      	strb	r6, [r3, #0]
  iqp->q_link    = link;
 8005346:	e9c5 250a 	strd	r2, r5, [r5, #40]	; 0x28
 800534a:	e9c5 770c 	strd	r7, r7, [r5, #48]	; 0x30
 800534e:	722e      	strb	r6, [r5, #8]
  oqp->q_link    = link;
 8005350:	652d      	str	r5, [r5, #80]	; 0x50
  SPID1.txdmamode = STM32_DMA_CR_CHSEL(SPI1_TX_DMA_CHANNEL) |
 8005352:	62dc      	str	r4, [r3, #44]	; 0x2c
 8005354:	6c03      	ldr	r3, [r0, #64]	; 0x40
  tqp->next = (thread_t *)tqp;
 8005356:	4c8c      	ldr	r4, [pc, #560]	; (8005588 <main+0x3e8>)

  /* Enabling the stop mode during debug for this timer.*/
  ST_ENABLE_STOP();
 8005358:	f8df c268 	ldr.w	ip, [pc, #616]	; 80055c4 <main+0x424>
  tqp->prev = (thread_t *)tqp;
 800535c:	6064      	str	r4, [r4, #4]
  ST_ENABLE_CLOCK();
 800535e:	4333      	orrs	r3, r6
 8005360:	6403      	str	r3, [r0, #64]	; 0x40
 8005362:	6e03      	ldr	r3, [r0, #96]	; 0x60
  ch.rlist.prio = NOPRIO;
 8005364:	60a2      	str	r2, [r4, #8]
 8005366:	4333      	orrs	r3, r6
 8005368:	6603      	str	r3, [r0, #96]	; 0x60
 800536a:	6e03      	ldr	r3, [r0, #96]	; 0x60
  ST_ENABLE_STOP();
 800536c:	f8dc 3008 	ldr.w	r3, [ip, #8]
  ch.rlist.newer = (thread_t *)&ch.rlist;
 8005370:	6124      	str	r4, [r4, #16]
 8005372:	4333      	orrs	r3, r6
 8005374:	f8cc 3008 	str.w	r3, [ip, #8]

  /* Initializing the counter in free running mode.*/
  STM32_ST_TIM->PSC    = (ST_CLOCK_SRC / OSAL_ST_FREQUENCY) - 1;
 8005378:	f04f 4380 	mov.w	r3, #1073741824	; 0x40000000
  default_heap.provider = chCoreAllocAlignedWithOffset;
 800537c:	4983      	ldr	r1, [pc, #524]	; (800558c <main+0x3ec>)
  NVIC->IP[n] = NVIC_PRIORITY_MASK(prio);
 800537e:	4f79      	ldr	r7, [pc, #484]	; (8005564 <main+0x3c4>)
  ch_memcore.basemem = __heap_base__;
 8005380:	f8df e244 	ldr.w	lr, [pc, #580]	; 80055c8 <main+0x428>
 8005384:	f242 3027 	movw	r0, #8999	; 0x2327
 8005388:	6298      	str	r0, [r3, #40]	; 0x28
  STM32_ST_TIM->ARR    = ST_ARR_INIT;
 800538a:	f04f 30ff 	mov.w	r0, #4294967295	; 0xffffffff
 800538e:	62d8      	str	r0, [r3, #44]	; 0x2c
  ch.rlist.older = (thread_t *)&ch.rlist;
 8005390:	6164      	str	r4, [r4, #20]
  STM32_ST_TIM->CCMR1  = 0;
 8005392:	619a      	str	r2, [r3, #24]
  ch.vtlist.delta = (sysinterval_t)-1;
 8005394:	6260      	str	r0, [r4, #36]	; 0x24
  STM32_ST_TIM->CCR[0] = 0;
 8005396:	635a      	str	r2, [r3, #52]	; 0x34
  ch.vtlist.lasttime = (systime_t)0;
 8005398:	62a2      	str	r2, [r4, #40]	; 0x28
  STM32_ST_TIM->CCR[2] = 0;
#endif
#if ST_LLD_NUM_ALARMS > 3
  STM32_ST_TIM->CCR[3] = 0;
#endif
  STM32_ST_TIM->DIER   = 0;
 800539a:	60da      	str	r2, [r3, #12]
  H_NEXT(&default_heap.header) = NULL;
 800539c:	604a      	str	r2, [r1, #4]
  STM32_ST_TIM->CR2    = 0;
 800539e:	605a      	str	r2, [r3, #4]
  H_PAGES(&default_heap.header) = 0;
 80053a0:	608a      	str	r2, [r1, #8]
  STM32_ST_TIM->EGR    = TIM_EGR_UG;
 80053a2:	615e      	str	r6, [r3, #20]
  STM32_ST_TIM->CR1    = TIM_CR1_CEN;
 80053a4:	601e      	str	r6, [r3, #0]
 80053a6:	2380      	movs	r3, #128	; 0x80
 80053a8:	f887 331c 	strb.w	r3, [r7, #796]	; 0x31c
  NVIC->ICPR[n >> 5U] = 1U << (n & 0x1FU);
 80053ac:	f04f 5680 	mov.w	r6, #268435456	; 0x10000000
  ch.vtlist.next = (virtual_timer_t *)&ch.vtlist;
 80053b0:	f104 031c 	add.w	r3, r4, #28
 80053b4:	f8c7 6180 	str.w	r6, [r7, #384]	; 0x180
 80053b8:	61e3      	str	r3, [r4, #28]
  NVIC->ISER[n >> 5U] = 1U << (n & 0x1FU);
 80053ba:	603e      	str	r6, [r7, #0]
  default_heap.provider = chCoreAllocAlignedWithOffset;
 80053bc:	4e74      	ldr	r6, [pc, #464]	; (8005590 <main+0x3f0>)
 80053be:	600e      	str	r6, [r1, #0]
 80053c0:	4f74      	ldr	r7, [pc, #464]	; (8005594 <main+0x3f4>)
  ch_memcore.topmem  = __heap_end__;
 80053c2:	4e75      	ldr	r6, [pc, #468]	; (8005598 <main+0x3f8>)
  ch.vtlist.prev = (virtual_timer_t *)&ch.vtlist;
 80053c4:	6223      	str	r3, [r4, #32]
  tqp->next = (thread_t *)tqp;
 80053c6:	4b75      	ldr	r3, [pc, #468]	; (800559c <main+0x3fc>)
  ch_memcore.basemem = __heap_base__;
 80053c8:	f8ce 7000 	str.w	r7, [lr]
 80053cc:	f101 0c0c 	add.w	ip, r1, #12
  ch_memcore.topmem  = __heap_end__;
 80053d0:	f8ce 6004 	str.w	r6, [lr, #4]
  tmp->cumulative = (rttime_t)0;
 80053d4:	2700      	movs	r7, #0
 80053d6:	2600      	movs	r6, #0
 80053d8:	6024      	str	r4, [r4, #0]
 80053da:	f8c1 c00c 	str.w	ip, [r1, #12]
 80053de:	e9cd 6704 	strd	r6, r7, [sp, #16]
  tmp->best       = (rtcnt_t)-1;
 80053e2:	9000      	str	r0, [sp, #0]
/* Module local functions.                                                   */
/*===========================================================================*/

static inline void dyn_list_init(dyn_list_t *dlp) {

  dlp->next = (dyn_element_t *)dlp;
 80053e4:	f103 073c 	add.w	r7, r3, #60	; 0x3c
 80053e8:	f103 0040 	add.w	r0, r3, #64	; 0x40
 80053ec:	f103 0624 	add.w	r6, r3, #36	; 0x24
  tqp->prev = (thread_t *)tqp;
 80053f0:	e9c3 3300 	strd	r3, r3, [r3]
 80053f4:	e9c3 700f 	strd	r7, r0, [r3, #60]	; 0x3c
 80053f8:	f8c1 c010 	str.w	ip, [r1, #16]
 80053fc:	614a      	str	r2, [r1, #20]
  tmp->last       = (rtcnt_t)0;
 80053fe:	e9cd 2201 	strd	r2, r2, [sp, #4]
 8005402:	f103 0910 	add.w	r9, r3, #16
             (size >= sizeof(void *)) &&
             (align >= PORT_NATURAL_ALIGN) &&
             MEM_IS_VALID_ALIGNMENT(align));

  mp->next = NULL;
  mp->object_size = size;
 8005406:	f04f 0814 	mov.w	r8, #20
 800540a:	f103 0e28 	add.w	lr, r3, #40	; 0x28
 800540e:	f04f 0c1c 	mov.w	ip, #28
  ch.tm.offset = (rtcnt_t)0;
 8005412:	6762      	str	r2, [r4, #116]	; 0x74
  tmp->n          = (ucnt_t)0;
 8005414:	9203      	str	r2, [sp, #12]
 8005416:	609a      	str	r2, [r3, #8]
  mp->next = NULL;
 8005418:	615a      	str	r2, [r3, #20]
 800541a:	62da      	str	r2, [r3, #44]	; 0x2c
 800541c:	f103 0144 	add.w	r1, r3, #68	; 0x44
  mp->align = align;
  mp->provider = provider;
 8005420:	4a5f      	ldr	r2, [pc, #380]	; (80055a0 <main+0x400>)
 8005422:	625e      	str	r6, [r3, #36]	; 0x24
  mp->align = align;
 8005424:	2604      	movs	r6, #4
 8005426:	f8c3 9010 	str.w	r9, [r3, #16]
  mp->object_size = size;
 800542a:	f8c3 8018 	str.w	r8, [r3, #24]
 800542e:	f8c3 e028 	str.w	lr, [r3, #40]	; 0x28
 8005432:	f8c3 c030 	str.w	ip, [r3, #48]	; 0x30
 8005436:	6459      	str	r1, [r3, #68]	; 0x44
  mp->align = align;
 8005438:	61de      	str	r6, [r3, #28]
 800543a:	635e      	str	r6, [r3, #52]	; 0x34
  mp->provider = provider;
 800543c:	621a      	str	r2, [r3, #32]
 800543e:	639a      	str	r2, [r3, #56]	; 0x38
    chTMStartMeasurementX(&tm);
 8005440:	4668      	mov	r0, sp
 8005442:	f7fd ff8d 	bl	8003360 <chTMStartMeasurementX>
    chTMStopMeasurementX(&tm);
 8005446:	4668      	mov	r0, sp
 8005448:	f7fd ff62 	bl	8003310 <chTMStopMeasurementX>
  } while (i > 0U);
 800544c:	3e01      	subs	r6, #1
 800544e:	d1f7      	bne.n	8005440 <main+0x2a0>
  REG_INSERT(tp);
 8005450:	4a54      	ldr	r2, [pc, #336]	; (80055a4 <main+0x404>)
 8005452:	6967      	ldr	r7, [r4, #20]
  ch.tm.offset = tm.best;
 8005454:	9b00      	ldr	r3, [sp, #0]
 8005456:	6763      	str	r3, [r4, #116]	; 0x74
  tp->prio      = prio;
 8005458:	2080      	movs	r0, #128	; 0x80
  tp->refs      = (trefs_t)1;
 800545a:	2101      	movs	r1, #1
  tqp->next = (thread_t *)tqp;
 800545c:	f102 032c 	add.w	r3, r2, #44	; 0x2c
  tp->name      = name;
 8005460:	f8df e168 	ldr.w	lr, [pc, #360]	; 80055cc <main+0x42c>
  tp->prio      = prio;
 8005464:	63a0      	str	r0, [r4, #56]	; 0x38
  tlp->next = (thread_t *)tlp;
 8005466:	f102 0c28 	add.w	ip, r2, #40	; 0x28
  tp->realprio  = prio;
 800546a:	66e0      	str	r0, [r4, #108]	; 0x6c
  tp->epending  = (eventmask_t)0;
 800546c:	e9c4 6619 	strd	r6, r6, [r4, #100]	; 0x64
  REG_INSERT(tp);
 8005470:	e9c4 4710 	strd	r4, r7, [r4, #64]	; 0x40
  tp->flags     = CH_FLAG_MODE_STATIC;
 8005474:	f884 6051 	strb.w	r6, [r4, #81]	; 0x51
  tp->refs      = (trefs_t)1;
 8005478:	f884 1052 	strb.w	r1, [r4, #82]	; 0x52
  tp->name      = name;
 800547c:	f8c4 e048 	str.w	lr, [r4, #72]	; 0x48
 8005480:	2020      	movs	r0, #32
  REG_INSERT(tp);
 8005482:	613a      	str	r2, [r7, #16]
  currp = _thread_init(&ch.mainthread, (const char *)&ch_debug, NORMALPRIO);
 8005484:	e9c4 2205 	strd	r2, r2, [r4, #20]
  tqp->next = (thread_t *)tqp;
 8005488:	e9c4 c316 	strd	ip, r3, [r4, #88]	; 0x58
  currp->state = CH_STATE_CURRENT;
 800548c:	f884 1050 	strb.w	r1, [r4, #80]	; 0x50
  currp->wabase = NULL;
 8005490:	64e6      	str	r6, [r4, #76]	; 0x4c
  tqp->prev = (thread_t *)tqp;
 8005492:	6623      	str	r3, [r4, #96]	; 0x60
 8005494:	f380 8811 	msr	BASEPRI, r0
  __ASM volatile ("cpsie i" : : : "memory");
 8005498:	b662      	cpsie	i
__STATIC_INLINE void __NVIC_SetPriorityGrouping(uint32_t PriorityGroup)
{
  uint32_t reg_value;
  uint32_t PriorityGroupTmp = (PriorityGroup & (uint32_t)0x07UL);             /* only values 0..7 are used          */

  reg_value  =  SCB->AIRCR;                                                   /* read old register configuration    */
 800549a:	4b43      	ldr	r3, [pc, #268]	; (80055a8 <main+0x408>)
  reg_value &= ~((uint32_t)(SCB_AIRCR_VECTKEY_Msk | SCB_AIRCR_PRIGROUP_Msk)); /* clear bits to change               */
  reg_value  =  (reg_value                                   |
 800549c:	4f43      	ldr	r7, [pc, #268]	; (80055ac <main+0x40c>)
  reg_value  =  SCB->AIRCR;                                                   /* read old register configuration    */
 800549e:	f8d3 c00c 	ldr.w	ip, [r3, #12]
  reg_value &= ~((uint32_t)(SCB_AIRCR_VECTKEY_Msk | SCB_AIRCR_PRIGROUP_Msk)); /* clear bits to change               */
 80054a2:	f64f 0eff 	movw	lr, #63743	; 0xf8ff
 80054a6:	ea0c 0c0e 	and.w	ip, ip, lr
  CoreDebug->DEMCR |= CoreDebug_DEMCR_TRCENA_Msk;
 80054aa:	f10e 4e60 	add.w	lr, lr, #3758096384	; 0xe0000000
  reg_value  =  (reg_value                                   |
 80054ae:	ea4c 0707 	orr.w	r7, ip, r7
 80054b2:	f6ae 3e0f 	subw	lr, lr, #2831	; 0xb0f
                ((uint32_t)0x5FAUL << SCB_AIRCR_VECTKEY_Pos) |
                (PriorityGroupTmp << SCB_AIRCR_PRIGROUP_Pos)  );              /* Insert write key and priority group */
  SCB->AIRCR =  reg_value;
 80054b6:	60df      	str	r7, [r3, #12]
 80054b8:	f8de 700c 	ldr.w	r7, [lr, #12]
  DWT->CTRL |= DWT_CTRL_CYCCNTENA_Msk;
 80054bc:	f8df c110 	ldr.w	ip, [pc, #272]	; 80055d0 <main+0x430>
  CoreDebug->DEMCR |= CoreDebug_DEMCR_TRCENA_Msk;
 80054c0:	f047 7780 	orr.w	r7, r7, #16777216	; 0x1000000
 80054c4:	f8ce 700c 	str.w	r7, [lr, #12]
  DWT->CTRL |= DWT_CTRL_CYCCNTENA_Msk;
 80054c8:	f8dc 7000 	ldr.w	r7, [ip]
  {
    NVIC->IP[((uint32_t)IRQn)]               = (uint8_t)((priority << (8U - __NVIC_PRIO_BITS)) & (uint32_t)0xFFUL);
  }
  else
  {
    SCB->SHP[(((uint32_t)IRQn) & 0xFUL)-4UL] = (uint8_t)((priority << (8U - __NVIC_PRIO_BITS)) & (uint32_t)0xFFUL);
 80054cc:	f04f 0e10 	mov.w	lr, #16
 80054d0:	430f      	orrs	r7, r1
 80054d2:	f8cc 7000 	str.w	r7, [ip]
 80054d6:	f883 e01f 	strb.w	lr, [r3, #31]
 80054da:	f883 0022 	strb.w	r0, [r3, #34]	; 0x22
  __ASM volatile ("MSR basepri, %0" : : "r" (basePri) : "memory");
 80054de:	f386 8811 	msr	BASEPRI, r6
  __ASM volatile ("cpsie i" : : : "memory");
 80054e2:	b662      	cpsie	i
  __ASM volatile ("MSR basepri, %0" : : "r" (basePri) : "memory");
 80054e4:	f380 8811 	msr	BASEPRI, r0
  tp->wabase = tdp->wbase;
 80054e8:	4b31      	ldr	r3, [pc, #196]	; (80055b0 <main+0x410>)
  REG_INSERT(tp);
 80054ea:	6960      	ldr	r0, [r4, #20]
  tp->prio      = prio;
 80054ec:	f8c3 1098 	str.w	r1, [r3, #152]	; 0x98
  tp->mtxlist   = NULL;
 80054f0:	e9c3 6132 	strd	r6, r1, [r3, #200]	; 0xc8
  tp->refs      = (trefs_t)1;
 80054f4:	f883 10b2 	strb.w	r1, [r3, #178]	; 0xb2
  PORT_SETUP_CONTEXT(tp, tdp->wbase, tp, tdp->funcp, tdp->arg);
 80054f8:	4f2e      	ldr	r7, [pc, #184]	; (80055b4 <main+0x414>)
 80054fa:	f8df e0d8 	ldr.w	lr, [pc, #216]	; 80055d4 <main+0x434>
  tp->name      = name;
 80054fe:	f8df c0d8 	ldr.w	ip, [pc, #216]	; 80055d8 <main+0x438>
  PORT_SETUP_CONTEXT(tp, tdp->wbase, tp, tdp->funcp, tdp->arg);
 8005502:	66df      	str	r7, [r3, #108]	; 0x6c
 8005504:	f103 016c 	add.w	r1, r3, #108	; 0x6c
 8005508:	f8c3 109c 	str.w	r1, [r3, #156]	; 0x9c
  REG_INSERT(tp);
 800550c:	f103 0790 	add.w	r7, r3, #144	; 0x90
  tp->state     = CH_STATE_WTSTART;
 8005510:	2102      	movs	r1, #2
 8005512:	f8a3 10b0 	strh.w	r1, [r3, #176]	; 0xb0
  REG_INSERT(tp);
 8005516:	f8c3 00a4 	str.w	r0, [r3, #164]	; 0xa4
  tp->epending  = (eventmask_t)0;
 800551a:	f8c3 60c4 	str.w	r6, [r3, #196]	; 0xc4
  PORT_SETUP_CONTEXT(tp, tdp->wbase, tp, tdp->funcp, tdp->arg);
 800551e:	f8c3 e08c 	str.w	lr, [r3, #140]	; 0x8c
  tp->name      = name;
 8005522:	f8c3 c0a8 	str.w	ip, [r3, #168]	; 0xa8
  PORT_SETUP_CONTEXT(tp, tdp->wbase, tp, tdp->funcp, tdp->arg);
 8005526:	671e      	str	r6, [r3, #112]	; 0x70
  REG_INSERT(tp);
 8005528:	f8c3 40a0 	str.w	r4, [r3, #160]	; 0xa0
  tp->wabase = tdp->wbase;
 800552c:	f8c3 30ac 	str.w	r3, [r3, #172]	; 0xac
  REG_INSERT(tp);
 8005530:	6107      	str	r7, [r0, #16]
  thread_t *otp = currp;
 8005532:	69a1      	ldr	r1, [r4, #24]
  ntp->u.rdymsg = msg;
 8005534:	f8c3 60b4 	str.w	r6, [r3, #180]	; 0xb4
  if (ntp->prio <= otp->prio) {
 8005538:	f8d1 c008 	ldr.w	ip, [r1, #8]
 800553c:	6167      	str	r7, [r4, #20]
  tqp->next = (thread_t *)tqp;
 800553e:	f103 00bc 	add.w	r0, r3, #188	; 0xbc
  tlp->next = (thread_t *)tlp;
 8005542:	f103 0eb8 	add.w	lr, r3, #184	; 0xb8
  tqp->next = (thread_t *)tqp;
 8005546:	e9c3 e02e 	strd	lr, r0, [r3, #184]	; 0xb8
  tqp->prev = (thread_t *)tqp;
 800554a:	f8c3 00c0 	str.w	r0, [r3, #192]	; 0xc0
 800554e:	f1bc 0f00 	cmp.w	ip, #0
 8005552:	f000 80f3 	beq.w	800573c <main+0x59c>
  tp->state = CH_STATE_READY;
 8005556:	f883 60b0 	strb.w	r6, [r3, #176]	; 0xb0
  cp = (thread_t *)&ch.rlist.queue;
 800555a:	3a30      	subs	r2, #48	; 0x30
 800555c:	e03e      	b.n	80055dc <main+0x43c>
 800555e:	bf00      	nop
 8005560:	40026000 	.word	0x40026000
 8005564:	e000e100 	.word	0xe000e100
 8005568:	40026400 	.word	0x40026400
 800556c:	2000120c 	.word	0x2000120c
 8005570:	20001128 	.word	0x20001128
 8005574:	200011a4 	.word	0x200011a4
 8005578:	08002961 	.word	0x08002961
 800557c:	40004400 	.word	0x40004400
 8005580:	40023800 	.word	0x40023800
 8005584:	06010046 	.word	0x06010046
 8005588:	2000128c 	.word	0x2000128c
 800558c:	20001430 	.word	0x20001430
 8005590:	08002921 	.word	0x08002921
 8005594:	200014e0 	.word	0x200014e0
 8005598:	20020000 	.word	0x20020000
 800559c:	20001304 	.word	0x20001304
 80055a0:	080032e1 	.word	0x080032e1
 80055a4:	200012bc 	.word	0x200012bc
 80055a8:	e000ed00 	.word	0xe000ed00
 80055ac:	05fa0300 	.word	0x05fa0300
 80055b0:	20001350 	.word	0x20001350
 80055b4:	08003471 	.word	0x08003471
 80055b8:	08006858 	.word	0x08006858
 80055bc:	40013000 	.word	0x40013000
 80055c0:	06010016 	.word	0x06010016
 80055c4:	e0042000 	.word	0xe0042000
 80055c8:	20001428 	.word	0x20001428
 80055cc:	080067c0 	.word	0x080067c0
 80055d0:	e0001000 	.word	0xe0001000
 80055d4:	080002d1 	.word	0x080002d1
 80055d8:	0800629c 	.word	0x0800629c
    cp = cp->queue.next;
 80055dc:	6812      	ldr	r2, [r2, #0]
  } while (cp->prio >= tp->prio);
 80055de:	6891      	ldr	r1, [r2, #8]
 80055e0:	2900      	cmp	r1, #0
 80055e2:	d1fb      	bne.n	80055dc <main+0x43c>
  tp->queue.next             = cp;
 80055e4:	f8c3 2090 	str.w	r2, [r3, #144]	; 0x90
  tp->queue.prev             = cp->queue.prev;
 80055e8:	6851      	ldr	r1, [r2, #4]
 80055ea:	f8c3 1094 	str.w	r1, [r3, #148]	; 0x94
  tp->queue.prev->queue.next = tp;
 80055ee:	600f      	str	r7, [r1, #0]
  cp->queue.prev             = tp;
 80055f0:	6057      	str	r7, [r2, #4]
 80055f2:	2300      	movs	r3, #0
 80055f4:	f383 8811 	msr	BASEPRI, r3
 80055f8:	2320      	movs	r3, #32
 80055fa:	f383 8811 	msr	BASEPRI, r3
void sd_lld_start(SerialDriver *sdp, const SerialConfig *config) {

  if (config == NULL)
    config = &default_config;

  if (sdp->state == SD_STOP) {
 80055fe:	7a2b      	ldrb	r3, [r5, #8]
 8005600:	2b01      	cmp	r3, #1
 8005602:	d111      	bne.n	8005628 <main+0x488>
      nvicEnableVector(STM32_USART1_NUMBER, STM32_SERIAL_USART1_PRIORITY);
    }
#endif
#if STM32_SERIAL_USE_USART2
    if (&SD2 == sdp) {
      rccEnableUSART2(true);
 8005604:	4b7c      	ldr	r3, [pc, #496]	; (80057f8 <main+0x658>)
  NVIC->IP[n] = NVIC_PRIORITY_MASK(prio);
 8005606:	4a7d      	ldr	r2, [pc, #500]	; (80057fc <main+0x65c>)
 8005608:	6c19      	ldr	r1, [r3, #64]	; 0x40
 800560a:	f441 3100 	orr.w	r1, r1, #131072	; 0x20000
 800560e:	6419      	str	r1, [r3, #64]	; 0x40
 8005610:	6e19      	ldr	r1, [r3, #96]	; 0x60
 8005612:	f441 3100 	orr.w	r1, r1, #131072	; 0x20000
 8005616:	6619      	str	r1, [r3, #96]	; 0x60
 8005618:	20c0      	movs	r0, #192	; 0xc0
  NVIC->ICPR[n >> 5U] = 1U << (n & 0x1FU);
 800561a:	2140      	movs	r1, #64	; 0x40
 800561c:	6e1b      	ldr	r3, [r3, #96]	; 0x60
  NVIC->IP[n] = NVIC_PRIORITY_MASK(prio);
 800561e:	f882 0326 	strb.w	r0, [r2, #806]	; 0x326
  NVIC->ICPR[n >> 5U] = 1U << (n & 0x1FU);
 8005622:	f8c2 1184 	str.w	r1, [r2, #388]	; 0x184
  NVIC->ISER[n >> 5U] = 1U << (n & 0x1FU);
 8005626:	6051      	str	r1, [r2, #4]
  USART_TypeDef *u = sdp->usart;
 8005628:	6f6b      	ldr	r3, [r5, #116]	; 0x74
  if ((sdp->usart == USART1) || (sdp->usart == USART6))
 800562a:	4a75      	ldr	r2, [pc, #468]	; (8005800 <main+0x660>)
 800562c:	4293      	cmp	r3, r2
 800562e:	f000 8099 	beq.w	8005764 <main+0x5c4>
 8005632:	4874      	ldr	r0, [pc, #464]	; (8005804 <main+0x664>)
    fck = STM32_PCLK1 / config->speed;
 8005634:	f640 1227 	movw	r2, #2343	; 0x927
 8005638:	f240 4193 	movw	r1, #1171	; 0x493
 800563c:	4283      	cmp	r3, r0
 800563e:	bf18      	it	ne
 8005640:	460a      	movne	r2, r1
  u->BRR = fck;
 8005642:	609a      	str	r2, [r3, #8]
  u->CR2 = config->cr2 | USART_CR2_LBDIE;
 8005644:	2040      	movs	r0, #64	; 0x40
  u->CR3 = config->cr3 | USART_CR3_EIE;
 8005646:	2601      	movs	r6, #1
  u->CR1 = config->cr1 | USART_CR1_UE | USART_CR1_PEIE |
 8005648:	f242 112c 	movw	r1, #8492	; 0x212c
  u->SR = 0;
 800564c:	2200      	movs	r2, #0
  u->CR2 = config->cr2 | USART_CR2_LBDIE;
 800564e:	6118      	str	r0, [r3, #16]
  u->CR3 = config->cr3 | USART_CR3_EIE;
 8005650:	615e      	str	r6, [r3, #20]
    sdp->rxmask = 0xFF;
 8005652:	20ff      	movs	r0, #255	; 0xff
  u->CR1 = config->cr1 | USART_CR1_UE | USART_CR1_PEIE |
 8005654:	60d9      	str	r1, [r3, #12]
  u->SR = 0;
 8005656:	601a      	str	r2, [r3, #0]

  osalSysLock();
  osalDbgAssert((sdp->state == SD_STOP) || (sdp->state == SD_READY),
                "invalid state");
  sd_lld_start(sdp, config);
  sdp->state = SD_READY;
 8005658:	2102      	movs	r1, #2
  (void)u->SR;  /* SR reset step 1.*/
 800565a:	681c      	ldr	r4, [r3, #0]
  (void)u->DR;  /* SR reset step 2.*/
 800565c:	685b      	ldr	r3, [r3, #4]
    sdp->rxmask = 0xFF;
 800565e:	f885 0078 	strb.w	r0, [r5, #120]	; 0x78
 8005662:	7229      	strb	r1, [r5, #8]
 8005664:	f382 8811 	msr	BASEPRI, r2
 *
 * @api
 */
static inline void *chHeapAlloc(memory_heap_t *heapp, size_t size) {

  return chHeapAllocAligned(heapp, size, CH_HEAP_ALIGNMENT);
 8005668:	202c      	movs	r0, #44	; 0x2c
 800566a:	f7fe fb11 	bl	8003c90 <chHeapAllocAligned.constprop.0>
    // pinMode(ssel, OUTPUT);
    // digitalWrite(ssel, HIGH);

    //NEW
    palSetLineMode(standby_reset, PAL_MODE_OUTPUT_PUSHPULL);
    palSetLineMode(ssel, PAL_MODE_OUTPUT_PUSHPULL);
 800566e:	4f66      	ldr	r7, [pc, #408]	; (8005808 <main+0x668>)
XNucleoIHM02A1::XNucleoIHM02A1(L6470_init_t *init_0, L6470_init_t *init_1, ioline_t flag_irq, ioline_t  busy_irq, ioline_t standby_reset, ioline_t ssel) 
 8005670:	4b66      	ldr	r3, [pc, #408]	; (800580c <main+0x66c>)
 8005672:	6003      	str	r3, [r0, #0]
 8005674:	4604      	mov	r4, r0
    palSetLineMode(standby_reset, PAL_MODE_OUTPUT_PUSHPULL);
 8005676:	2120      	movs	r1, #32
 8005678:	4865      	ldr	r0, [pc, #404]	; (8005810 <main+0x670>)
    l6470_1 = new L6470(flag_irq, busy_irq, standby_reset, ssel);
    components[0] = l6470_0;
    components[1] = l6470_1;

    /* Initializing the components. */
    init_components[0] = init_0;
 800567a:	4d66      	ldr	r5, [pc, #408]	; (8005814 <main+0x674>)
    palSetLineMode(standby_reset, PAL_MODE_OUTPUT_PUSHPULL);
 800567c:	f7fd f858 	bl	8002730 <_pal_lld_setgroupmode.constprop.0>
    palSetLineMode(ssel, PAL_MODE_OUTPUT_PUSHPULL);
 8005680:	2110      	movs	r1, #16
 8005682:	4638      	mov	r0, r7
 8005684:	f7fd f854 	bl	8002730 <_pal_lld_setgroupmode.constprop.0>
    palWriteLine(ssel, PAL_HIGH);
 8005688:	2310      	movs	r3, #16
 800568a:	61bb      	str	r3, [r7, #24]
 800568c:	2064      	movs	r0, #100	; 0x64
 800568e:	f7fe faff 	bl	8003c90 <chHeapAllocAligned.constprop.0>
 8005692:	4607      	mov	r7, r0
    l6470_0 = new  L6470(flag_irq, busy_irq, standby_reset, ssel);
 8005694:	f7fd ff74 	bl	8003580 <_ZN5L6470C2Emmmm.constprop.0>
 8005698:	6067      	str	r7, [r4, #4]
 800569a:	2064      	movs	r0, #100	; 0x64
 800569c:	f7fe faf8 	bl	8003c90 <chHeapAllocAligned.constprop.0>
 80056a0:	4607      	mov	r7, r0
    l6470_1 = new L6470(flag_irq, busy_irq, standby_reset, ssel);
 80056a2:	f7fd ff6d 	bl	8003580 <_ZN5L6470C2Emmmm.constprop.0>
   
    /* Disable the L6470. */
    // OLD
    // digitalWrite(standby_reset, 0);
    // NEW
    palWriteLine(standby_reset, PAL_LOW);
 80056a6:	6aa2      	ldr	r2, [r4, #40]	; 0x28
    components[0] = l6470_0;
 80056a8:	6861      	ldr	r1, [r4, #4]
    l6470_1 = new L6470(flag_irq, busy_irq, standby_reset, ssel);
 80056aa:	60a7      	str	r7, [r4, #8]
    palWriteLine(standby_reset, PAL_LOW);
 80056ac:	f002 030f 	and.w	r3, r2, #15
 80056b0:	3310      	adds	r3, #16
 80056b2:	f022 020f 	bic.w	r2, r2, #15
 80056b6:	fa06 f303 	lsl.w	r3, r6, r3
    components[0] = l6470_0;
 80056ba:	e9c4 1703 	strd	r1, r7, [r4, #12]
    init_components[1] = init_1;
 80056be:	f105 0158 	add.w	r1, r5, #88	; 0x58
 80056c2:	e9c4 5105 	strd	r5, r1, [r4, #20]

    /* Wait for at least t_STBY,min */
    // OLD delay(1);
    chThdSleepMilliseconds(1);
 80056c6:	200a      	movs	r0, #10
    palWriteLine(standby_reset, PAL_LOW);
 80056c8:	6193      	str	r3, [r2, #24]
    chThdSleepMilliseconds(1);
 80056ca:	f7fe f8d9 	bl	8003880 <chThdSleep>

    /* Enable the L6470. */
    palWriteLine(standby_reset, PAL_HIGH);
 80056ce:	6aa3      	ldr	r3, [r4, #40]	; 0x28
 80056d0:	f003 020f 	and.w	r2, r3, #15
 80056d4:	f023 030f 	bic.w	r3, r3, #15
 80056d8:	4096      	lsls	r6, r2
 80056da:	619e      	str	r6, [r3, #24]

    /* Wait for at least t_logicwu */
    // OLD delay(1);
     chThdSleepMilliseconds(1);
 80056dc:	200a      	movs	r0, #10
 80056de:	f7fe f8cf 	bl	8003880 <chThdSleep>
 * @retval true if initialization is successful, false otherwise.
 */
bool XNucleoIHM02A1::init_L6470_0(void)
{
    /* Initialization. */
    if (l6470_0->init((void *) init_components[0]) != COMPONENT_OK) {
 80056e2:	6860      	ldr	r0, [r4, #4]
 80056e4:	6961      	ldr	r1, [r4, #20]
 80056e6:	6803      	ldr	r3, [r0, #0]
 80056e8:	681b      	ldr	r3, [r3, #0]
 80056ea:	4798      	blx	r3
 80056ec:	b920      	cbnz	r0, 80056f8 <main+0x558>
 * @retval true if initialization is successful, false otherwise.
 */
bool XNucleoIHM02A1::init_L6470_1(void)
{
    /* Initialization. */
    if (l6470_1->init((void *) init_components[1]) != COMPONENT_OK) {
 80056ee:	68a0      	ldr	r0, [r4, #8]
 80056f0:	69a1      	ldr	r1, [r4, #24]
 80056f2:	6803      	ldr	r3, [r0, #0]
 80056f4:	681b      	ldr	r3, [r3, #0]
 80056f6:	4798      	blx	r3


  // LIB MOTEUR TEST
  x_nucleo_ihm02a1 = new XNucleoIHM02A1(&L6470_init[0], &L6470_init[1], PAL_LINE(GPIOC, 1), PAL_LINE(GPIOC, 0), PAL_LINE(GPIOB, 5), PAL_LINE(GPIOA, 4));
  motors = x_nucleo_ihm02a1->get_components();
  L6470_init[0].step_sel = StepperMotor::STEP_MODE_1_128;
 80056f8:	2307      	movs	r3, #7
 80056fa:	f885 3054 	strb.w	r3, [r5, #84]	; 0x54
  L6470_init[1].step_sel = StepperMotor::STEP_MODE_1_128;
 80056fe:	f885 30ac 	strb.w	r3, [r5, #172]	; 0xac
  motors[0]->prepare_run(StepperMotor::BWD, 50);
 8005702:	68e0      	ldr	r0, [r4, #12]
  x_nucleo_ihm02a1 = new XNucleoIHM02A1(&L6470_init[0], &L6470_init[1], PAL_LINE(GPIOC, 1), PAL_LINE(GPIOC, 0), PAL_LINE(GPIOB, 5), PAL_LINE(GPIOA, 4));
 8005704:	4d44      	ldr	r5, [pc, #272]	; (8005818 <main+0x678>)
  motors[0]->prepare_run(StepperMotor::BWD, 50);
 8005706:	6803      	ldr	r3, [r0, #0]
  motors = x_nucleo_ihm02a1->get_components();
 8005708:	4e44      	ldr	r6, [pc, #272]	; (800581c <main+0x67c>)
  x_nucleo_ihm02a1 = new XNucleoIHM02A1(&L6470_init[0], &L6470_init[1], PAL_LINE(GPIOC, 1), PAL_LINE(GPIOC, 0), PAL_LINE(GPIOB, 5), PAL_LINE(GPIOA, 4));
 800570a:	602c      	str	r4, [r5, #0]
        return components;
 800570c:	340c      	adds	r4, #12
  motors[0]->prepare_run(StepperMotor::BWD, 50);
 800570e:	f8d3 30f8 	ldr.w	r3, [r3, #248]	; 0xf8
  motors = x_nucleo_ihm02a1->get_components();
 8005712:	6034      	str	r4, [r6, #0]
  motors[0]->prepare_run(StepperMotor::BWD, 50);
 8005714:	2232      	movs	r2, #50	; 0x32
 8005716:	2100      	movs	r1, #0
 8005718:	4798      	blx	r3
  motors[1]->prepare_run(StepperMotor::FWD, 50);
 800571a:	6833      	ldr	r3, [r6, #0]
 800571c:	6858      	ldr	r0, [r3, #4]
 800571e:	6803      	ldr	r3, [r0, #0]
 8005720:	2232      	movs	r2, #50	; 0x32
 8005722:	f8d3 30f8 	ldr.w	r3, [r3, #248]	; 0xf8
 8005726:	2101      	movs	r1, #1
 8005728:	4798      	blx	r3
  x_nucleo_ihm02a1->perform_prepared_actions();
 800572a:	6828      	ldr	r0, [r5, #0]
 800572c:	6803      	ldr	r3, [r0, #0]
 800572e:	681b      	ldr	r3, [r3, #0]
 8005730:	4798      	blx	r3
  /*
   * Normal main() thread activity
   */
  while (true) {
    
    chThdSleepMilliseconds(500);
 8005732:	f241 3088 	movw	r0, #5000	; 0x1388
 8005736:	f7fe f8a3 	bl	8003880 <chThdSleep>
  while (true) {
 800573a:	e7fa      	b.n	8005732 <main+0x592>
  tp->state = CH_STATE_READY;
 800573c:	f881 6020 	strb.w	r6, [r1, #32]
  cp = (thread_t *)&ch.rlist.queue;
 8005740:	3a30      	subs	r2, #48	; 0x30
    cp = cp->queue.next;
 8005742:	6812      	ldr	r2, [r2, #0]
  } while (cp->prio > tp->prio);
 8005744:	6890      	ldr	r0, [r2, #8]
 8005746:	2800      	cmp	r0, #0
 8005748:	d1fb      	bne.n	8005742 <main+0x5a2>
  tp->queue.prev             = cp->queue.prev;
 800574a:	6850      	ldr	r0, [r2, #4]
 800574c:	e9c1 2000 	strd	r2, r0, [r1]
  tp->queue.prev->queue.next = tp;
 8005750:	6001      	str	r1, [r0, #0]
  cp->queue.prev             = tp;
 8005752:	6051      	str	r1, [r2, #4]
    ntp->state = CH_STATE_CURRENT;
 8005754:	2201      	movs	r2, #1
    chSysSwitch(ntp, otp);
 8005756:	4832      	ldr	r0, [pc, #200]	; (8005820 <main+0x680>)
    ntp->state = CH_STATE_CURRENT;
 8005758:	f883 20b0 	strb.w	r2, [r3, #176]	; 0xb0
    currp = ntp;
 800575c:	61a7      	str	r7, [r4, #24]
    chSysSwitch(ntp, otp);
 800575e:	f7fa fdaf 	bl	80002c0 <_port_switch>
 8005762:	e746      	b.n	80055f2 <main+0x452>
    fck = STM32_PCLK2 / config->speed;
 8005764:	f640 1227 	movw	r2, #2343	; 0x927
 8005768:	e76b      	b.n	8005642 <main+0x4a2>
  chDbgCheck((p != NULL) && MEM_IS_ALIGNED(p, CH_HEAP_ALIGNMENT));

  /*lint -save -e9087 [11.3] Safe cast.*/
  hp = (heap_header_t *)p - 1U;
  /*lint -restore*/
  heapp = H_HEAP(hp);
 800576a:	e954 5302 	ldrd	r5, r3, [r4, #-8]
  qp = &heapp->header;

  /* Size is converted in number of elementary allocation units.*/
  H_PAGES(hp) = MEM_ALIGN_NEXT(H_SIZE(hp),
 800576e:	3307      	adds	r3, #7
                               CH_HEAP_ALIGNMENT) / CH_HEAP_ALIGNMENT;
 8005770:	08db      	lsrs	r3, r3, #3
  H_PAGES(hp) = MEM_ALIGN_NEXT(H_SIZE(hp),
 8005772:	f844 3c04 	str.w	r3, [r4, #-4]
  qp = &heapp->header;
 8005776:	f105 0804 	add.w	r8, r5, #4
 800577a:	4607      	mov	r7, r0

  /* Taking heap mutex/semaphore.*/
  H_LOCK(heapp);
 800577c:	350c      	adds	r5, #12
  hp = (heap_header_t *)p - 1U;
 800577e:	f1a4 0608 	sub.w	r6, r4, #8
 8005782:	2320      	movs	r3, #32
 8005784:	f383 8811 	msr	BASEPRI, r3
  chMtxLockS(mp);
 8005788:	4628      	mov	r0, r5
 800578a:	f7fe f889 	bl	80038a0 <chMtxLockS>
 800578e:	2300      	movs	r3, #0
 8005790:	f383 8811 	msr	BASEPRI, r3
  qp = &heapp->header;
 8005794:	4643      	mov	r3, r8

  while (true) {
    chDbgAssert((hp < qp) || (hp >= H_LIMIT(qp)), "within free block");

    if (((qp == &heapp->header) || (hp > qp)) &&
 8005796:	4598      	cmp	r8, r3
        ((H_NEXT(qp) == NULL) || (hp < H_NEXT(qp)))) {
 8005798:	681a      	ldr	r2, [r3, #0]
    if (((qp == &heapp->header) || (hp > qp)) &&
 800579a:	d125      	bne.n	80057e8 <main+0x648>
 800579c:	bb42      	cbnz	r2, 80057f0 <main+0x650>
      /* Insertion after qp.*/
      H_NEXT(hp) = H_NEXT(qp);
      H_NEXT(qp) = hp;
      /* Verifies if the newly inserted block should be merged.*/
      if (H_LIMIT(hp) == H_NEXT(hp)) {
 800579e:	f854 1c04 	ldr.w	r1, [r4, #-4]
      H_NEXT(hp) = H_NEXT(qp);
 80057a2:	f844 2c08 	str.w	r2, [r4, #-8]
      H_NEXT(qp) = hp;
 80057a6:	601e      	str	r6, [r3, #0]
      if (H_LIMIT(hp) == H_NEXT(hp)) {
 80057a8:	f854 0c08 	ldr.w	r0, [r4, #-8]
 80057ac:	1c4a      	adds	r2, r1, #1
 80057ae:	eb06 01c2 	add.w	r1, r6, r2, lsl #3
 80057b2:	4288      	cmp	r0, r1
 80057b4:	d106      	bne.n	80057c4 <main+0x624>
        /* Merge with the next block.*/
        H_PAGES(hp) += H_PAGES(H_NEXT(hp)) + 1U;
        H_NEXT(hp) = H_NEXT(H_NEXT(hp));
 80057b6:	e9d0 0100 	ldrd	r0, r1, [r0]
        H_PAGES(hp) += H_PAGES(H_NEXT(hp)) + 1U;
 80057ba:	440a      	add	r2, r1
        H_NEXT(hp) = H_NEXT(H_NEXT(hp));
 80057bc:	f844 0c08 	str.w	r0, [r4, #-8]
        H_PAGES(hp) += H_PAGES(H_NEXT(hp)) + 1U;
 80057c0:	f844 2c04 	str.w	r2, [r4, #-4]
      }
      if ((H_LIMIT(qp) == hp)) {
 80057c4:	6859      	ldr	r1, [r3, #4]
 80057c6:	1c4a      	adds	r2, r1, #1
 80057c8:	eb03 02c2 	add.w	r2, r3, r2, lsl #3
 80057cc:	4296      	cmp	r6, r2
 80057ce:	d105      	bne.n	80057dc <main+0x63c>
        /* Merge with the previous block.*/
        H_PAGES(qp) += H_PAGES(hp) + 1U;
        H_NEXT(qp) = H_NEXT(hp);
 80057d0:	e954 0202 	ldrd	r0, r2, [r4, #-8]
        H_PAGES(qp) += H_PAGES(hp) + 1U;
 80057d4:	3201      	adds	r2, #1
 80057d6:	440a      	add	r2, r1
        H_NEXT(qp) = H_NEXT(hp);
 80057d8:	6018      	str	r0, [r3, #0]
        H_PAGES(qp) += H_PAGES(hp) + 1U;
 80057da:	605a      	str	r2, [r3, #4]
    }
    qp = H_NEXT(qp);
  }

  /* Releasing heap mutex/semaphore.*/
  H_UNLOCK(heapp);
 80057dc:	4628      	mov	r0, r5
 80057de:	f7fe fa17 	bl	8003c10 <chMtxUnlock>

  return;
 80057e2:	4638      	mov	r0, r7
 80057e4:	f7fb fe06 	bl	80013f4 <_Unwind_Resume>
    if (((qp == &heapp->header) || (hp > qp)) &&
 80057e8:	429e      	cmp	r6, r3
 80057ea:	d8d7      	bhi.n	800579c <main+0x5fc>
    qp = H_NEXT(qp);
 80057ec:	4613      	mov	r3, r2
  while (true) {
 80057ee:	e7d2      	b.n	8005796 <main+0x5f6>
        ((H_NEXT(qp) == NULL) || (hp < H_NEXT(qp)))) {
 80057f0:	4296      	cmp	r6, r2
 80057f2:	d3d4      	bcc.n	800579e <main+0x5fe>
 80057f4:	e7fa      	b.n	80057ec <main+0x64c>
 80057f6:	bf00      	nop
 80057f8:	40023800 	.word	0x40023800
 80057fc:	e000e100 	.word	0xe000e100
 8005800:	40011000 	.word	0x40011000
 8005804:	40011400 	.word	0x40011400
 8005808:	40020000 	.word	0x40020000
 800580c:	080065d8 	.word	0x080065d8
 8005810:	40020400 	.word	0x40020400
 8005814:	20001040 	.word	0x20001040
 8005818:	200014d4 	.word	0x200014d4
 800581c:	200014d0 	.word	0x200014d0
 8005820:	200013e0 	.word	0x200013e0
	...

08005830 <__early_init>:

static void stm32_gpio_init(void) {

  /* Enabling GPIO-related clocks, the mask comes from the
     registry header file.*/
  rccResetAHB1(STM32_GPIO_EN_MASK);
 8005830:	4a84      	ldr	r2, [pc, #528]	; (8005a44 <__early_init+0x214>)
  gpiop->OTYPER  = config->otyper;
 8005832:	4885      	ldr	r0, [pc, #532]	; (8005a48 <__early_init+0x218>)
  rccResetAHB1(STM32_GPIO_EN_MASK);
 8005834:	6913      	ldr	r3, [r2, #16]
  gpiop->OTYPER  = config->otyper;
 8005836:	4985      	ldr	r1, [pc, #532]	; (8005a4c <__early_init+0x21c>)
  rccResetAHB1(STM32_GPIO_EN_MASK);
 8005838:	f043 03ff 	orr.w	r3, r3, #255	; 0xff
/**
 * @brief   Early initialization code.
 * @details GPIO ports and system clocks are initialized before everything
 *          else.
 */
void __early_init(void) {
 800583c:	b5f0      	push	{r4, r5, r6, r7, lr}
  rccResetAHB1(STM32_GPIO_EN_MASK);
 800583e:	6113      	str	r3, [r2, #16]
 8005840:	6913      	ldr	r3, [r2, #16]
  gpiop->PUPDR   = config->pupdr;
 8005842:	4c83      	ldr	r4, [pc, #524]	; (8005a50 <__early_init+0x220>)
  gpiop->OTYPER  = config->otyper;
 8005844:	4e83      	ldr	r6, [pc, #524]	; (8005a54 <__early_init+0x224>)
  gpiop->MODER   = config->moder;
 8005846:	4f84      	ldr	r7, [pc, #528]	; (8005a58 <__early_init+0x228>)
  gpiop->OTYPER  = config->otyper;
 8005848:	4d84      	ldr	r5, [pc, #528]	; (8005a5c <__early_init+0x22c>)
  rccResetAHB1(STM32_GPIO_EN_MASK);
 800584a:	f023 03ff 	bic.w	r3, r3, #255	; 0xff
 800584e:	6113      	str	r3, [r2, #16]
 8005850:	6913      	ldr	r3, [r2, #16]
  rccEnableAHB1(STM32_GPIO_EN_MASK, true);
 8005852:	6b13      	ldr	r3, [r2, #48]	; 0x30
 8005854:	f043 03ff 	orr.w	r3, r3, #255	; 0xff
 8005858:	6313      	str	r3, [r2, #48]	; 0x30
 800585a:	6d13      	ldr	r3, [r2, #80]	; 0x50
 800585c:	f043 03ff 	orr.w	r3, r3, #255	; 0xff
 8005860:	6513      	str	r3, [r2, #80]	; 0x50
  gpiop->OSPEEDR = config->ospeedr;
 8005862:	f46f 6c8a 	mvn.w	ip, #1104	; 0x450
  gpiop->OTYPER  = config->otyper;
 8005866:	2300      	movs	r3, #0
  rccEnableAHB1(STM32_GPIO_EN_MASK, true);
 8005868:	f8d2 e050 	ldr.w	lr, [r2, #80]	; 0x50
  gpiop->OTYPER  = config->otyper;
 800586c:	6043      	str	r3, [r0, #4]
  gpiop->OSPEEDR = config->ospeedr;
 800586e:	f8c0 c008 	str.w	ip, [r0, #8]
  gpiop->ODR     = config->odr;
 8005872:	f64f 7cdf 	movw	ip, #65503	; 0xffdf
  gpiop->PUPDR   = config->pupdr;
 8005876:	60c4      	str	r4, [r0, #12]
  gpiop->ODR     = config->odr;
 8005878:	f8c0 c014 	str.w	ip, [r0, #20]
  gpiop->AFRL    = config->afrl;
 800587c:	f44f 44ee 	mov.w	r4, #30464	; 0x7700
  gpiop->AFRH    = config->afrh;
 8005880:	f44f 2c2a 	mov.w	ip, #696320	; 0xaa000
  gpiop->AFRL    = config->afrl;
 8005884:	6204      	str	r4, [r0, #32]
  gpiop->AFRH    = config->afrh;
 8005886:	f8c0 c024 	str.w	ip, [r0, #36]	; 0x24
  gpiop->OSPEEDR = config->ospeedr;
 800588a:	f04f 34ff 	mov.w	r4, #4294967295	; 0xffffffff
  gpiop->MODER   = config->moder;
 800588e:	6007      	str	r7, [r0, #0]
  gpiop->PUPDR   = config->pupdr;
 8005890:	f04f 3c55 	mov.w	ip, #1431655765	; 0x55555555
  gpiop->ODR     = config->odr;
 8005894:	f64f 70ff 	movw	r0, #65535	; 0xffff
  gpiop->MODER   = config->moder;
 8005898:	2780      	movs	r7, #128	; 0x80
  gpiop->OTYPER  = config->otyper;
 800589a:	6073      	str	r3, [r6, #4]
  gpiop->OSPEEDR = config->ospeedr;
 800589c:	60b4      	str	r4, [r6, #8]
  gpiop->PUPDR   = config->pupdr;
 800589e:	f8c6 c00c 	str.w	ip, [r6, #12]
  gpiop->ODR     = config->odr;
 80058a2:	6170      	str	r0, [r6, #20]
  gpiop->AFRL    = config->afrl;
 80058a4:	6233      	str	r3, [r6, #32]
  gpiop->AFRH    = config->afrh;
 80058a6:	6273      	str	r3, [r6, #36]	; 0x24
  gpiop->MODER   = config->moder;
 80058a8:	6037      	str	r7, [r6, #0]
  gpiop->OTYPER  = config->otyper;
 80058aa:	4f6d      	ldr	r7, [pc, #436]	; (8005a60 <__early_init+0x230>)
  gpiop->PUPDR   = config->pupdr;
 80058ac:	4e6d      	ldr	r6, [pc, #436]	; (8005a64 <__early_init+0x234>)
  gpiop->OTYPER  = config->otyper;
 80058ae:	606b      	str	r3, [r5, #4]
  gpiop->OSPEEDR = config->ospeedr;
 80058b0:	60ac      	str	r4, [r5, #8]
  gpiop->PUPDR   = config->pupdr;
 80058b2:	60ee      	str	r6, [r5, #12]
  gpiop->OTYPER  = config->otyper;
 80058b4:	4e6c      	ldr	r6, [pc, #432]	; (8005a68 <__early_init+0x238>)
  gpiop->ODR     = config->odr;
 80058b6:	6168      	str	r0, [r5, #20]
  gpiop->AFRL    = config->afrl;
 80058b8:	622b      	str	r3, [r5, #32]
  gpiop->AFRH    = config->afrh;
 80058ba:	626b      	str	r3, [r5, #36]	; 0x24
  gpiop->MODER   = config->moder;
 80058bc:	602b      	str	r3, [r5, #0]
  gpiop->OTYPER  = config->otyper;
 80058be:	604b      	str	r3, [r1, #4]
 80058c0:	f505 5580 	add.w	r5, r5, #4096	; 0x1000
  gpiop->OSPEEDR = config->ospeedr;
 80058c4:	608c      	str	r4, [r1, #8]
  gpiop->PUPDR   = config->pupdr;
 80058c6:	f8c1 c00c 	str.w	ip, [r1, #12]
  gpiop->ODR     = config->odr;
 80058ca:	6148      	str	r0, [r1, #20]
  gpiop->AFRL    = config->afrl;
 80058cc:	620b      	str	r3, [r1, #32]
  gpiop->AFRH    = config->afrh;
 80058ce:	624b      	str	r3, [r1, #36]	; 0x24
  gpiop->MODER   = config->moder;
 80058d0:	600b      	str	r3, [r1, #0]
  gpiop->OTYPER  = config->otyper;
 80058d2:	f501 5180 	add.w	r1, r1, #4096	; 0x1000
 80058d6:	607b      	str	r3, [r7, #4]
  gpiop->OSPEEDR = config->ospeedr;
 80058d8:	60bc      	str	r4, [r7, #8]
  gpiop->PUPDR   = config->pupdr;
 80058da:	f8c7 c00c 	str.w	ip, [r7, #12]
  gpiop->ODR     = config->odr;
 80058de:	6178      	str	r0, [r7, #20]
  gpiop->AFRL    = config->afrl;
 80058e0:	623b      	str	r3, [r7, #32]
  gpiop->AFRH    = config->afrh;
 80058e2:	627b      	str	r3, [r7, #36]	; 0x24
  gpiop->MODER   = config->moder;
 80058e4:	603b      	str	r3, [r7, #0]
  RCC->APB1ENR = RCC_APB1ENR_PWREN;
#endif

  /* PWR initialization.*/
#if defined(STM32F4XX) || defined(__DOXYGEN__)
  PWR->CR = STM32_VOS;
 80058e6:	f5a7 37d0 	sub.w	r7, r7, #106496	; 0x1a000
  gpiop->OTYPER  = config->otyper;
 80058ea:	6073      	str	r3, [r6, #4]
  gpiop->OSPEEDR = config->ospeedr;
 80058ec:	60b4      	str	r4, [r6, #8]
  gpiop->PUPDR   = config->pupdr;
 80058ee:	f8c6 c00c 	str.w	ip, [r6, #12]
  gpiop->ODR     = config->odr;
 80058f2:	6170      	str	r0, [r6, #20]
  gpiop->AFRL    = config->afrl;
 80058f4:	6233      	str	r3, [r6, #32]
  gpiop->AFRH    = config->afrh;
 80058f6:	6273      	str	r3, [r6, #36]	; 0x24
  gpiop->MODER   = config->moder;
 80058f8:	6033      	str	r3, [r6, #0]
  gpiop->OTYPER  = config->otyper;
 80058fa:	606b      	str	r3, [r5, #4]
  gpiop->PUPDR   = config->pupdr;
 80058fc:	4e5b      	ldr	r6, [pc, #364]	; (8005a6c <__early_init+0x23c>)
  gpiop->OSPEEDR = config->ospeedr;
 80058fe:	60ac      	str	r4, [r5, #8]
  gpiop->PUPDR   = config->pupdr;
 8005900:	f8c5 c00c 	str.w	ip, [r5, #12]
  gpiop->ODR     = config->odr;
 8005904:	6168      	str	r0, [r5, #20]
  gpiop->AFRL    = config->afrl;
 8005906:	622b      	str	r3, [r5, #32]
  gpiop->AFRH    = config->afrh;
 8005908:	626b      	str	r3, [r5, #36]	; 0x24
  gpiop->MODER   = config->moder;
 800590a:	602b      	str	r3, [r5, #0]
  gpiop->OTYPER  = config->otyper;
 800590c:	604b      	str	r3, [r1, #4]
  RCC->APB1ENR = RCC_APB1ENR_PWREN;
 800590e:	f04f 5580 	mov.w	r5, #268435456	; 0x10000000
  gpiop->OSPEEDR = config->ospeedr;
 8005912:	608c      	str	r4, [r1, #8]
  PWR->CR = STM32_VOS;
 8005914:	f44f 4440 	mov.w	r4, #49152	; 0xc000
  gpiop->PUPDR   = config->pupdr;
 8005918:	60ce      	str	r6, [r1, #12]
  gpiop->ODR     = config->odr;
 800591a:	6148      	str	r0, [r1, #20]
  gpiop->AFRL    = config->afrl;
 800591c:	620b      	str	r3, [r1, #32]
  gpiop->AFRH    = config->afrh;
 800591e:	624b      	str	r3, [r1, #36]	; 0x24
  gpiop->MODER   = config->moder;
 8005920:	600b      	str	r3, [r1, #0]
  RCC->APB1ENR = RCC_APB1ENR_PWREN;
 8005922:	6415      	str	r5, [r2, #64]	; 0x40
  PWR->CR = STM32_VOS;
 8005924:	603c      	str	r4, [r7, #0]
  PWR->CR = 0;
#endif

  /* HSI setup, it enforces the reset situation in order to handle possible
     problems with JTAG probes and re-initializations.*/
  RCC->CR |= RCC_CR_HSION;                  /* Make sure HSI is ON.         */
 8005926:	6813      	ldr	r3, [r2, #0]
 8005928:	f043 0301 	orr.w	r3, r3, #1
 800592c:	6013      	str	r3, [r2, #0]
  while (!(RCC->CR & RCC_CR_HSIRDY))
 800592e:	6813      	ldr	r3, [r2, #0]
 8005930:	0799      	lsls	r1, r3, #30
 8005932:	d5fc      	bpl.n	800592e <__early_init+0xfe>
    ;                                       /* Wait until HSI is stable.    */

  /* HSI is selected as new source without touching the other fields in
     CFGR. Clearing the register has to be postponed after HSI is the
     new source.*/
  RCC->CFGR &= ~RCC_CFGR_SW;                /* Reset SW, selecting HSI.     */
 8005934:	6891      	ldr	r1, [r2, #8]
  while ((RCC->CFGR & RCC_CFGR_SWS) != RCC_CFGR_SWS_HSI)
 8005936:	4b43      	ldr	r3, [pc, #268]	; (8005a44 <__early_init+0x214>)
  RCC->CFGR &= ~RCC_CFGR_SW;                /* Reset SW, selecting HSI.     */
 8005938:	f021 0103 	bic.w	r1, r1, #3
 800593c:	6091      	str	r1, [r2, #8]
  while ((RCC->CFGR & RCC_CFGR_SWS) != RCC_CFGR_SWS_HSI)
 800593e:	689a      	ldr	r2, [r3, #8]
 8005940:	f012 020c 	ands.w	r2, r2, #12
 8005944:	d1fb      	bne.n	800593e <__early_init+0x10e>
    ;                                       /* Wait until HSI is selected.  */

  /* Registers finally cleared to reset values.*/
  RCC->CR &= RCC_CR_HSITRIM | RCC_CR_HSION; /* CR Reset value.              */
 8005946:	6818      	ldr	r0, [r3, #0]
  RCC->CR |= RCC_CR_HSEON | RCC_CR_HSEBYP;
#else
  /* No HSE Bypass.*/
  RCC->CR |= RCC_CR_HSEON;
#endif
  while ((RCC->CR & RCC_CR_HSERDY) == 0)
 8005948:	493e      	ldr	r1, [pc, #248]	; (8005a44 <__early_init+0x214>)
  RCC->CR &= RCC_CR_HSITRIM | RCC_CR_HSION; /* CR Reset value.              */
 800594a:	f000 00f9 	and.w	r0, r0, #249	; 0xf9
 800594e:	6018      	str	r0, [r3, #0]
  RCC->CFGR = 0;                            /* CFGR reset value.            */
 8005950:	609a      	str	r2, [r3, #8]
  RCC->CR |= RCC_CR_HSEON | RCC_CR_HSEBYP;
 8005952:	681a      	ldr	r2, [r3, #0]
 8005954:	f442 22a0 	orr.w	r2, r2, #327680	; 0x50000
 8005958:	601a      	str	r2, [r3, #0]
  while ((RCC->CR & RCC_CR_HSERDY) == 0)
 800595a:	680b      	ldr	r3, [r1, #0]
 800595c:	039b      	lsls	r3, r3, #14
 800595e:	d5fc      	bpl.n	800595a <__early_init+0x12a>
    ;                           /* Waits until HSE is stable.               */
#endif

#if STM32_LSI_ENABLED
  /* LSI activation.*/
  RCC->CSR |= RCC_CSR_LSION;
 8005960:	6f4a      	ldr	r2, [r1, #116]	; 0x74
  while ((RCC->CSR & RCC_CSR_LSIRDY) == 0)
 8005962:	4b38      	ldr	r3, [pc, #224]	; (8005a44 <__early_init+0x214>)
  RCC->CSR |= RCC_CSR_LSION;
 8005964:	f042 0201 	orr.w	r2, r2, #1
 8005968:	674a      	str	r2, [r1, #116]	; 0x74
  while ((RCC->CSR & RCC_CSR_LSIRDY) == 0)
 800596a:	6f5a      	ldr	r2, [r3, #116]	; 0x74
 800596c:	0797      	lsls	r7, r2, #30
 800596e:	d5fc      	bpl.n	800596a <__early_init+0x13a>
    ;                           /* Waits until LSI is stable.               */
#endif

#if STM32_ACTIVATE_PLL
  /* PLL activation.*/
  RCC->PLLCFGR = STM32_PLLQ | STM32_PLLSRC | STM32_PLLP | STM32_PLLN |
 8005970:	4a3f      	ldr	r2, [pc, #252]	; (8005a70 <__early_init+0x240>)
 8005972:	605a      	str	r2, [r3, #4]
                 STM32_PLLM;
  RCC->CR |= RCC_CR_PLLON;
 8005974:	6819      	ldr	r1, [r3, #0]

  /* Synchronization with voltage regulator stabilization.*/
#if defined(STM32F4XX)
  while ((PWR->CSR & PWR_CSR_VOSRDY) == 0)
 8005976:	4a3f      	ldr	r2, [pc, #252]	; (8005a74 <__early_init+0x244>)
  RCC->CR |= RCC_CR_PLLON;
 8005978:	f041 7180 	orr.w	r1, r1, #16777216	; 0x1000000
 800597c:	6019      	str	r1, [r3, #0]
  while ((PWR->CSR & PWR_CSR_VOSRDY) == 0)
 800597e:	6853      	ldr	r3, [r2, #4]
 8005980:	045e      	lsls	r6, r3, #17
 8005982:	d5fc      	bpl.n	800597e <__early_init+0x14e>
    ;                           /* Waits until power regulator is stable.   */

#if STM32_OVERDRIVE_REQUIRED
  /* Overdrive activation performed after activating the PLL in order to save
     time as recommended in RM in "Entering Over-drive mode" paragraph.*/
  PWR->CR |= PWR_CR_ODEN;
 8005984:	6811      	ldr	r1, [r2, #0]
  while (!(PWR->CSR & PWR_CSR_ODRDY))
 8005986:	4b3b      	ldr	r3, [pc, #236]	; (8005a74 <__early_init+0x244>)
  PWR->CR |= PWR_CR_ODEN;
 8005988:	f441 3180 	orr.w	r1, r1, #65536	; 0x10000
 800598c:	6011      	str	r1, [r2, #0]
  while (!(PWR->CSR & PWR_CSR_ODRDY))
 800598e:	685a      	ldr	r2, [r3, #4]
 8005990:	03d5      	lsls	r5, r2, #15
 8005992:	d5fc      	bpl.n	800598e <__early_init+0x15e>
      ;
  PWR->CR |= PWR_CR_ODSWEN;
 8005994:	681a      	ldr	r2, [r3, #0]
  while (!(PWR->CSR & PWR_CSR_ODSWRDY))
 8005996:	4937      	ldr	r1, [pc, #220]	; (8005a74 <__early_init+0x244>)
  PWR->CR |= PWR_CR_ODSWEN;
 8005998:	f442 3200 	orr.w	r2, r2, #131072	; 0x20000
 800599c:	601a      	str	r2, [r3, #0]
  while (!(PWR->CSR & PWR_CSR_ODSWRDY))
 800599e:	684b      	ldr	r3, [r1, #4]
 80059a0:	039c      	lsls	r4, r3, #14
 80059a2:	d5fc      	bpl.n	800599e <__early_init+0x16e>
      ;
#endif /* STM32_OVERDRIVE_REQUIRED */
#endif /* defined(STM32F4XX) */

  /* Waiting for PLL lock.*/
  while (!(RCC->CR & RCC_CR_PLLRDY))
 80059a4:	4b27      	ldr	r3, [pc, #156]	; (8005a44 <__early_init+0x214>)
 80059a6:	681a      	ldr	r2, [r3, #0]
 80059a8:	0190      	lsls	r0, r2, #6
 80059aa:	d5fc      	bpl.n	80059a6 <__early_init+0x176>
    ;
#endif /* STM32_ACTIVATE_PLL */

#if STM32_ACTIVATE_PLLI2S
  /* PLLI2S activation.*/
  RCC->PLLI2SCFGR = STM32_PLLI2SR | STM32_PLLI2SN | STM32_PLLI2SP |
 80059ac:	4a32      	ldr	r2, [pc, #200]	; (8005a78 <__early_init+0x248>)
 80059ae:	f8c3 2084 	str.w	r2, [r3, #132]	; 0x84
                    STM32_PLLI2SSRC | STM32_PLLI2SQ | STM32_PLLI2SM;
  RCC->CR |= RCC_CR_PLLI2SON;
 80059b2:	6819      	ldr	r1, [r3, #0]

  /* Waiting for PLL lock.*/
  while (!(RCC->CR & RCC_CR_PLLI2SRDY))
 80059b4:	4a23      	ldr	r2, [pc, #140]	; (8005a44 <__early_init+0x214>)
  RCC->CR |= RCC_CR_PLLI2SON;
 80059b6:	f041 6180 	orr.w	r1, r1, #67108864	; 0x4000000
 80059ba:	6019      	str	r1, [r3, #0]
  while (!(RCC->CR & RCC_CR_PLLI2SRDY))
 80059bc:	6813      	ldr	r3, [r2, #0]
 80059be:	0119      	lsls	r1, r3, #4
 80059c0:	d5fc      	bpl.n	80059bc <__early_init+0x18c>
    ;
#endif /* STM32_ACTIVATE_PLLI2S */

#if STM32_ACTIVATE_PLLSAI
  /* PLLSAI activation.*/
  RCC->PLLSAICFGR = STM32_PLLSAIR | STM32_PLLSAIN | STM32_PLLSAIP |
 80059c2:	4b2e      	ldr	r3, [pc, #184]	; (8005a7c <__early_init+0x24c>)
 80059c4:	f8c2 3088 	str.w	r3, [r2, #136]	; 0x88
                    STM32_PLLSAIQ | STM32_PLLSAIM;
  RCC->CR |= RCC_CR_PLLSAION;
 80059c8:	6811      	ldr	r1, [r2, #0]

  /* Waiting for PLL lock.*/
  while (!(RCC->CR & RCC_CR_PLLSAIRDY))
 80059ca:	4b1e      	ldr	r3, [pc, #120]	; (8005a44 <__early_init+0x214>)
  RCC->CR |= RCC_CR_PLLSAION;
 80059cc:	f041 5180 	orr.w	r1, r1, #268435456	; 0x10000000
 80059d0:	6011      	str	r1, [r2, #0]
  while (!(RCC->CR & RCC_CR_PLLSAIRDY))
 80059d2:	681a      	ldr	r2, [r3, #0]
 80059d4:	0092      	lsls	r2, r2, #2
 80059d6:	d5fc      	bpl.n	80059d2 <__early_init+0x1a2>
    ;
#endif /* STM32_ACTIVATE_PLLSAI */

  /* Other clock-related settings (dividers, MCO etc).*/
#if !defined(STM32F413xx)
  RCC->CFGR = STM32_MCO2PRE | STM32_MCO2SEL | STM32_MCO1PRE | STM32_MCO1SEL |
 80059d8:	4929      	ldr	r1, [pc, #164]	; (8005a80 <__early_init+0x250>)
 80059da:	6099      	str	r1, [r3, #8]
  /* Special case, in those devices STM32_CK48MSEL is located in the
     DCKCFGR register.*/
    dckcfgr |= STM32_CK48MSEL;
#endif
#if !defined(STM32F413xx)
    RCC->DCKCFGR = dckcfgr |
 80059dc:	4829      	ldr	r0, [pc, #164]	; (8005a84 <__early_init+0x254>)

  /* Flash setup.*/
#if !defined(STM32_REMOVE_REVISION_A_FIX)
  /* Some old revisions of F4x MCUs randomly crashes with compiler
     optimizations enabled AND flash caches enabled. */
  if ((DBGMCU->IDCODE == 0x20006411) && (SCB->CPUID == 0x410FC241))
 80059de:	4a2a      	ldr	r2, [pc, #168]	; (8005a88 <__early_init+0x258>)
    RCC->DCKCFGR = dckcfgr |
 80059e0:	f8c3 008c 	str.w	r0, [r3, #140]	; 0x8c
  RCC->DCKCFGR2 = STM32_CK48MSEL;
 80059e4:	f04f 6100 	mov.w	r1, #134217728	; 0x8000000
 80059e8:	f8c3 1094 	str.w	r1, [r3, #148]	; 0x94
  if ((DBGMCU->IDCODE == 0x20006411) && (SCB->CPUID == 0x410FC241))
 80059ec:	6812      	ldr	r2, [r2, #0]
 80059ee:	4b27      	ldr	r3, [pc, #156]	; (8005a8c <__early_init+0x25c>)
 80059f0:	429a      	cmp	r2, r3
 80059f2:	d01d      	beq.n	8005a30 <__early_init+0x200>
    FLASH->ACR = FLASH_ACR_PRFTEN | STM32_FLASHBITS;
  else
    FLASH->ACR = FLASH_ACR_PRFTEN | FLASH_ACR_ICEN |
 80059f4:	4b26      	ldr	r3, [pc, #152]	; (8005a90 <__early_init+0x260>)
 80059f6:	f240 7205 	movw	r2, #1797	; 0x705
 80059fa:	601a      	str	r2, [r3, #0]
                 FLASH_ACR_DCEN | STM32_FLASHBITS;
#else
  FLASH->ACR = FLASH_ACR_PRFTEN | FLASH_ACR_ICEN |
               FLASH_ACR_DCEN | STM32_FLASHBITS;
#endif
  while ((FLASH->ACR & FLASH_ACR_LATENCY_Msk) !=
 80059fc:	4a24      	ldr	r2, [pc, #144]	; (8005a90 <__early_init+0x260>)
 80059fe:	6813      	ldr	r3, [r2, #0]
 8005a00:	f003 030f 	and.w	r3, r3, #15
 8005a04:	2b05      	cmp	r3, #5
 8005a06:	d1fa      	bne.n	80059fe <__early_init+0x1ce>
         (STM32_FLASHBITS & FLASH_ACR_LATENCY_Msk)) {
  }

  /* Switching to the configured clock source if it is different from HSI.*/
#if (STM32_SW != STM32_SW_HSI)
  RCC->CFGR |= STM32_SW;        /* Switches on the selected clock source.   */
 8005a08:	4b0e      	ldr	r3, [pc, #56]	; (8005a44 <__early_init+0x214>)
 8005a0a:	689a      	ldr	r2, [r3, #8]
 8005a0c:	f042 0202 	orr.w	r2, r2, #2
 8005a10:	609a      	str	r2, [r3, #8]
  while ((RCC->CFGR & RCC_CFGR_SWS) != (STM32_SW << 2))
 8005a12:	689a      	ldr	r2, [r3, #8]
 8005a14:	f002 020c 	and.w	r2, r2, #12
 8005a18:	2a08      	cmp	r2, #8
 8005a1a:	d1fa      	bne.n	8005a12 <__early_init+0x1e2>
#endif
#endif /* STM32_NO_INIT */

  /* SYSCFG clock enabled here because it is a multi-functional unit shared
     among multiple drivers.*/
  rccEnableAPB2(RCC_APB2ENR_SYSCFGEN, true);
 8005a1c:	6c5a      	ldr	r2, [r3, #68]	; 0x44
 8005a1e:	f442 4280 	orr.w	r2, r2, #16384	; 0x4000
 8005a22:	645a      	str	r2, [r3, #68]	; 0x44
 8005a24:	6e5a      	ldr	r2, [r3, #100]	; 0x64
 8005a26:	f442 4280 	orr.w	r2, r2, #16384	; 0x4000
 8005a2a:	665a      	str	r2, [r3, #100]	; 0x64
 8005a2c:	6e5b      	ldr	r3, [r3, #100]	; 0x64

  stm32_gpio_init();
  stm32_clock_init();
}
 8005a2e:	bdf0      	pop	{r4, r5, r6, r7, pc}
  if ((DBGMCU->IDCODE == 0x20006411) && (SCB->CPUID == 0x410FC241))
 8005a30:	4a18      	ldr	r2, [pc, #96]	; (8005a94 <__early_init+0x264>)
 8005a32:	4b19      	ldr	r3, [pc, #100]	; (8005a98 <__early_init+0x268>)
 8005a34:	6812      	ldr	r2, [r2, #0]
 8005a36:	429a      	cmp	r2, r3
 8005a38:	d1dc      	bne.n	80059f4 <__early_init+0x1c4>
    FLASH->ACR = FLASH_ACR_PRFTEN | STM32_FLASHBITS;
 8005a3a:	4b15      	ldr	r3, [pc, #84]	; (8005a90 <__early_init+0x260>)
 8005a3c:	f240 1205 	movw	r2, #261	; 0x105
 8005a40:	601a      	str	r2, [r3, #0]
 8005a42:	e7db      	b.n	80059fc <__early_init+0x1cc>
 8005a44:	40023800 	.word	0x40023800
 8005a48:	40020000 	.word	0x40020000
 8005a4c:	40020c00 	.word	0x40020c00
 8005a50:	64155105 	.word	0x64155105
 8005a54:	40020400 	.word	0x40020400
 8005a58:	2a8004a0 	.word	0x2a8004a0
 8005a5c:	40020800 	.word	0x40020800
 8005a60:	40021000 	.word	0x40021000
 8005a64:	01555555 	.word	0x01555555
 8005a68:	40021400 	.word	0x40021400
 8005a6c:	55555550 	.word	0x55555550
 8005a70:	07405a08 	.word	0x07405a08
 8005a74:	40007000 	.word	0x40007000
 8005a78:	44413004 	.word	0x44413004
 8005a7c:	44033004 	.word	0x44033004
 8005a80:	40089400 	.word	0x40089400
 8005a84:	00800003 	.word	0x00800003
 8005a88:	e0042000 	.word	0xe0042000
 8005a8c:	20006411 	.word	0x20006411
 8005a90:	40023c00 	.word	0x40023c00
 8005a94:	e000ed00 	.word	0xe000ed00
 8005a98:	410fc241 	.word	0x410fc241
 8005a9c:	00000000 	.word	0x00000000

08005aa0 <VectorD8>:
OSAL_IRQ_HANDLER(STM32_USART2_HANDLER) {
 8005aa0:	e92d 47f0 	stmdb	sp!, {r4, r5, r6, r7, r8, r9, sl, lr}
  USART_TypeDef *u = sdp->usart;
 8005aa4:	4c66      	ldr	r4, [pc, #408]	; (8005c40 <VectorD8+0x1a0>)
 8005aa6:	6f66      	ldr	r6, [r4, #116]	; 0x74
  uint16_t cr1 = u->CR1;
 8005aa8:	68f7      	ldr	r7, [r6, #12]
  uint16_t sr = u->SR;
 8005aaa:	6833      	ldr	r3, [r6, #0]
  if (sr & USART_SR_LBD) {
 8005aac:	05da      	lsls	r2, r3, #23
  uint16_t sr = u->SR;
 8005aae:	b29d      	uxth	r5, r3
  if (sr & USART_SR_LBD) {
 8005ab0:	d47b      	bmi.n	8005baa <VectorD8+0x10a>
 8005ab2:	2320      	movs	r3, #32
 8005ab4:	f383 8811 	msr	BASEPRI, r3
  while (sr & (USART_SR_RXNE | USART_SR_ORE | USART_SR_NE | USART_SR_FE |
 8005ab8:	f015 0f2f 	tst.w	r5, #47	; 0x2f
 8005abc:	d04d      	beq.n	8005b5a <VectorD8+0xba>
 *
 * @iclass
 */
void chThdDequeueNextI(threads_queue_t *tqp, msg_t msg) {

  if (queue_notempty(tqp)) {
 8005abe:	f8df 8188 	ldr.w	r8, [pc, #392]	; 8005c48 <VectorD8+0x1a8>

  tp = queue_fifo_remove(tqp);

  chDbgAssert(tp->state == CH_STATE_QUEUED, "invalid state");

  tp->u.rdymsg = msg;
 8005ac2:	f04f 0900 	mov.w	r9, #0
 8005ac6:	e008      	b.n	8005ada <VectorD8+0x3a>
    if (sr & USART_SR_RXNE)
 8005ac8:	06ad      	lsls	r5, r5, #26
    b = (uint8_t)u->DR & sdp->rxmask;
 8005aca:	f8d6 a004 	ldr.w	sl, [r6, #4]
    if (sr & USART_SR_RXNE)
 8005ace:	d41d      	bmi.n	8005b0c <VectorD8+0x6c>
    sr = u->SR;
 8005ad0:	6833      	ldr	r3, [r6, #0]
  while (sr & (USART_SR_RXNE | USART_SR_ORE | USART_SR_NE | USART_SR_FE |
 8005ad2:	f013 0f2f 	tst.w	r3, #47	; 0x2f
    sr = u->SR;
 8005ad6:	b29d      	uxth	r5, r3
  while (sr & (USART_SR_RXNE | USART_SR_ORE | USART_SR_NE | USART_SR_FE |
 8005ad8:	d03f      	beq.n	8005b5a <VectorD8+0xba>
    if (sr & (USART_SR_ORE | USART_SR_NE | USART_SR_FE  | USART_SR_PE))
 8005ada:	072b      	lsls	r3, r5, #28
 8005adc:	d0f4      	beq.n	8005ac8 <VectorD8+0x28>
    sts |= SD_OVERRUN_ERROR;
 8005ade:	f015 0f08 	tst.w	r5, #8
 8005ae2:	bf0c      	ite	eq
 8005ae4:	2000      	moveq	r0, #0
 8005ae6:	2080      	movne	r0, #128	; 0x80
  if (sr & USART_SR_PE)
 8005ae8:	07e9      	lsls	r1, r5, #31
    sts |= SD_PARITY_ERROR;
 8005aea:	bf48      	it	mi
 8005aec:	f040 0020 	orrmi.w	r0, r0, #32
  if (sr & USART_SR_FE)
 8005af0:	07aa      	lsls	r2, r5, #30
    sts |= SD_FRAMING_ERROR;
 8005af2:	bf48      	it	mi
 8005af4:	f040 0040 	orrmi.w	r0, r0, #64	; 0x40
  if (sr & USART_SR_NE)
 8005af8:	076b      	lsls	r3, r5, #29
    sts |= SD_NOISE_ERROR;
 8005afa:	bf48      	it	mi
 8005afc:	f440 7080 	orrmi.w	r0, r0, #256	; 0x100
  chEvtBroadcastFlagsI(esp, flags);
 8005b00:	f7fd fc86 	bl	8003410 <chEvtBroadcastFlagsI.constprop.0>
    if (sr & USART_SR_RXNE)
 8005b04:	06ad      	lsls	r5, r5, #26
    b = (uint8_t)u->DR & sdp->rxmask;
 8005b06:	f8d6 a004 	ldr.w	sl, [r6, #4]
    if (sr & USART_SR_RXNE)
 8005b0a:	d5e1      	bpl.n	8005ad0 <VectorD8+0x30>
void sdIncomingDataI(SerialDriver *sdp, uint8_t b) {

  osalDbgCheckClassI();
  osalDbgCheck(sdp != NULL);

  if (iqIsEmptyI(&sdp->iqueue))
 8005b0c:	6963      	ldr	r3, [r4, #20]
    b = (uint8_t)u->DR & sdp->rxmask;
 8005b0e:	f894 5078 	ldrb.w	r5, [r4, #120]	; 0x78
 8005b12:	2b00      	cmp	r3, #0
 8005b14:	d03a      	beq.n	8005b8c <VectorD8+0xec>
  if (!iqIsFullI(iqp)) {
 8005b16:	e9d4 3208 	ldrd	r3, r2, [r4, #32]
 8005b1a:	4293      	cmp	r3, r2
 8005b1c:	d03d      	beq.n	8005b9a <VectorD8+0xfa>
    iqp->q_counter++;
 8005b1e:	6962      	ldr	r2, [r4, #20]
    *iqp->q_wrptr++ = b;
 8005b20:	1c59      	adds	r1, r3, #1
    iqp->q_counter++;
 8005b22:	3201      	adds	r2, #1
 8005b24:	ea05 050a 	and.w	r5, r5, sl
 8005b28:	6162      	str	r2, [r4, #20]
    *iqp->q_wrptr++ = b;
 8005b2a:	6221      	str	r1, [r4, #32]
 8005b2c:	701d      	strb	r5, [r3, #0]
    if (iqp->q_wrptr >= iqp->q_top) {
 8005b2e:	e9d4 3207 	ldrd	r3, r2, [r4, #28]
 8005b32:	429a      	cmp	r2, r3
 8005b34:	d301      	bcc.n	8005b3a <VectorD8+0x9a>
      iqp->q_wrptr = iqp->q_buffer;
 8005b36:	69a3      	ldr	r3, [r4, #24]
 8005b38:	6223      	str	r3, [r4, #32]
  return (bool)(tqp->next != (const thread_t *)tqp);
 8005b3a:	68e0      	ldr	r0, [r4, #12]
 8005b3c:	4540      	cmp	r0, r8
 8005b3e:	d0c7      	beq.n	8005ad0 <VectorD8+0x30>
  tqp->next             = tp->queue.next;
 8005b40:	6803      	ldr	r3, [r0, #0]
 8005b42:	60e3      	str	r3, [r4, #12]
  tqp->next->queue.prev = (thread_t *)tqp;
 8005b44:	f8c3 8004 	str.w	r8, [r3, #4]
 8005b48:	f8c0 9024 	str.w	r9, [r0, #36]	; 0x24
  (void) chSchReadyI(tp);
 8005b4c:	f7fd fc48 	bl	80033e0 <chSchReadyI>
    sr = u->SR;
 8005b50:	6833      	ldr	r3, [r6, #0]
  while (sr & (USART_SR_RXNE | USART_SR_ORE | USART_SR_NE | USART_SR_FE |
 8005b52:	f013 0f2f 	tst.w	r3, #47	; 0x2f
    sr = u->SR;
 8005b56:	b29d      	uxth	r5, r3
  while (sr & (USART_SR_RXNE | USART_SR_ORE | USART_SR_NE | USART_SR_FE |
 8005b58:	d1bf      	bne.n	8005ada <VectorD8+0x3a>
 8005b5a:	2300      	movs	r3, #0
 8005b5c:	f383 8811 	msr	BASEPRI, r3
  if ((cr1 & USART_CR1_TXEIE) && (sr & USART_SR_TXE)) {
 8005b60:	0638      	lsls	r0, r7, #24
 8005b62:	d501      	bpl.n	8005b68 <VectorD8+0xc8>
 8005b64:	0629      	lsls	r1, r5, #24
 8005b66:	d42e      	bmi.n	8005bc6 <VectorD8+0x126>
  if ((cr1 & USART_CR1_TCIE) && (sr & USART_SR_TC)) {
 8005b68:	067a      	lsls	r2, r7, #25
 8005b6a:	d50b      	bpl.n	8005b84 <VectorD8+0xe4>
 8005b6c:	066b      	lsls	r3, r5, #25
 8005b6e:	d509      	bpl.n	8005b84 <VectorD8+0xe4>
 8005b70:	2320      	movs	r3, #32
 8005b72:	f383 8811 	msr	BASEPRI, r3
    if (oqIsEmptyI(&sdp->oqueue)) {
 8005b76:	e9d4 2311 	ldrd	r2, r3, [r4, #68]	; 0x44
 8005b7a:	429a      	cmp	r2, r3
 8005b7c:	d049      	beq.n	8005c12 <VectorD8+0x172>
 8005b7e:	2300      	movs	r3, #0
 8005b80:	f383 8811 	msr	BASEPRI, r3
}
 8005b84:	e8bd 47f0 	ldmia.w	sp!, {r4, r5, r6, r7, r8, r9, sl, lr}
  OSAL_IRQ_EPILOGUE();
 8005b88:	f7fd bb82 	b.w	8003290 <_port_irq_epilogue>
 8005b8c:	2004      	movs	r0, #4
 8005b8e:	f7fd fc3f 	bl	8003410 <chEvtBroadcastFlagsI.constprop.0>
  if (!iqIsFullI(iqp)) {
 8005b92:	e9d4 3208 	ldrd	r3, r2, [r4, #32]
 8005b96:	4293      	cmp	r3, r2
 8005b98:	d1c1      	bne.n	8005b1e <VectorD8+0x7e>
 8005b9a:	6962      	ldr	r2, [r4, #20]
 8005b9c:	2a00      	cmp	r2, #0
 8005b9e:	d0be      	beq.n	8005b1e <VectorD8+0x7e>
 8005ba0:	f44f 6080 	mov.w	r0, #1024	; 0x400
 8005ba4:	f7fd fc34 	bl	8003410 <chEvtBroadcastFlagsI.constprop.0>
 8005ba8:	e792      	b.n	8005ad0 <VectorD8+0x30>
 8005baa:	2320      	movs	r3, #32
 8005bac:	f383 8811 	msr	BASEPRI, r3
 8005bb0:	f44f 7000 	mov.w	r0, #512	; 0x200
 8005bb4:	f7fd fc2c 	bl	8003410 <chEvtBroadcastFlagsI.constprop.0>
    u->SR = ~USART_SR_LBD;
 8005bb8:	f46f 7380 	mvn.w	r3, #256	; 0x100
 8005bbc:	6033      	str	r3, [r6, #0]
 8005bbe:	2300      	movs	r3, #0
 8005bc0:	f383 8811 	msr	BASEPRI, r3
 8005bc4:	e775      	b.n	8005ab2 <VectorD8+0x12>
 8005bc6:	2320      	movs	r3, #32
 8005bc8:	f383 8811 	msr	BASEPRI, r3
  if (!oqIsEmptyI(oqp)) {
 8005bcc:	e9d4 2311 	ldrd	r2, r3, [r4, #68]	; 0x44
 8005bd0:	429a      	cmp	r2, r3
 8005bd2:	d029      	beq.n	8005c28 <VectorD8+0x188>
    oqp->q_counter++;
 8005bd4:	6ba2      	ldr	r2, [r4, #56]	; 0x38
    if (oqp->q_rdptr >= oqp->q_top) {
 8005bd6:	6c21      	ldr	r1, [r4, #64]	; 0x40
    b = *oqp->q_rdptr++;
 8005bd8:	1c58      	adds	r0, r3, #1
    oqp->q_counter++;
 8005bda:	3201      	adds	r2, #1
 8005bdc:	63a2      	str	r2, [r4, #56]	; 0x38
    b = *oqp->q_rdptr++;
 8005bde:	64a0      	str	r0, [r4, #72]	; 0x48
    if (oqp->q_rdptr >= oqp->q_top) {
 8005be0:	4288      	cmp	r0, r1
    b = *oqp->q_rdptr++;
 8005be2:	f893 8000 	ldrb.w	r8, [r3]
    if (oqp->q_rdptr >= oqp->q_top) {
 8005be6:	d301      	bcc.n	8005bec <VectorD8+0x14c>
      oqp->q_rdptr = oqp->q_buffer;
 8005be8:	6be3      	ldr	r3, [r4, #60]	; 0x3c
 8005bea:	64a3      	str	r3, [r4, #72]	; 0x48
  return (bool)(tqp->next != (const thread_t *)tqp);
 8005bec:	6b20      	ldr	r0, [r4, #48]	; 0x30
 8005bee:	4b15      	ldr	r3, [pc, #84]	; (8005c44 <VectorD8+0x1a4>)
 8005bf0:	4298      	cmp	r0, r3
 8005bf2:	d006      	beq.n	8005c02 <VectorD8+0x162>
  tqp->next             = tp->queue.next;
 8005bf4:	6802      	ldr	r2, [r0, #0]
 8005bf6:	6322      	str	r2, [r4, #48]	; 0x30
  tp->u.rdymsg = msg;
 8005bf8:	2100      	movs	r1, #0
  tqp->next->queue.prev = (thread_t *)tqp;
 8005bfa:	6053      	str	r3, [r2, #4]
 8005bfc:	6241      	str	r1, [r0, #36]	; 0x24
  (void) chSchReadyI(tp);
 8005bfe:	f7fd fbef 	bl	80033e0 <chSchReadyI>
      u->DR = b;
 8005c02:	f8c6 8004 	str.w	r8, [r6, #4]
 8005c06:	2300      	movs	r3, #0
 8005c08:	f383 8811 	msr	BASEPRI, r3
  if ((cr1 & USART_CR1_TCIE) && (sr & USART_SR_TC)) {
 8005c0c:	067a      	lsls	r2, r7, #25
 8005c0e:	d5b9      	bpl.n	8005b84 <VectorD8+0xe4>
 8005c10:	e7ac      	b.n	8005b6c <VectorD8+0xcc>
    if (oqIsEmptyI(&sdp->oqueue)) {
 8005c12:	6ba3      	ldr	r3, [r4, #56]	; 0x38
 8005c14:	2b00      	cmp	r3, #0
 8005c16:	d0b2      	beq.n	8005b7e <VectorD8+0xde>
 8005c18:	2010      	movs	r0, #16
 8005c1a:	f7fd fbf9 	bl	8003410 <chEvtBroadcastFlagsI.constprop.0>
      u->CR1 = cr1 & ~USART_CR1_TCIE;
 8005c1e:	f64f 73bf 	movw	r3, #65471	; 0xffbf
 8005c22:	401f      	ands	r7, r3
 8005c24:	60f7      	str	r7, [r6, #12]
 8005c26:	e7aa      	b.n	8005b7e <VectorD8+0xde>
  if (!oqIsEmptyI(oqp)) {
 8005c28:	6ba2      	ldr	r2, [r4, #56]	; 0x38
 8005c2a:	2a00      	cmp	r2, #0
 8005c2c:	d0d2      	beq.n	8005bd4 <VectorD8+0x134>
 8005c2e:	2008      	movs	r0, #8
 8005c30:	f7fd fbee 	bl	8003410 <chEvtBroadcastFlagsI.constprop.0>
      u->CR1 = cr1 & ~USART_CR1_TXEIE;
 8005c34:	f64f 737f 	movw	r3, #65407	; 0xff7f
 8005c38:	403b      	ands	r3, r7
 8005c3a:	60f3      	str	r3, [r6, #12]
 8005c3c:	e7e3      	b.n	8005c06 <VectorD8+0x166>
 8005c3e:	bf00      	nop
 8005c40:	20001128 	.word	0x20001128
 8005c44:	20001158 	.word	0x20001158
 8005c48:	20001134 	.word	0x20001134
 8005c4c:	00000000 	.word	0x00000000

08005c50 <VectorB0>:
void st_lld_serve_interrupt(void) {
#if OSAL_ST_MODE == OSAL_ST_MODE_FREERUNNING
  uint32_t sr;
  stm32_tim_t *timp = STM32_ST_TIM;

  sr  = timp->SR;
 8005c50:	f04f 4080 	mov.w	r0, #1073741824	; 0x40000000
OSAL_IRQ_HANDLER(ST_HANDLER) {
 8005c54:	e92d 43f8 	stmdb	sp!, {r3, r4, r5, r6, r7, r8, r9, lr}
  sr  = timp->SR;
 8005c58:	6903      	ldr	r3, [r0, #16]
  sr &= timp->DIER & STM32_TIM_DIER_IRQ_MASK;
 8005c5a:	68c2      	ldr	r2, [r0, #12]
 8005c5c:	4013      	ands	r3, r2
 8005c5e:	b2da      	uxtb	r2, r3
  timp->SR = ~sr;
 8005c60:	43d2      	mvns	r2, r2

  if ((sr & TIM_SR_CC1IF) != 0U)
 8005c62:	079b      	lsls	r3, r3, #30
  timp->SR = ~sr;
 8005c64:	6102      	str	r2, [r0, #16]
  if ((sr & TIM_SR_CC1IF) != 0U)
 8005c66:	d403      	bmi.n	8005c70 <VectorB0+0x20>
}
 8005c68:	e8bd 43f8 	ldmia.w	sp!, {r3, r4, r5, r6, r7, r8, r9, lr}
  OSAL_IRQ_EPILOGUE();
 8005c6c:	f7fd bb10 	b.w	8003290 <_port_irq_epilogue>
 8005c70:	2320      	movs	r3, #32
 8005c72:	f383 8811 	msr	BASEPRI, r3
  virtual_timer_t *vtp;
  systime_t now;
  sysinterval_t delta, nowdelta;

  /* Looping through timers.*/
  vtp = ch.vtlist.next;
 8005c76:	4d23      	ldr	r5, [pc, #140]	; (8005d04 <VectorB0+0xb4>)
  return (systime_t)STM32_ST_TIM->CNT;
 8005c78:	6a47      	ldr	r7, [r0, #36]	; 0x24
 8005c7a:	69eb      	ldr	r3, [r5, #28]
  while (true) {

    /* Getting the system time as reference.*/
    now = chVTGetSystemTimeX();
    nowdelta = chTimeDiffX(ch.vtlist.lasttime, now);
 8005c7c:	6aaa      	ldr	r2, [r5, #40]	; 0x28

    /* The list scan is limited by the timers header having
       "ch.vtlist.vt_delta == (sysinterval_t)-1" which is
       greater than all deltas.*/
    if (nowdelta < vtp->delta) {
 8005c7e:	6899      	ldr	r1, [r3, #8]
  return (sysinterval_t)((systime_t)(end - start));
 8005c80:	1abe      	subs	r6, r7, r2
 8005c82:	42b1      	cmp	r1, r6
 8005c84:	bf88      	it	hi
 8005c86:	f105 091c 	addhi.w	r9, r5, #28
 8005c8a:	d825      	bhi.n	8005cd8 <VectorB0+0x88>
  STM32_ST_TIM->DIER = 0U;
 8005c8c:	4604      	mov	r4, r0
 8005c8e:	f105 091c 	add.w	r9, r5, #28
      nowdelta -= vtp->delta;

      vtp->next->prev = (virtual_timer_t *)&ch.vtlist;
      ch.vtlist.next = vtp->next;
      fn = vtp->func;
      vtp->func = NULL;
 8005c92:	f04f 0800 	mov.w	r8, #0
 8005c96:	2720      	movs	r7, #32
 8005c98:	e000      	b.n	8005c9c <VectorB0+0x4c>
 8005c9a:	6aaa      	ldr	r2, [r5, #40]	; 0x28
      vtp->next->prev = (virtual_timer_t *)&ch.vtlist;
 8005c9c:	6818      	ldr	r0, [r3, #0]
      ch.vtlist.lasttime += vtp->delta;
 8005c9e:	440a      	add	r2, r1

      /* If the list becomes empty then the timer is stopped.*/
      if (ch.vtlist.next == (virtual_timer_t *)&ch.vtlist) {
 8005ca0:	4548      	cmp	r0, r9
      ch.vtlist.lasttime += vtp->delta;
 8005ca2:	62aa      	str	r2, [r5, #40]	; 0x28
      nowdelta -= vtp->delta;
 8005ca4:	eba6 0601 	sub.w	r6, r6, r1
      fn = vtp->func;
 8005ca8:	68da      	ldr	r2, [r3, #12]
      vtp->next->prev = (virtual_timer_t *)&ch.vtlist;
 8005caa:	f8c0 9004 	str.w	r9, [r0, #4]
      ch.vtlist.next = vtp->next;
 8005cae:	61e8      	str	r0, [r5, #28]
      vtp->func = NULL;
 8005cb0:	f8c3 800c 	str.w	r8, [r3, #12]
 8005cb4:	bf08      	it	eq
 8005cb6:	f8c4 800c 	streq.w	r8, [r4, #12]
 8005cba:	f388 8811 	msr	BASEPRI, r8
        port_timer_stop_alarm();
      }

      /* The callback is invoked outside the kernel critical zone.*/
      chSysUnlockFromISR();
      fn(vtp->par);
 8005cbe:	6918      	ldr	r0, [r3, #16]
 8005cc0:	4790      	blx	r2
 8005cc2:	f387 8811 	msr	BASEPRI, r7
      chSysLockFromISR();

      /* Next element in the list.*/
      vtp = ch.vtlist.next;
 8005cc6:	69eb      	ldr	r3, [r5, #28]
    }
    while (vtp->delta <= nowdelta);
 8005cc8:	6899      	ldr	r1, [r3, #8]
 8005cca:	428e      	cmp	r6, r1
 8005ccc:	d2e5      	bcs.n	8005c9a <VectorB0+0x4a>
  return (systime_t)STM32_ST_TIM->CNT;
 8005cce:	6a67      	ldr	r7, [r4, #36]	; 0x24
    nowdelta = chTimeDiffX(ch.vtlist.lasttime, now);
 8005cd0:	6aaa      	ldr	r2, [r5, #40]	; 0x28
 8005cd2:	1abe      	subs	r6, r7, r2
    if (nowdelta < vtp->delta) {
 8005cd4:	428e      	cmp	r6, r1
 8005cd6:	d2de      	bcs.n	8005c96 <VectorB0+0x46>
  }

  /* If the list is empty, nothing else to do.*/
  if (ch.vtlist.next == (virtual_timer_t *)&ch.vtlist) {
 8005cd8:	454b      	cmp	r3, r9
 8005cda:	d00b      	beq.n	8005cf4 <VectorB0+0xa4>
  }

  /* The "unprocessed nowdelta" time slice is added to "last time"
     and subtracted to next timer's delta.*/
  ch.vtlist.lasttime += nowdelta;
  ch.vtlist.next->delta -= nowdelta;
 8005cdc:	6899      	ldr	r1, [r3, #8]
  ch.vtlist.lasttime += nowdelta;
 8005cde:	62af      	str	r7, [r5, #40]	; 0x28
  ch.vtlist.next->delta -= nowdelta;
 8005ce0:	1bc9      	subs	r1, r1, r7
 8005ce2:	440a      	add	r2, r1
  STM32_ST_TIM->CCR[0] = (uint32_t)abstime;
 8005ce4:	f04f 4180 	mov.w	r1, #1073741824	; 0x40000000
  return systime + (systime_t)interval;
 8005ce8:	2a02      	cmp	r2, #2
 8005cea:	bf2c      	ite	cs
 8005cec:	18bf      	addcs	r7, r7, r2
 8005cee:	3702      	addcc	r7, #2
 8005cf0:	609a      	str	r2, [r3, #8]
 8005cf2:	634f      	str	r7, [r1, #52]	; 0x34
 8005cf4:	2300      	movs	r3, #0
 8005cf6:	f383 8811 	msr	BASEPRI, r3
}
 8005cfa:	e8bd 43f8 	ldmia.w	sp!, {r3, r4, r5, r6, r7, r8, r9, lr}
  OSAL_IRQ_EPILOGUE();
 8005cfe:	f7fd bac7 	b.w	8003290 <_port_irq_epilogue>
 8005d02:	bf00      	nop
 8005d04:	2000128c 	.word	0x2000128c
	...

08005d10 <Vector158>:
  flags = (DMA2->HISR >> 22U) & STM32_DMA_ISR_MASK;
 8005d10:	4b08      	ldr	r3, [pc, #32]	; (8005d34 <Vector158+0x24>)
  if (dma.streams[15].func)
 8005d12:	4809      	ldr	r0, [pc, #36]	; (8005d38 <Vector158+0x28>)
  flags = (DMA2->HISR >> 22U) & STM32_DMA_ISR_MASK;
 8005d14:	6859      	ldr	r1, [r3, #4]
  if (dma.streams[15].func)
 8005d16:	6fc2      	ldr	r2, [r0, #124]	; 0x7c
  flags = (DMA2->HISR >> 22U) & STM32_DMA_ISR_MASK;
 8005d18:	0d89      	lsrs	r1, r1, #22
 8005d1a:	f001 013d 	and.w	r1, r1, #61	; 0x3d
OSAL_IRQ_HANDLER(STM32_DMA2_CH7_HANDLER) {
 8005d1e:	b510      	push	{r4, lr}
  DMA2->HIFCR = flags << 22U;
 8005d20:	058c      	lsls	r4, r1, #22
 8005d22:	60dc      	str	r4, [r3, #12]
  if (dma.streams[15].func)
 8005d24:	b112      	cbz	r2, 8005d2c <Vector158+0x1c>
    dma.streams[15].func(dma.streams[15].param, flags);
 8005d26:	f8d0 0080 	ldr.w	r0, [r0, #128]	; 0x80
 8005d2a:	4790      	blx	r2
}
 8005d2c:	e8bd 4010 	ldmia.w	sp!, {r4, lr}
  OSAL_IRQ_EPILOGUE();
 8005d30:	f7fd baae 	b.w	8003290 <_port_irq_epilogue>
 8005d34:	40026400 	.word	0x40026400
 8005d38:	2000144c 	.word	0x2000144c
 8005d3c:	00000000 	.word	0x00000000

08005d40 <Vector154>:
  flags = (DMA2->HISR >> 16U) & STM32_DMA_ISR_MASK;
 8005d40:	4b08      	ldr	r3, [pc, #32]	; (8005d64 <Vector154+0x24>)
  if (dma.streams[14].func)
 8005d42:	4809      	ldr	r0, [pc, #36]	; (8005d68 <Vector154+0x28>)
  flags = (DMA2->HISR >> 16U) & STM32_DMA_ISR_MASK;
 8005d44:	6859      	ldr	r1, [r3, #4]
  if (dma.streams[14].func)
 8005d46:	6f42      	ldr	r2, [r0, #116]	; 0x74
  flags = (DMA2->HISR >> 16U) & STM32_DMA_ISR_MASK;
 8005d48:	0c09      	lsrs	r1, r1, #16
 8005d4a:	f001 013d 	and.w	r1, r1, #61	; 0x3d
OSAL_IRQ_HANDLER(STM32_DMA2_CH6_HANDLER) {
 8005d4e:	b510      	push	{r4, lr}
  DMA2->HIFCR = flags << 16U;
 8005d50:	040c      	lsls	r4, r1, #16
 8005d52:	60dc      	str	r4, [r3, #12]
  if (dma.streams[14].func)
 8005d54:	b10a      	cbz	r2, 8005d5a <Vector154+0x1a>
    dma.streams[14].func(dma.streams[14].param, flags);
 8005d56:	6f80      	ldr	r0, [r0, #120]	; 0x78
 8005d58:	4790      	blx	r2
}
 8005d5a:	e8bd 4010 	ldmia.w	sp!, {r4, lr}
  OSAL_IRQ_EPILOGUE();
 8005d5e:	f7fd ba97 	b.w	8003290 <_port_irq_epilogue>
 8005d62:	bf00      	nop
 8005d64:	40026400 	.word	0x40026400
 8005d68:	2000144c 	.word	0x2000144c
 8005d6c:	00000000 	.word	0x00000000

08005d70 <Vector150>:
  flags = (DMA2->HISR >> 6U) & STM32_DMA_ISR_MASK;
 8005d70:	4b08      	ldr	r3, [pc, #32]	; (8005d94 <Vector150+0x24>)
  if (dma.streams[13].func)
 8005d72:	4809      	ldr	r0, [pc, #36]	; (8005d98 <Vector150+0x28>)
  flags = (DMA2->HISR >> 6U) & STM32_DMA_ISR_MASK;
 8005d74:	6859      	ldr	r1, [r3, #4]
  if (dma.streams[13].func)
 8005d76:	6ec2      	ldr	r2, [r0, #108]	; 0x6c
  flags = (DMA2->HISR >> 6U) & STM32_DMA_ISR_MASK;
 8005d78:	0989      	lsrs	r1, r1, #6
 8005d7a:	f001 013d 	and.w	r1, r1, #61	; 0x3d
OSAL_IRQ_HANDLER(STM32_DMA2_CH5_HANDLER) {
 8005d7e:	b510      	push	{r4, lr}
  DMA2->HIFCR = flags << 6U;
 8005d80:	018c      	lsls	r4, r1, #6
 8005d82:	60dc      	str	r4, [r3, #12]
  if (dma.streams[13].func)
 8005d84:	b10a      	cbz	r2, 8005d8a <Vector150+0x1a>
    dma.streams[13].func(dma.streams[13].param, flags);
 8005d86:	6f00      	ldr	r0, [r0, #112]	; 0x70
 8005d88:	4790      	blx	r2
}
 8005d8a:	e8bd 4010 	ldmia.w	sp!, {r4, lr}
  OSAL_IRQ_EPILOGUE();
 8005d8e:	f7fd ba7f 	b.w	8003290 <_port_irq_epilogue>
 8005d92:	bf00      	nop
 8005d94:	40026400 	.word	0x40026400
 8005d98:	2000144c 	.word	0x2000144c
 8005d9c:	00000000 	.word	0x00000000

08005da0 <Vector130>:
OSAL_IRQ_HANDLER(STM32_DMA2_CH4_HANDLER) {
 8005da0:	b508      	push	{r3, lr}
  flags = (DMA2->HISR >> 0U) & STM32_DMA_ISR_MASK;
 8005da2:	4b07      	ldr	r3, [pc, #28]	; (8005dc0 <Vector130+0x20>)
  if (dma.streams[12].func)
 8005da4:	4807      	ldr	r0, [pc, #28]	; (8005dc4 <Vector130+0x24>)
  flags = (DMA2->HISR >> 0U) & STM32_DMA_ISR_MASK;
 8005da6:	6859      	ldr	r1, [r3, #4]
  if (dma.streams[12].func)
 8005da8:	6e42      	ldr	r2, [r0, #100]	; 0x64
  flags = (DMA2->HISR >> 0U) & STM32_DMA_ISR_MASK;
 8005daa:	f001 013d 	and.w	r1, r1, #61	; 0x3d
  DMA2->HIFCR = flags << 0U;
 8005dae:	60d9      	str	r1, [r3, #12]
  if (dma.streams[12].func)
 8005db0:	b10a      	cbz	r2, 8005db6 <Vector130+0x16>
    dma.streams[12].func(dma.streams[12].param, flags);
 8005db2:	6e80      	ldr	r0, [r0, #104]	; 0x68
 8005db4:	4790      	blx	r2
}
 8005db6:	e8bd 4008 	ldmia.w	sp!, {r3, lr}
  OSAL_IRQ_EPILOGUE();
 8005dba:	f7fd ba69 	b.w	8003290 <_port_irq_epilogue>
 8005dbe:	bf00      	nop
 8005dc0:	40026400 	.word	0x40026400
 8005dc4:	2000144c 	.word	0x2000144c
	...

08005dd0 <Vector12C>:
  flags = (DMA2->LISR >> 22U) & STM32_DMA_ISR_MASK;
 8005dd0:	4b08      	ldr	r3, [pc, #32]	; (8005df4 <Vector12C+0x24>)
  if (dma.streams[11].func)
 8005dd2:	4809      	ldr	r0, [pc, #36]	; (8005df8 <Vector12C+0x28>)
  flags = (DMA2->LISR >> 22U) & STM32_DMA_ISR_MASK;
 8005dd4:	6819      	ldr	r1, [r3, #0]
  if (dma.streams[11].func)
 8005dd6:	6dc2      	ldr	r2, [r0, #92]	; 0x5c
  flags = (DMA2->LISR >> 22U) & STM32_DMA_ISR_MASK;
 8005dd8:	0d89      	lsrs	r1, r1, #22
 8005dda:	f001 013d 	and.w	r1, r1, #61	; 0x3d
OSAL_IRQ_HANDLER(STM32_DMA2_CH3_HANDLER) {
 8005dde:	b510      	push	{r4, lr}
  DMA2->LIFCR = flags << 22U;
 8005de0:	058c      	lsls	r4, r1, #22
 8005de2:	609c      	str	r4, [r3, #8]
  if (dma.streams[11].func)
 8005de4:	b10a      	cbz	r2, 8005dea <Vector12C+0x1a>
    dma.streams[11].func(dma.streams[11].param, flags);
 8005de6:	6e00      	ldr	r0, [r0, #96]	; 0x60
 8005de8:	4790      	blx	r2
}
 8005dea:	e8bd 4010 	ldmia.w	sp!, {r4, lr}
  OSAL_IRQ_EPILOGUE();
 8005dee:	f7fd ba4f 	b.w	8003290 <_port_irq_epilogue>
 8005df2:	bf00      	nop
 8005df4:	40026400 	.word	0x40026400
 8005df8:	2000144c 	.word	0x2000144c
 8005dfc:	00000000 	.word	0x00000000

08005e00 <Vector128>:
  flags = (DMA2->LISR >> 16U) & STM32_DMA_ISR_MASK;
 8005e00:	4b08      	ldr	r3, [pc, #32]	; (8005e24 <Vector128+0x24>)
  if (dma.streams[10].func)
 8005e02:	4809      	ldr	r0, [pc, #36]	; (8005e28 <Vector128+0x28>)
  flags = (DMA2->LISR >> 16U) & STM32_DMA_ISR_MASK;
 8005e04:	6819      	ldr	r1, [r3, #0]
  if (dma.streams[10].func)
 8005e06:	6d42      	ldr	r2, [r0, #84]	; 0x54
  flags = (DMA2->LISR >> 16U) & STM32_DMA_ISR_MASK;
 8005e08:	0c09      	lsrs	r1, r1, #16
 8005e0a:	f001 013d 	and.w	r1, r1, #61	; 0x3d
OSAL_IRQ_HANDLER(STM32_DMA2_CH2_HANDLER) {
 8005e0e:	b510      	push	{r4, lr}
  DMA2->LIFCR = flags << 16U;
 8005e10:	040c      	lsls	r4, r1, #16
 8005e12:	609c      	str	r4, [r3, #8]
  if (dma.streams[10].func)
 8005e14:	b10a      	cbz	r2, 8005e1a <Vector128+0x1a>
    dma.streams[10].func(dma.streams[10].param, flags);
 8005e16:	6d80      	ldr	r0, [r0, #88]	; 0x58
 8005e18:	4790      	blx	r2
}
 8005e1a:	e8bd 4010 	ldmia.w	sp!, {r4, lr}
  OSAL_IRQ_EPILOGUE();
 8005e1e:	f7fd ba37 	b.w	8003290 <_port_irq_epilogue>
 8005e22:	bf00      	nop
 8005e24:	40026400 	.word	0x40026400
 8005e28:	2000144c 	.word	0x2000144c
 8005e2c:	00000000 	.word	0x00000000

08005e30 <Vector124>:
  flags = (DMA2->LISR >> 6U) & STM32_DMA_ISR_MASK;
 8005e30:	4b08      	ldr	r3, [pc, #32]	; (8005e54 <Vector124+0x24>)
  if (dma.streams[9].func)
 8005e32:	4809      	ldr	r0, [pc, #36]	; (8005e58 <Vector124+0x28>)
  flags = (DMA2->LISR >> 6U) & STM32_DMA_ISR_MASK;
 8005e34:	6819      	ldr	r1, [r3, #0]
  if (dma.streams[9].func)
 8005e36:	6cc2      	ldr	r2, [r0, #76]	; 0x4c
  flags = (DMA2->LISR >> 6U) & STM32_DMA_ISR_MASK;
 8005e38:	0989      	lsrs	r1, r1, #6
 8005e3a:	f001 013d 	and.w	r1, r1, #61	; 0x3d
OSAL_IRQ_HANDLER(STM32_DMA2_CH1_HANDLER) {
 8005e3e:	b510      	push	{r4, lr}
  DMA2->LIFCR = flags << 6U;
 8005e40:	018c      	lsls	r4, r1, #6
 8005e42:	609c      	str	r4, [r3, #8]
  if (dma.streams[9].func)
 8005e44:	b10a      	cbz	r2, 8005e4a <Vector124+0x1a>
    dma.streams[9].func(dma.streams[9].param, flags);
 8005e46:	6d00      	ldr	r0, [r0, #80]	; 0x50
 8005e48:	4790      	blx	r2
}
 8005e4a:	e8bd 4010 	ldmia.w	sp!, {r4, lr}
  OSAL_IRQ_EPILOGUE();
 8005e4e:	f7fd ba1f 	b.w	8003290 <_port_irq_epilogue>
 8005e52:	bf00      	nop
 8005e54:	40026400 	.word	0x40026400
 8005e58:	2000144c 	.word	0x2000144c
 8005e5c:	00000000 	.word	0x00000000

08005e60 <Vector120>:
OSAL_IRQ_HANDLER(STM32_DMA2_CH0_HANDLER) {
 8005e60:	b508      	push	{r3, lr}
  flags = (DMA2->LISR >> 0U) & STM32_DMA_ISR_MASK;
 8005e62:	4b07      	ldr	r3, [pc, #28]	; (8005e80 <Vector120+0x20>)
  if (dma.streams[8].func)
 8005e64:	4807      	ldr	r0, [pc, #28]	; (8005e84 <Vector120+0x24>)
  flags = (DMA2->LISR >> 0U) & STM32_DMA_ISR_MASK;
 8005e66:	6819      	ldr	r1, [r3, #0]
  if (dma.streams[8].func)
 8005e68:	6c42      	ldr	r2, [r0, #68]	; 0x44
  flags = (DMA2->LISR >> 0U) & STM32_DMA_ISR_MASK;
 8005e6a:	f001 013d 	and.w	r1, r1, #61	; 0x3d
  DMA2->LIFCR = flags << 0U;
 8005e6e:	6099      	str	r1, [r3, #8]
  if (dma.streams[8].func)
 8005e70:	b10a      	cbz	r2, 8005e76 <Vector120+0x16>
    dma.streams[8].func(dma.streams[8].param, flags);
 8005e72:	6c80      	ldr	r0, [r0, #72]	; 0x48
 8005e74:	4790      	blx	r2
}
 8005e76:	e8bd 4008 	ldmia.w	sp!, {r3, lr}
  OSAL_IRQ_EPILOGUE();
 8005e7a:	f7fd ba09 	b.w	8003290 <_port_irq_epilogue>
 8005e7e:	bf00      	nop
 8005e80:	40026400 	.word	0x40026400
 8005e84:	2000144c 	.word	0x2000144c
	...

08005e90 <VectorFC>:
  flags = (DMA1->HISR >> 22U) & STM32_DMA_ISR_MASK;
 8005e90:	4b08      	ldr	r3, [pc, #32]	; (8005eb4 <VectorFC+0x24>)
  if (dma.streams[7].func)
 8005e92:	4809      	ldr	r0, [pc, #36]	; (8005eb8 <VectorFC+0x28>)
  flags = (DMA1->HISR >> 22U) & STM32_DMA_ISR_MASK;
 8005e94:	6859      	ldr	r1, [r3, #4]
  if (dma.streams[7].func)
 8005e96:	6bc2      	ldr	r2, [r0, #60]	; 0x3c
  flags = (DMA1->HISR >> 22U) & STM32_DMA_ISR_MASK;
 8005e98:	0d89      	lsrs	r1, r1, #22
 8005e9a:	f001 013d 	and.w	r1, r1, #61	; 0x3d
OSAL_IRQ_HANDLER(STM32_DMA1_CH7_HANDLER) {
 8005e9e:	b510      	push	{r4, lr}
  DMA1->HIFCR = flags << 22U;
 8005ea0:	058c      	lsls	r4, r1, #22
 8005ea2:	60dc      	str	r4, [r3, #12]
  if (dma.streams[7].func)
 8005ea4:	b10a      	cbz	r2, 8005eaa <VectorFC+0x1a>
    dma.streams[7].func(dma.streams[7].param, flags);
 8005ea6:	6c00      	ldr	r0, [r0, #64]	; 0x40
 8005ea8:	4790      	blx	r2
}
 8005eaa:	e8bd 4010 	ldmia.w	sp!, {r4, lr}
  OSAL_IRQ_EPILOGUE();
 8005eae:	f7fd b9ef 	b.w	8003290 <_port_irq_epilogue>
 8005eb2:	bf00      	nop
 8005eb4:	40026000 	.word	0x40026000
 8005eb8:	2000144c 	.word	0x2000144c
 8005ebc:	00000000 	.word	0x00000000

08005ec0 <Vector84>:
  flags = (DMA1->HISR >> 16U) & STM32_DMA_ISR_MASK;
 8005ec0:	4b08      	ldr	r3, [pc, #32]	; (8005ee4 <Vector84+0x24>)
  if (dma.streams[6].func)
 8005ec2:	4809      	ldr	r0, [pc, #36]	; (8005ee8 <Vector84+0x28>)
  flags = (DMA1->HISR >> 16U) & STM32_DMA_ISR_MASK;
 8005ec4:	6859      	ldr	r1, [r3, #4]
  if (dma.streams[6].func)
 8005ec6:	6b42      	ldr	r2, [r0, #52]	; 0x34
  flags = (DMA1->HISR >> 16U) & STM32_DMA_ISR_MASK;
 8005ec8:	0c09      	lsrs	r1, r1, #16
 8005eca:	f001 013d 	and.w	r1, r1, #61	; 0x3d
OSAL_IRQ_HANDLER(STM32_DMA1_CH6_HANDLER) {
 8005ece:	b510      	push	{r4, lr}
  DMA1->HIFCR = flags << 16U;
 8005ed0:	040c      	lsls	r4, r1, #16
 8005ed2:	60dc      	str	r4, [r3, #12]
  if (dma.streams[6].func)
 8005ed4:	b10a      	cbz	r2, 8005eda <Vector84+0x1a>
    dma.streams[6].func(dma.streams[6].param, flags);
 8005ed6:	6b80      	ldr	r0, [r0, #56]	; 0x38
 8005ed8:	4790      	blx	r2
}
 8005eda:	e8bd 4010 	ldmia.w	sp!, {r4, lr}
  OSAL_IRQ_EPILOGUE();
 8005ede:	f7fd b9d7 	b.w	8003290 <_port_irq_epilogue>
 8005ee2:	bf00      	nop
 8005ee4:	40026000 	.word	0x40026000
 8005ee8:	2000144c 	.word	0x2000144c
 8005eec:	00000000 	.word	0x00000000

08005ef0 <Vector80>:
  flags = (DMA1->HISR >> 6U) & STM32_DMA_ISR_MASK;
 8005ef0:	4b08      	ldr	r3, [pc, #32]	; (8005f14 <Vector80+0x24>)
  if (dma.streams[5].func)
 8005ef2:	4809      	ldr	r0, [pc, #36]	; (8005f18 <Vector80+0x28>)
  flags = (DMA1->HISR >> 6U) & STM32_DMA_ISR_MASK;
 8005ef4:	6859      	ldr	r1, [r3, #4]
  if (dma.streams[5].func)
 8005ef6:	6ac2      	ldr	r2, [r0, #44]	; 0x2c
  flags = (DMA1->HISR >> 6U) & STM32_DMA_ISR_MASK;
 8005ef8:	0989      	lsrs	r1, r1, #6
 8005efa:	f001 013d 	and.w	r1, r1, #61	; 0x3d
OSAL_IRQ_HANDLER(STM32_DMA1_CH5_HANDLER) {
 8005efe:	b510      	push	{r4, lr}
  DMA1->HIFCR = flags << 6U;
 8005f00:	018c      	lsls	r4, r1, #6
 8005f02:	60dc      	str	r4, [r3, #12]
  if (dma.streams[5].func)
 8005f04:	b10a      	cbz	r2, 8005f0a <Vector80+0x1a>
    dma.streams[5].func(dma.streams[5].param, flags);
 8005f06:	6b00      	ldr	r0, [r0, #48]	; 0x30
 8005f08:	4790      	blx	r2
}
 8005f0a:	e8bd 4010 	ldmia.w	sp!, {r4, lr}
  OSAL_IRQ_EPILOGUE();
 8005f0e:	f7fd b9bf 	b.w	8003290 <_port_irq_epilogue>
 8005f12:	bf00      	nop
 8005f14:	40026000 	.word	0x40026000
 8005f18:	2000144c 	.word	0x2000144c
 8005f1c:	00000000 	.word	0x00000000

08005f20 <Vector7C>:
OSAL_IRQ_HANDLER(STM32_DMA1_CH4_HANDLER) {
 8005f20:	b508      	push	{r3, lr}
  flags = (DMA1->HISR >> 0U) & STM32_DMA_ISR_MASK;
 8005f22:	4b07      	ldr	r3, [pc, #28]	; (8005f40 <Vector7C+0x20>)
  if (dma.streams[4].func)
 8005f24:	4807      	ldr	r0, [pc, #28]	; (8005f44 <Vector7C+0x24>)
  flags = (DMA1->HISR >> 0U) & STM32_DMA_ISR_MASK;
 8005f26:	6859      	ldr	r1, [r3, #4]
  if (dma.streams[4].func)
 8005f28:	6a42      	ldr	r2, [r0, #36]	; 0x24
  flags = (DMA1->HISR >> 0U) & STM32_DMA_ISR_MASK;
 8005f2a:	f001 013d 	and.w	r1, r1, #61	; 0x3d
  DMA1->HIFCR = flags << 0U;
 8005f2e:	60d9      	str	r1, [r3, #12]
  if (dma.streams[4].func)
 8005f30:	b10a      	cbz	r2, 8005f36 <Vector7C+0x16>
    dma.streams[4].func(dma.streams[4].param, flags);
 8005f32:	6a80      	ldr	r0, [r0, #40]	; 0x28
 8005f34:	4790      	blx	r2
}
 8005f36:	e8bd 4008 	ldmia.w	sp!, {r3, lr}
  OSAL_IRQ_EPILOGUE();
 8005f3a:	f7fd b9a9 	b.w	8003290 <_port_irq_epilogue>
 8005f3e:	bf00      	nop
 8005f40:	40026000 	.word	0x40026000
 8005f44:	2000144c 	.word	0x2000144c
	...

08005f50 <Vector78>:
  flags = (DMA1->LISR >> 22U) & STM32_DMA_ISR_MASK;
 8005f50:	4b08      	ldr	r3, [pc, #32]	; (8005f74 <Vector78+0x24>)
  if (dma.streams[3].func)
 8005f52:	4809      	ldr	r0, [pc, #36]	; (8005f78 <Vector78+0x28>)
  flags = (DMA1->LISR >> 22U) & STM32_DMA_ISR_MASK;
 8005f54:	6819      	ldr	r1, [r3, #0]
  if (dma.streams[3].func)
 8005f56:	69c2      	ldr	r2, [r0, #28]
  flags = (DMA1->LISR >> 22U) & STM32_DMA_ISR_MASK;
 8005f58:	0d89      	lsrs	r1, r1, #22
 8005f5a:	f001 013d 	and.w	r1, r1, #61	; 0x3d
OSAL_IRQ_HANDLER(STM32_DMA1_CH3_HANDLER) {
 8005f5e:	b510      	push	{r4, lr}
  DMA1->LIFCR = flags << 22U;
 8005f60:	058c      	lsls	r4, r1, #22
 8005f62:	609c      	str	r4, [r3, #8]
  if (dma.streams[3].func)
 8005f64:	b10a      	cbz	r2, 8005f6a <Vector78+0x1a>
    dma.streams[3].func(dma.streams[3].param, flags);
 8005f66:	6a00      	ldr	r0, [r0, #32]
 8005f68:	4790      	blx	r2
}
 8005f6a:	e8bd 4010 	ldmia.w	sp!, {r4, lr}
  OSAL_IRQ_EPILOGUE();
 8005f6e:	f7fd b98f 	b.w	8003290 <_port_irq_epilogue>
 8005f72:	bf00      	nop
 8005f74:	40026000 	.word	0x40026000
 8005f78:	2000144c 	.word	0x2000144c
 8005f7c:	00000000 	.word	0x00000000

08005f80 <Vector74>:
  flags = (DMA1->LISR >> 16U) & STM32_DMA_ISR_MASK;
 8005f80:	4b08      	ldr	r3, [pc, #32]	; (8005fa4 <Vector74+0x24>)
  if (dma.streams[2].func)
 8005f82:	4809      	ldr	r0, [pc, #36]	; (8005fa8 <Vector74+0x28>)
  flags = (DMA1->LISR >> 16U) & STM32_DMA_ISR_MASK;
 8005f84:	6819      	ldr	r1, [r3, #0]
  if (dma.streams[2].func)
 8005f86:	6942      	ldr	r2, [r0, #20]
  flags = (DMA1->LISR >> 16U) & STM32_DMA_ISR_MASK;
 8005f88:	0c09      	lsrs	r1, r1, #16
 8005f8a:	f001 013d 	and.w	r1, r1, #61	; 0x3d
OSAL_IRQ_HANDLER(STM32_DMA1_CH2_HANDLER) {
 8005f8e:	b510      	push	{r4, lr}
  DMA1->LIFCR = flags << 16U;
 8005f90:	040c      	lsls	r4, r1, #16
 8005f92:	609c      	str	r4, [r3, #8]
  if (dma.streams[2].func)
 8005f94:	b10a      	cbz	r2, 8005f9a <Vector74+0x1a>
    dma.streams[2].func(dma.streams[2].param, flags);
 8005f96:	6980      	ldr	r0, [r0, #24]
 8005f98:	4790      	blx	r2
}
 8005f9a:	e8bd 4010 	ldmia.w	sp!, {r4, lr}
  OSAL_IRQ_EPILOGUE();
 8005f9e:	f7fd b977 	b.w	8003290 <_port_irq_epilogue>
 8005fa2:	bf00      	nop
 8005fa4:	40026000 	.word	0x40026000
 8005fa8:	2000144c 	.word	0x2000144c
 8005fac:	00000000 	.word	0x00000000

08005fb0 <Vector70>:
  flags = (DMA1->LISR >> 6U) & STM32_DMA_ISR_MASK;
 8005fb0:	4b08      	ldr	r3, [pc, #32]	; (8005fd4 <Vector70+0x24>)
  if (dma.streams[1].func)
 8005fb2:	4809      	ldr	r0, [pc, #36]	; (8005fd8 <Vector70+0x28>)
  flags = (DMA1->LISR >> 6U) & STM32_DMA_ISR_MASK;
 8005fb4:	6819      	ldr	r1, [r3, #0]
  if (dma.streams[1].func)
 8005fb6:	68c2      	ldr	r2, [r0, #12]
  flags = (DMA1->LISR >> 6U) & STM32_DMA_ISR_MASK;
 8005fb8:	0989      	lsrs	r1, r1, #6
 8005fba:	f001 013d 	and.w	r1, r1, #61	; 0x3d
OSAL_IRQ_HANDLER(STM32_DMA1_CH1_HANDLER) {
 8005fbe:	b510      	push	{r4, lr}
  DMA1->LIFCR = flags << 6U;
 8005fc0:	018c      	lsls	r4, r1, #6
 8005fc2:	609c      	str	r4, [r3, #8]
  if (dma.streams[1].func)
 8005fc4:	b10a      	cbz	r2, 8005fca <Vector70+0x1a>
    dma.streams[1].func(dma.streams[1].param, flags);
 8005fc6:	6900      	ldr	r0, [r0, #16]
 8005fc8:	4790      	blx	r2
}
 8005fca:	e8bd 4010 	ldmia.w	sp!, {r4, lr}
  OSAL_IRQ_EPILOGUE();
 8005fce:	f7fd b95f 	b.w	8003290 <_port_irq_epilogue>
 8005fd2:	bf00      	nop
 8005fd4:	40026000 	.word	0x40026000
 8005fd8:	2000144c 	.word	0x2000144c
 8005fdc:	00000000 	.word	0x00000000

08005fe0 <Vector6C>:
OSAL_IRQ_HANDLER(STM32_DMA1_CH0_HANDLER) {
 8005fe0:	b508      	push	{r3, lr}
  flags = (DMA1->LISR >> 0U) & STM32_DMA_ISR_MASK;
 8005fe2:	4b07      	ldr	r3, [pc, #28]	; (8006000 <Vector6C+0x20>)
  if (dma.streams[0].func)
 8005fe4:	4807      	ldr	r0, [pc, #28]	; (8006004 <Vector6C+0x24>)
  flags = (DMA1->LISR >> 0U) & STM32_DMA_ISR_MASK;
 8005fe6:	6819      	ldr	r1, [r3, #0]
  if (dma.streams[0].func)
 8005fe8:	6842      	ldr	r2, [r0, #4]
  flags = (DMA1->LISR >> 0U) & STM32_DMA_ISR_MASK;
 8005fea:	f001 013d 	and.w	r1, r1, #61	; 0x3d
  DMA1->LIFCR = flags << 0U;
 8005fee:	6099      	str	r1, [r3, #8]
  if (dma.streams[0].func)
 8005ff0:	b10a      	cbz	r2, 8005ff6 <Vector6C+0x16>
    dma.streams[0].func(dma.streams[0].param, flags);
 8005ff2:	6880      	ldr	r0, [r0, #8]
 8005ff4:	4790      	blx	r2
}
 8005ff6:	e8bd 4008 	ldmia.w	sp!, {r3, lr}
  OSAL_IRQ_EPILOGUE();
 8005ffa:	f7fd b949 	b.w	8003290 <_port_irq_epilogue>
 8005ffe:	bf00      	nop
 8006000:	40026000 	.word	0x40026000
 8006004:	2000144c 	.word	0x2000144c
	...

08006010 <VectorE0>:
OSAL_IRQ_HANDLER(VectorE0) {
  uint32_t pr;

  OSAL_IRQ_PROLOGUE();

  pr = EXTI->PR;
 8006010:	4b1a      	ldr	r3, [pc, #104]	; (800607c <VectorE0+0x6c>)
OSAL_IRQ_HANDLER(VectorE0) {
 8006012:	b510      	push	{r4, lr}
  pr = EXTI->PR;
 8006014:	695a      	ldr	r2, [r3, #20]
  pr &= EXTI->IMR & ((1U << 10) | (1U << 11) | (1U << 12) | (1U << 13) |
 8006016:	681c      	ldr	r4, [r3, #0]
 8006018:	4014      	ands	r4, r2
 800601a:	f404 427c 	and.w	r2, r4, #64512	; 0xfc00
                     (1U << 14) | (1U << 15));
  EXTI->PR = pr;
 800601e:	615a      	str	r2, [r3, #20]

  exti_serve_irq(pr, 10);
 8006020:	0562      	lsls	r2, r4, #21
 8006022:	d504      	bpl.n	800602e <VectorE0+0x1e>
 8006024:	4a16      	ldr	r2, [pc, #88]	; (8006080 <VectorE0+0x70>)
 8006026:	6d13      	ldr	r3, [r2, #80]	; 0x50
 8006028:	b10b      	cbz	r3, 800602e <VectorE0+0x1e>
 800602a:	6d50      	ldr	r0, [r2, #84]	; 0x54
 800602c:	4798      	blx	r3
  exti_serve_irq(pr, 11);
 800602e:	0523      	lsls	r3, r4, #20
 8006030:	d504      	bpl.n	800603c <VectorE0+0x2c>
 8006032:	4a13      	ldr	r2, [pc, #76]	; (8006080 <VectorE0+0x70>)
 8006034:	6d93      	ldr	r3, [r2, #88]	; 0x58
 8006036:	b10b      	cbz	r3, 800603c <VectorE0+0x2c>
 8006038:	6dd0      	ldr	r0, [r2, #92]	; 0x5c
 800603a:	4798      	blx	r3
  exti_serve_irq(pr, 12);
 800603c:	04e0      	lsls	r0, r4, #19
 800603e:	d504      	bpl.n	800604a <VectorE0+0x3a>
 8006040:	4a0f      	ldr	r2, [pc, #60]	; (8006080 <VectorE0+0x70>)
 8006042:	6e13      	ldr	r3, [r2, #96]	; 0x60
 8006044:	b10b      	cbz	r3, 800604a <VectorE0+0x3a>
 8006046:	6e50      	ldr	r0, [r2, #100]	; 0x64
 8006048:	4798      	blx	r3
  exti_serve_irq(pr, 13);
 800604a:	04a1      	lsls	r1, r4, #18
 800604c:	d504      	bpl.n	8006058 <VectorE0+0x48>
 800604e:	4a0c      	ldr	r2, [pc, #48]	; (8006080 <VectorE0+0x70>)
 8006050:	6e93      	ldr	r3, [r2, #104]	; 0x68
 8006052:	b10b      	cbz	r3, 8006058 <VectorE0+0x48>
 8006054:	6ed0      	ldr	r0, [r2, #108]	; 0x6c
 8006056:	4798      	blx	r3
  exti_serve_irq(pr, 14);
 8006058:	0462      	lsls	r2, r4, #17
 800605a:	d504      	bpl.n	8006066 <VectorE0+0x56>
 800605c:	4a08      	ldr	r2, [pc, #32]	; (8006080 <VectorE0+0x70>)
 800605e:	6f13      	ldr	r3, [r2, #112]	; 0x70
 8006060:	b10b      	cbz	r3, 8006066 <VectorE0+0x56>
 8006062:	6f50      	ldr	r0, [r2, #116]	; 0x74
 8006064:	4798      	blx	r3
  exti_serve_irq(pr, 15);
 8006066:	0423      	lsls	r3, r4, #16
 8006068:	d504      	bpl.n	8006074 <VectorE0+0x64>
 800606a:	4a05      	ldr	r2, [pc, #20]	; (8006080 <VectorE0+0x70>)
 800606c:	6f93      	ldr	r3, [r2, #120]	; 0x78
 800606e:	b10b      	cbz	r3, 8006074 <VectorE0+0x64>
 8006070:	6fd0      	ldr	r0, [r2, #124]	; 0x7c
 8006072:	4798      	blx	r3

  OSAL_IRQ_EPILOGUE();
}
 8006074:	e8bd 4010 	ldmia.w	sp!, {r4, lr}
  OSAL_IRQ_EPILOGUE();
 8006078:	f7fd b90a 	b.w	8003290 <_port_irq_epilogue>
 800607c:	40013c00 	.word	0x40013c00
 8006080:	2000120c 	.word	0x2000120c
	...

08006090 <Vector9C>:
  pr = EXTI->PR;
 8006090:	4b17      	ldr	r3, [pc, #92]	; (80060f0 <Vector9C+0x60>)
OSAL_IRQ_HANDLER(Vector9C) {
 8006092:	b510      	push	{r4, lr}
  pr = EXTI->PR;
 8006094:	695a      	ldr	r2, [r3, #20]
  pr &= EXTI->IMR & ((1U << 5) | (1U << 6) | (1U << 7) | (1U << 8) |
 8006096:	681c      	ldr	r4, [r3, #0]
 8006098:	4014      	ands	r4, r2
 800609a:	f404 7278 	and.w	r2, r4, #992	; 0x3e0
  EXTI->PR = pr;
 800609e:	615a      	str	r2, [r3, #20]
  exti_serve_irq(pr, 5);
 80060a0:	06a3      	lsls	r3, r4, #26
 80060a2:	d504      	bpl.n	80060ae <Vector9C+0x1e>
 80060a4:	4a13      	ldr	r2, [pc, #76]	; (80060f4 <Vector9C+0x64>)
 80060a6:	6a93      	ldr	r3, [r2, #40]	; 0x28
 80060a8:	b10b      	cbz	r3, 80060ae <Vector9C+0x1e>
 80060aa:	6ad0      	ldr	r0, [r2, #44]	; 0x2c
 80060ac:	4798      	blx	r3
  exti_serve_irq(pr, 6);
 80060ae:	0660      	lsls	r0, r4, #25
 80060b0:	d504      	bpl.n	80060bc <Vector9C+0x2c>
 80060b2:	4a10      	ldr	r2, [pc, #64]	; (80060f4 <Vector9C+0x64>)
 80060b4:	6b13      	ldr	r3, [r2, #48]	; 0x30
 80060b6:	b10b      	cbz	r3, 80060bc <Vector9C+0x2c>
 80060b8:	6b50      	ldr	r0, [r2, #52]	; 0x34
 80060ba:	4798      	blx	r3
  exti_serve_irq(pr, 7);
 80060bc:	0621      	lsls	r1, r4, #24
 80060be:	d504      	bpl.n	80060ca <Vector9C+0x3a>
 80060c0:	4a0c      	ldr	r2, [pc, #48]	; (80060f4 <Vector9C+0x64>)
 80060c2:	6b93      	ldr	r3, [r2, #56]	; 0x38
 80060c4:	b10b      	cbz	r3, 80060ca <Vector9C+0x3a>
 80060c6:	6bd0      	ldr	r0, [r2, #60]	; 0x3c
 80060c8:	4798      	blx	r3
  exti_serve_irq(pr, 8);
 80060ca:	05e2      	lsls	r2, r4, #23
 80060cc:	d504      	bpl.n	80060d8 <Vector9C+0x48>
 80060ce:	4a09      	ldr	r2, [pc, #36]	; (80060f4 <Vector9C+0x64>)
 80060d0:	6c13      	ldr	r3, [r2, #64]	; 0x40
 80060d2:	b10b      	cbz	r3, 80060d8 <Vector9C+0x48>
 80060d4:	6c50      	ldr	r0, [r2, #68]	; 0x44
 80060d6:	4798      	blx	r3
  exti_serve_irq(pr, 9);
 80060d8:	05a3      	lsls	r3, r4, #22
 80060da:	d504      	bpl.n	80060e6 <Vector9C+0x56>
 80060dc:	4a05      	ldr	r2, [pc, #20]	; (80060f4 <Vector9C+0x64>)
 80060de:	6c93      	ldr	r3, [r2, #72]	; 0x48
 80060e0:	b10b      	cbz	r3, 80060e6 <Vector9C+0x56>
 80060e2:	6cd0      	ldr	r0, [r2, #76]	; 0x4c
 80060e4:	4798      	blx	r3
}
 80060e6:	e8bd 4010 	ldmia.w	sp!, {r4, lr}
  OSAL_IRQ_EPILOGUE();
 80060ea:	f7fd b8d1 	b.w	8003290 <_port_irq_epilogue>
 80060ee:	bf00      	nop
 80060f0:	40013c00 	.word	0x40013c00
 80060f4:	2000120c 	.word	0x2000120c
	...

08006100 <Vector68>:
  pr = EXTI->PR;
 8006100:	4a08      	ldr	r2, [pc, #32]	; (8006124 <Vector68+0x24>)
OSAL_IRQ_HANDLER(Vector68) {
 8006102:	b508      	push	{r3, lr}
  pr = EXTI->PR;
 8006104:	6951      	ldr	r1, [r2, #20]
  pr &= EXTI->IMR & (1U << 4);
 8006106:	6813      	ldr	r3, [r2, #0]
 8006108:	400b      	ands	r3, r1
 800610a:	f003 0310 	and.w	r3, r3, #16
  EXTI->PR = pr;
 800610e:	6153      	str	r3, [r2, #20]
  exti_serve_irq(pr, 4);
 8006110:	b123      	cbz	r3, 800611c <Vector68+0x1c>
 8006112:	4a05      	ldr	r2, [pc, #20]	; (8006128 <Vector68+0x28>)
 8006114:	6a13      	ldr	r3, [r2, #32]
 8006116:	b10b      	cbz	r3, 800611c <Vector68+0x1c>
 8006118:	6a50      	ldr	r0, [r2, #36]	; 0x24
 800611a:	4798      	blx	r3
}
 800611c:	e8bd 4008 	ldmia.w	sp!, {r3, lr}
  OSAL_IRQ_EPILOGUE();
 8006120:	f7fd b8b6 	b.w	8003290 <_port_irq_epilogue>
 8006124:	40013c00 	.word	0x40013c00
 8006128:	2000120c 	.word	0x2000120c
 800612c:	00000000 	.word	0x00000000

08006130 <Vector64>:
  pr = EXTI->PR;
 8006130:	4a08      	ldr	r2, [pc, #32]	; (8006154 <Vector64+0x24>)
OSAL_IRQ_HANDLER(Vector64) {
 8006132:	b508      	push	{r3, lr}
  pr = EXTI->PR;
 8006134:	6951      	ldr	r1, [r2, #20]
  pr &= EXTI->IMR & (1U << 3);
 8006136:	6813      	ldr	r3, [r2, #0]
 8006138:	400b      	ands	r3, r1
 800613a:	f003 0308 	and.w	r3, r3, #8
  EXTI->PR = pr;
 800613e:	6153      	str	r3, [r2, #20]
  exti_serve_irq(pr, 3);
 8006140:	b123      	cbz	r3, 800614c <Vector64+0x1c>
 8006142:	4a05      	ldr	r2, [pc, #20]	; (8006158 <Vector64+0x28>)
 8006144:	6993      	ldr	r3, [r2, #24]
 8006146:	b10b      	cbz	r3, 800614c <Vector64+0x1c>
 8006148:	69d0      	ldr	r0, [r2, #28]
 800614a:	4798      	blx	r3
}
 800614c:	e8bd 4008 	ldmia.w	sp!, {r3, lr}
  OSAL_IRQ_EPILOGUE();
 8006150:	f7fd b89e 	b.w	8003290 <_port_irq_epilogue>
 8006154:	40013c00 	.word	0x40013c00
 8006158:	2000120c 	.word	0x2000120c
 800615c:	00000000 	.word	0x00000000

08006160 <Vector60>:
  pr = EXTI->PR;
 8006160:	4a08      	ldr	r2, [pc, #32]	; (8006184 <Vector60+0x24>)
OSAL_IRQ_HANDLER(Vector60) {
 8006162:	b508      	push	{r3, lr}
  pr = EXTI->PR;
 8006164:	6951      	ldr	r1, [r2, #20]
  pr &= EXTI->IMR & (1U << 2);
 8006166:	6813      	ldr	r3, [r2, #0]
 8006168:	400b      	ands	r3, r1
 800616a:	f003 0304 	and.w	r3, r3, #4
  EXTI->PR = pr;
 800616e:	6153      	str	r3, [r2, #20]
  exti_serve_irq(pr, 2);
 8006170:	b123      	cbz	r3, 800617c <Vector60+0x1c>
 8006172:	4a05      	ldr	r2, [pc, #20]	; (8006188 <Vector60+0x28>)
 8006174:	6913      	ldr	r3, [r2, #16]
 8006176:	b10b      	cbz	r3, 800617c <Vector60+0x1c>
 8006178:	6950      	ldr	r0, [r2, #20]
 800617a:	4798      	blx	r3
}
 800617c:	e8bd 4008 	ldmia.w	sp!, {r3, lr}
  OSAL_IRQ_EPILOGUE();
 8006180:	f7fd b886 	b.w	8003290 <_port_irq_epilogue>
 8006184:	40013c00 	.word	0x40013c00
 8006188:	2000120c 	.word	0x2000120c
 800618c:	00000000 	.word	0x00000000

08006190 <Vector5C>:
  pr = EXTI->PR;
 8006190:	4a08      	ldr	r2, [pc, #32]	; (80061b4 <Vector5C+0x24>)
OSAL_IRQ_HANDLER(Vector5C) {
 8006192:	b508      	push	{r3, lr}
  pr = EXTI->PR;
 8006194:	6951      	ldr	r1, [r2, #20]
  pr &= EXTI->IMR & (1U << 1);
 8006196:	6813      	ldr	r3, [r2, #0]
 8006198:	400b      	ands	r3, r1
 800619a:	f003 0302 	and.w	r3, r3, #2
  EXTI->PR = pr;
 800619e:	6153      	str	r3, [r2, #20]
  exti_serve_irq(pr, 1);
 80061a0:	b123      	cbz	r3, 80061ac <Vector5C+0x1c>
 80061a2:	4a05      	ldr	r2, [pc, #20]	; (80061b8 <Vector5C+0x28>)
 80061a4:	6893      	ldr	r3, [r2, #8]
 80061a6:	b10b      	cbz	r3, 80061ac <Vector5C+0x1c>
 80061a8:	68d0      	ldr	r0, [r2, #12]
 80061aa:	4798      	blx	r3
}
 80061ac:	e8bd 4008 	ldmia.w	sp!, {r3, lr}
  OSAL_IRQ_EPILOGUE();
 80061b0:	f7fd b86e 	b.w	8003290 <_port_irq_epilogue>
 80061b4:	40013c00 	.word	0x40013c00
 80061b8:	2000120c 	.word	0x2000120c
 80061bc:	00000000 	.word	0x00000000

080061c0 <Vector58>:
  pr = EXTI->PR;
 80061c0:	4a08      	ldr	r2, [pc, #32]	; (80061e4 <Vector58+0x24>)
OSAL_IRQ_HANDLER(Vector58) {
 80061c2:	b508      	push	{r3, lr}
  pr = EXTI->PR;
 80061c4:	6951      	ldr	r1, [r2, #20]
  pr &= EXTI->IMR & (1U << 0);
 80061c6:	6813      	ldr	r3, [r2, #0]
 80061c8:	400b      	ands	r3, r1
 80061ca:	f003 0301 	and.w	r3, r3, #1
  EXTI->PR = pr;
 80061ce:	6153      	str	r3, [r2, #20]
  exti_serve_irq(pr, 0);
 80061d0:	b123      	cbz	r3, 80061dc <Vector58+0x1c>
 80061d2:	4a05      	ldr	r2, [pc, #20]	; (80061e8 <Vector58+0x28>)
 80061d4:	6813      	ldr	r3, [r2, #0]
 80061d6:	b10b      	cbz	r3, 80061dc <Vector58+0x1c>
 80061d8:	6850      	ldr	r0, [r2, #4]
 80061da:	4798      	blx	r3
}
 80061dc:	e8bd 4008 	ldmia.w	sp!, {r3, lr}
  OSAL_IRQ_EPILOGUE();
 80061e0:	f7fd b856 	b.w	8003290 <_port_irq_epilogue>
 80061e4:	40013c00 	.word	0x40013c00
 80061e8:	2000120c 	.word	0x2000120c
 80061ec:	00000000 	.word	0x00000000

080061f0 <__init_ram_areas>:
}

/**
 * @brief   Performs the initialization of the various RAM areas.
 */
void __init_ram_areas(void) {
 80061f0:	b4f0      	push	{r4, r5, r6, r7}
 80061f2:	4f14      	ldr	r7, [pc, #80]	; (8006244 <__init_ram_areas+0x54>)
 80061f4:	4d14      	ldr	r5, [pc, #80]	; (8006248 <__init_ram_areas+0x58>)
 80061f6:	4815      	ldr	r0, [pc, #84]	; (800624c <__init_ram_areas+0x5c>)
 80061f8:	4b15      	ldr	r3, [pc, #84]	; (8006250 <__init_ram_areas+0x60>)
 80061fa:	4916      	ldr	r1, [pc, #88]	; (8006254 <__init_ram_areas+0x64>)
 80061fc:	f107 0c70 	add.w	ip, r7, #112	; 0x70
      tp++;
    }

    /* Zeroing clear area.*/
    while (p < rap->no_init_area) {
      *p = 0;
 8006200:	2600      	movs	r6, #0
    while (p < rap->clear_area) {
 8006202:	4298      	cmp	r0, r3
 8006204:	d911      	bls.n	800622a <__init_ram_areas+0x3a>
 8006206:	3904      	subs	r1, #4
 8006208:	461a      	mov	r2, r3
      *p = *tp;
 800620a:	f851 4f04 	ldr.w	r4, [r1, #4]!
 800620e:	f842 4b04 	str.w	r4, [r2], #4
    while (p < rap->clear_area) {
 8006212:	4290      	cmp	r0, r2
 8006214:	d8f9      	bhi.n	800620a <__init_ram_areas+0x1a>
 8006216:	1e42      	subs	r2, r0, #1
 8006218:	1ad2      	subs	r2, r2, r3
 800621a:	f022 0203 	bic.w	r2, r2, #3
 800621e:	3204      	adds	r2, #4
 8006220:	4413      	add	r3, r2
    while (p < rap->no_init_area) {
 8006222:	429d      	cmp	r5, r3
 8006224:	d903      	bls.n	800622e <__init_ram_areas+0x3e>
      *p = 0;
 8006226:	f843 6b04 	str.w	r6, [r3], #4
    while (p < rap->no_init_area) {
 800622a:	429d      	cmp	r5, r3
 800622c:	d8fb      	bhi.n	8006226 <__init_ram_areas+0x36>
      p++;
    }
    rap++;
  }
  while (rap < &ram_areas[CRT1_AREAS_NUMBER]);
 800622e:	4567      	cmp	r7, ip
 8006230:	d005      	beq.n	800623e <__init_ram_areas+0x4e>
 8006232:	e9d7 1304 	ldrd	r1, r3, [r7, #16]
 8006236:	e9d7 0506 	ldrd	r0, r5, [r7, #24]
 800623a:	3710      	adds	r7, #16
 800623c:	e7e1      	b.n	8006202 <__init_ram_areas+0x12>
#endif
}
 800623e:	bcf0      	pop	{r4, r5, r6, r7}
 8006240:	4770      	bx	lr
 8006242:	bf00      	nop
 8006244:	080067d8 	.word	0x080067d8
 8006248:	200014dc 	.word	0x200014dc
 800624c:	200014dc 	.word	0x200014dc
 8006250:	200014dc 	.word	0x200014dc
 8006254:	080072c8 	.word	0x080072c8
	...

08006260 <__default_exit>:
  while (true) {
 8006260:	e7fe      	b.n	8006260 <__default_exit>
 8006262:	bf00      	nop
	...

08006270 <__late_init>:
 8006270:	4770      	bx	lr
 8006272:	bf00      	nop
	...

08006280 <__core_init>:
}
 8006280:	4770      	bx	lr
 8006282:	bf00      	nop

08006284 <_Unwind_GetDataRelBase>:
 8006284:	b508      	push	{r3, lr}
 8006286:	f7fb fc03 	bl	8001a90 <abort>

0800628a <_Unwind_GetTextRelBase>:
 800628a:	b508      	push	{r3, lr}
 800628c:	f7ff fffa 	bl	8006284 <_Unwind_GetDataRelBase>
